
gemv_int8:     file format elf32-littleriscv


Disassembly of section .text:

000100b4 <exit>:
   100b4:	1141                	addi	sp,sp,-16
   100b6:	4581                	li	a1,0
   100b8:	c422                	sw	s0,8(sp)
   100ba:	c606                	sw	ra,12(sp)
   100bc:	842a                	mv	s0,a0
   100be:	12d000ef          	jal	109ea <__call_exitprocs>
   100c2:	f481a783          	lw	a5,-184(gp) # 1c878 <__stdio_exit_handler>
   100c6:	c391                	beqz	a5,100ca <exit+0x16>
   100c8:	9782                	jalr	a5
   100ca:	8522                	mv	a0,s0
   100cc:	354080ef          	jal	18420 <_exit>

000100d0 <register_fini>:
   100d0:	00000793          	li	a5,0
   100d4:	c791                	beqz	a5,100e0 <register_fini+0x10>
   100d6:	6551                	lui	a0,0x14
   100d8:	f3450513          	addi	a0,a0,-204 # 13f34 <__libc_fini_array>
   100dc:	1f30006f          	j	10ace <atexit>
   100e0:	8082                	ret

000100e2 <_start>:
   100e2:	0000d197          	auipc	gp,0xd
   100e6:	84e18193          	addi	gp,gp,-1970 # 1c930 <__global_pointer$>
   100ea:	00000513          	li	a0,0
   100ee:	c119                	beqz	a0,100f4 <_start+0x12>
   100f0:	01751073          	csrw	jvt,a0
   100f4:	0000c517          	auipc	a0,0xc
   100f8:	78450513          	addi	a0,a0,1924 # 1c878 <__stdio_exit_handler>
   100fc:	0000d617          	auipc	a2,0xd
   10100:	ab860613          	addi	a2,a2,-1352 # 1cbb4 <__BSS_END__>
   10104:	8e09                	sub	a2,a2,a0
   10106:	4581                	li	a1,0
   10108:	2fb1                	jal	10864 <memset>
   1010a:	00001517          	auipc	a0,0x1
   1010e:	9c450513          	addi	a0,a0,-1596 # 10ace <atexit>
   10112:	c519                	beqz	a0,10120 <_start+0x3e>
   10114:	00004517          	auipc	a0,0x4
   10118:	e2050513          	addi	a0,a0,-480 # 13f34 <__libc_fini_array>
   1011c:	1b3000ef          	jal	10ace <atexit>
   10120:	25cd                	jal	10802 <__libc_init_array>
   10122:	4502                	lw	a0,0(sp)
   10124:	004c                	addi	a1,sp,4
   10126:	00251613          	slli	a2,a0,0x2
   1012a:	0611                	addi	a2,a2,4
   1012c:	962e                	add	a2,a2,a1
   1012e:	28fd                	jal	1022c <main>
   10130:	b751                	j	100b4 <exit>

00010132 <__do_global_dtors_aux>:
   10132:	1141                	addi	sp,sp,-16
   10134:	c422                	sw	s0,8(sp)
   10136:	f681c783          	lbu	a5,-152(gp) # 1c898 <completed.1>
   1013a:	c606                	sw	ra,12(sp)
   1013c:	ef91                	bnez	a5,10158 <__do_global_dtors_aux+0x26>
   1013e:	00000793          	li	a5,0
   10142:	cb81                	beqz	a5,10152 <__do_global_dtors_aux+0x20>
   10144:	656d                	lui	a0,0x1b
   10146:	12050513          	addi	a0,a0,288 # 1b120 <__EH_FRAME_BEGIN__>
   1014a:	00000097          	auipc	ra,0x0
   1014e:	000000e7          	jalr	zero # 0 <exit-0x100b4>
   10152:	4785                	li	a5,1
   10154:	f6f18423          	sb	a5,-152(gp) # 1c898 <completed.1>
   10158:	40b2                	lw	ra,12(sp)
   1015a:	4422                	lw	s0,8(sp)
   1015c:	0141                	addi	sp,sp,16
   1015e:	8082                	ret

00010160 <frame_dummy>:
   10160:	00000793          	li	a5,0
   10164:	cb91                	beqz	a5,10178 <frame_dummy+0x18>
   10166:	656d                	lui	a0,0x1b
   10168:	f6c18593          	addi	a1,gp,-148 # 1c89c <object.0>
   1016c:	12050513          	addi	a0,a0,288 # 1b120 <__EH_FRAME_BEGIN__>
   10170:	00000317          	auipc	t1,0x0
   10174:	00000067          	jr	zero # 0 <exit-0x100b4>
   10178:	8082                	ret

0001017a <matmul_int8>:
   1017a:	7139                	addi	sp,sp,-64
   1017c:	de06                	sw	ra,60(sp)
   1017e:	dc22                	sw	s0,56(sp)
   10180:	0080                	addi	s0,sp,64
   10182:	fca42e23          	sw	a0,-36(s0)
   10186:	fcb42c23          	sw	a1,-40(s0)
   1018a:	fcc42a23          	sw	a2,-44(s0)
   1018e:	fcd42823          	sw	a3,-48(s0)
   10192:	fce42623          	sw	a4,-52(s0)
   10196:	fe042623          	sw	zero,-20(s0)
   1019a:	a8ad                	j	10214 <matmul_int8+0x9a>
   1019c:	fe042423          	sw	zero,-24(s0)
   101a0:	fe042223          	sw	zero,-28(s0)
   101a4:	a0a1                	j	101ec <matmul_int8+0x72>
   101a6:	fec42703          	lw	a4,-20(s0)
   101aa:	fcc42783          	lw	a5,-52(s0)
   101ae:	02f70733          	mul	a4,a4,a5
   101b2:	fe442783          	lw	a5,-28(s0)
   101b6:	97ba                	add	a5,a5,a4
   101b8:	873e                	mv	a4,a5
   101ba:	fd842783          	lw	a5,-40(s0)
   101be:	97ba                	add	a5,a5,a4
   101c0:	00078783          	lb	a5,0(a5)
   101c4:	86be                	mv	a3,a5
   101c6:	fe442783          	lw	a5,-28(s0)
   101ca:	fd442703          	lw	a4,-44(s0)
   101ce:	97ba                	add	a5,a5,a4
   101d0:	00078783          	lb	a5,0(a5)
   101d4:	02f687b3          	mul	a5,a3,a5
   101d8:	fe842703          	lw	a4,-24(s0)
   101dc:	97ba                	add	a5,a5,a4
   101de:	fef42423          	sw	a5,-24(s0)
   101e2:	fe442783          	lw	a5,-28(s0)
   101e6:	0785                	addi	a5,a5,1
   101e8:	fef42223          	sw	a5,-28(s0)
   101ec:	fe442703          	lw	a4,-28(s0)
   101f0:	fcc42783          	lw	a5,-52(s0)
   101f4:	faf749e3          	blt	a4,a5,101a6 <matmul_int8+0x2c>
   101f8:	fec42783          	lw	a5,-20(s0)
   101fc:	078a                	slli	a5,a5,0x2
   101fe:	fdc42703          	lw	a4,-36(s0)
   10202:	97ba                	add	a5,a5,a4
   10204:	fe842703          	lw	a4,-24(s0)
   10208:	c398                	sw	a4,0(a5)
   1020a:	fec42783          	lw	a5,-20(s0)
   1020e:	0785                	addi	a5,a5,1
   10210:	fef42623          	sw	a5,-20(s0)
   10214:	fec42703          	lw	a4,-20(s0)
   10218:	fd042783          	lw	a5,-48(s0)
   1021c:	f8f740e3          	blt	a4,a5,1019c <matmul_int8+0x22>
   10220:	0001                	nop
   10222:	0001                	nop
   10224:	50f2                	lw	ra,60(sp)
   10226:	5462                	lw	s0,56(sp)
   10228:	6121                	addi	sp,sp,64
   1022a:	8082                	ret

0001022c <main>:
   1022c:	1101                	addi	sp,sp,-32
   1022e:	ce06                	sw	ra,28(sp)
   10230:	cc22                	sw	s0,24(sp)
   10232:	1000                	addi	s0,sp,32
   10234:	4721                	li	a4,8
   10236:	4691                	li	a3,4
   10238:	f3418613          	addi	a2,gp,-204 # 1c864 <Vector_B>
   1023c:	67f1                	lui	a5,0x1c
   1023e:	13078593          	addi	a1,a5,304 # 1c130 <Matrix_A>
   10242:	f8418513          	addi	a0,gp,-124 # 1c8b4 <Result_C>
   10246:	3f15                	jal	1017a <matmul_int8>
   10248:	fe042623          	sw	zero,-20(s0)
   1024c:	a015                	j	10270 <main+0x44>
   1024e:	f8418713          	addi	a4,gp,-124 # 1c8b4 <Result_C>
   10252:	fec42783          	lw	a5,-20(s0)
   10256:	078a                	slli	a5,a5,0x2
   10258:	97ba                	add	a5,a5,a4
   1025a:	439c                	lw	a5,0(a5)
   1025c:	85be                	mv	a1,a5
   1025e:	67ed                	lui	a5,0x1b
   10260:	95078513          	addi	a0,a5,-1712 # 1a950 <__clzsi2+0x3e>
   10264:	2625                	jal	1058c <printf>
   10266:	fec42783          	lw	a5,-20(s0)
   1026a:	0785                	addi	a5,a5,1
   1026c:	fef42623          	sw	a5,-20(s0)
   10270:	fec42703          	lw	a4,-20(s0)
   10274:	478d                	li	a5,3
   10276:	fce7dce3          	bge	a5,a4,1024e <main+0x22>
   1027a:	4529                	li	a0,10
   1027c:	2689                	jal	105be <putchar>
   1027e:	4781                	li	a5,0
   10280:	853e                	mv	a0,a5
   10282:	40f2                	lw	ra,28(sp)
   10284:	4462                	lw	s0,24(sp)
   10286:	6105                	addi	sp,sp,32
   10288:	8082                	ret

0001028a <__fp_lock>:
   1028a:	4501                	li	a0,0
   1028c:	8082                	ret

0001028e <stdio_exit_handler>:
   1028e:	65cd                	lui	a1,0x13
   10290:	6571                	lui	a0,0x1c
   10292:	82018613          	addi	a2,gp,-2016 # 1c150 <__sglue>
   10296:	58a58593          	addi	a1,a1,1418 # 1358a <_fclose_r>
   1029a:	16050513          	addi	a0,a0,352 # 1c160 <_impure_data>
   1029e:	ac91                	j	104f2 <_fwalk_sglue>

000102a0 <cleanup_stdio>:
   102a0:	414c                	lw	a1,4(a0)
   102a2:	1141                	addi	sp,sp,-16
   102a4:	c422                	sw	s0,8(sp)
   102a6:	c606                	sw	ra,12(sp)
   102a8:	f9418793          	addi	a5,gp,-108 # 1c8c4 <__sf>
   102ac:	842a                	mv	s0,a0
   102ae:	00f58463          	beq	a1,a5,102b6 <cleanup_stdio+0x16>
   102b2:	2d8030ef          	jal	1358a <_fclose_r>
   102b6:	440c                	lw	a1,8(s0)
   102b8:	ffc18793          	addi	a5,gp,-4 # 1c92c <__sf+0x68>
   102bc:	00f58563          	beq	a1,a5,102c6 <cleanup_stdio+0x26>
   102c0:	8522                	mv	a0,s0
   102c2:	2c8030ef          	jal	1358a <_fclose_r>
   102c6:	444c                	lw	a1,12(s0)
   102c8:	06418793          	addi	a5,gp,100 # 1c994 <__global_pointer$+0x64>
   102cc:	00f58863          	beq	a1,a5,102dc <cleanup_stdio+0x3c>
   102d0:	8522                	mv	a0,s0
   102d2:	4422                	lw	s0,8(sp)
   102d4:	40b2                	lw	ra,12(sp)
   102d6:	0141                	addi	sp,sp,16
   102d8:	2b20306f          	j	1358a <_fclose_r>
   102dc:	40b2                	lw	ra,12(sp)
   102de:	4422                	lw	s0,8(sp)
   102e0:	0141                	addi	sp,sp,16
   102e2:	8082                	ret

000102e4 <__fp_unlock>:
   102e4:	4501                	li	a0,0
   102e6:	8082                	ret

000102e8 <global_stdio_init.part.0>:
   102e8:	1101                	addi	sp,sp,-32
   102ea:	67c1                	lui	a5,0x10
   102ec:	cc22                	sw	s0,24(sp)
   102ee:	28e78793          	addi	a5,a5,654 # 1028e <stdio_exit_handler>
   102f2:	f9418413          	addi	s0,gp,-108 # 1c8c4 <__sf>
   102f6:	ce06                	sw	ra,28(sp)
   102f8:	ca26                	sw	s1,20(sp)
   102fa:	c84a                	sw	s2,16(sp)
   102fc:	c64e                	sw	s3,12(sp)
   102fe:	c452                	sw	s4,8(sp)
   10300:	f4f1a423          	sw	a5,-184(gp) # 1c878 <__stdio_exit_handler>
   10304:	4621                	li	a2,8
   10306:	4791                	li	a5,4
   10308:	4581                	li	a1,0
   1030a:	ff018513          	addi	a0,gp,-16 # 1c920 <__sf+0x5c>
   1030e:	c45c                	sw	a5,12(s0)
   10310:	00042023          	sw	zero,0(s0)
   10314:	00042223          	sw	zero,4(s0)
   10318:	00042423          	sw	zero,8(s0)
   1031c:	06042223          	sw	zero,100(s0)
   10320:	00042823          	sw	zero,16(s0)
   10324:	00042a23          	sw	zero,20(s0)
   10328:	00042c23          	sw	zero,24(s0)
   1032c:	2b25                	jal	10864 <memset>
   1032e:	6a41                	lui	s4,0x10
   10330:	69c1                	lui	s3,0x10
   10332:	6941                	lui	s2,0x10
   10334:	64c1                	lui	s1,0x10
   10336:	67c1                	lui	a5,0x10
   10338:	5cca0a13          	addi	s4,s4,1484 # 105cc <__sread>
   1033c:	60698993          	addi	s3,s3,1542 # 10606 <__swrite>
   10340:	65690913          	addi	s2,s2,1622 # 10656 <__sseek>
   10344:	69648493          	addi	s1,s1,1686 # 10696 <__sclose>
   10348:	07a5                	addi	a5,a5,9 # 10009 <exit-0xab>
   1034a:	4621                	li	a2,8
   1034c:	4581                	li	a1,0
   1034e:	05818513          	addi	a0,gp,88 # 1c988 <__global_pointer$+0x58>
   10352:	d87c                	sw	a5,116(s0)
   10354:	03442023          	sw	s4,32(s0)
   10358:	03342223          	sw	s3,36(s0)
   1035c:	03242423          	sw	s2,40(s0)
   10360:	d444                	sw	s1,44(s0)
   10362:	cc40                	sw	s0,28(s0)
   10364:	06042423          	sw	zero,104(s0)
   10368:	06042623          	sw	zero,108(s0)
   1036c:	06042823          	sw	zero,112(s0)
   10370:	0c042623          	sw	zero,204(s0)
   10374:	06042c23          	sw	zero,120(s0)
   10378:	06042e23          	sw	zero,124(s0)
   1037c:	08042023          	sw	zero,128(s0)
   10380:	21d5                	jal	10864 <memset>
   10382:	000207b7          	lui	a5,0x20
   10386:	07c9                	addi	a5,a5,18 # 20012 <__BSS_END__+0x345e>
   10388:	ffc18713          	addi	a4,gp,-4 # 1c92c <__sf+0x68>
   1038c:	0c018513          	addi	a0,gp,192 # 1c9f0 <__global_pointer$+0xc0>
   10390:	4621                	li	a2,8
   10392:	4581                	li	a1,0
   10394:	09442423          	sw	s4,136(s0)
   10398:	09342623          	sw	s3,140(s0)
   1039c:	09242823          	sw	s2,144(s0)
   103a0:	08942a23          	sw	s1,148(s0)
   103a4:	0cf42e23          	sw	a5,220(s0)
   103a8:	0c042823          	sw	zero,208(s0)
   103ac:	0c042a23          	sw	zero,212(s0)
   103b0:	0c042c23          	sw	zero,216(s0)
   103b4:	12042a23          	sw	zero,308(s0)
   103b8:	0e042023          	sw	zero,224(s0)
   103bc:	0e042223          	sw	zero,228(s0)
   103c0:	0e042423          	sw	zero,232(s0)
   103c4:	08e42223          	sw	a4,132(s0)
   103c8:	2971                	jal	10864 <memset>
   103ca:	06418793          	addi	a5,gp,100 # 1c994 <__global_pointer$+0x64>
   103ce:	0f442823          	sw	s4,240(s0)
   103d2:	0f342a23          	sw	s3,244(s0)
   103d6:	0f242c23          	sw	s2,248(s0)
   103da:	0e942e23          	sw	s1,252(s0)
   103de:	40f2                	lw	ra,28(sp)
   103e0:	0ef42623          	sw	a5,236(s0)
   103e4:	4462                	lw	s0,24(sp)
   103e6:	44d2                	lw	s1,20(sp)
   103e8:	4942                	lw	s2,16(sp)
   103ea:	49b2                	lw	s3,12(sp)
   103ec:	4a22                	lw	s4,8(sp)
   103ee:	6105                	addi	sp,sp,32
   103f0:	8082                	ret

000103f2 <__sfp>:
   103f2:	f481a783          	lw	a5,-184(gp) # 1c878 <__stdio_exit_handler>
   103f6:	1101                	addi	sp,sp,-32
   103f8:	ca26                	sw	s1,20(sp)
   103fa:	ce06                	sw	ra,28(sp)
   103fc:	cc22                	sw	s0,24(sp)
   103fe:	84aa                	mv	s1,a0
   10400:	c7dd                	beqz	a5,104ae <__sfp+0xbc>
   10402:	82018813          	addi	a6,gp,-2016 # 1c150 <__sglue>
   10406:	56fd                	li	a3,-1
   10408:	00482783          	lw	a5,4(a6)
   1040c:	17fd                	addi	a5,a5,-1
   1040e:	0607c163          	bltz	a5,10470 <__sfp+0x7e>
   10412:	00882403          	lw	s0,8(a6)
   10416:	a029                	j	10420 <__sfp+0x2e>
   10418:	06840413          	addi	s0,s0,104
   1041c:	04d78a63          	beq	a5,a3,10470 <__sfp+0x7e>
   10420:	00c41703          	lh	a4,12(s0)
   10424:	17fd                	addi	a5,a5,-1
   10426:	fb6d                	bnez	a4,10418 <__sfp+0x26>
   10428:	77c1                	lui	a5,0xffff0
   1042a:	0785                	addi	a5,a5,1 # ffff0001 <__BSS_END__+0xfffd344d>
   1042c:	c45c                	sw	a5,12(s0)
   1042e:	06042223          	sw	zero,100(s0)
   10432:	00042023          	sw	zero,0(s0)
   10436:	00042423          	sw	zero,8(s0)
   1043a:	00042223          	sw	zero,4(s0)
   1043e:	00042823          	sw	zero,16(s0)
   10442:	00042a23          	sw	zero,20(s0)
   10446:	00042c23          	sw	zero,24(s0)
   1044a:	4621                	li	a2,8
   1044c:	4581                	li	a1,0
   1044e:	05c40513          	addi	a0,s0,92
   10452:	2909                	jal	10864 <memset>
   10454:	02042823          	sw	zero,48(s0)
   10458:	02042a23          	sw	zero,52(s0)
   1045c:	04042223          	sw	zero,68(s0)
   10460:	04042423          	sw	zero,72(s0)
   10464:	40f2                	lw	ra,28(sp)
   10466:	8522                	mv	a0,s0
   10468:	4462                	lw	s0,24(sp)
   1046a:	44d2                	lw	s1,20(sp)
   1046c:	6105                	addi	sp,sp,32
   1046e:	8082                	ret
   10470:	00082403          	lw	s0,0(a6)
   10474:	c019                	beqz	s0,1047a <__sfp+0x88>
   10476:	8822                	mv	a6,s0
   10478:	bf41                	j	10408 <__sfp+0x16>
   1047a:	1ac00593          	li	a1,428
   1047e:	8526                	mv	a0,s1
   10480:	c642                	sw	a6,12(sp)
   10482:	13b000ef          	jal	10dbc <_malloc_r>
   10486:	4832                	lw	a6,12(sp)
   10488:	842a                	mv	s0,a0
   1048a:	c505                	beqz	a0,104b2 <__sfp+0xc0>
   1048c:	4791                	li	a5,4
   1048e:	c15c                	sw	a5,4(a0)
   10490:	0531                	addi	a0,a0,12
   10492:	00042023          	sw	zero,0(s0)
   10496:	c408                	sw	a0,8(s0)
   10498:	1a000613          	li	a2,416
   1049c:	4581                	li	a1,0
   1049e:	c642                	sw	a6,12(sp)
   104a0:	26d1                	jal	10864 <memset>
   104a2:	4832                	lw	a6,12(sp)
   104a4:	56fd                	li	a3,-1
   104a6:	00882023          	sw	s0,0(a6)
   104aa:	8822                	mv	a6,s0
   104ac:	bfb1                	j	10408 <__sfp+0x16>
   104ae:	3d2d                	jal	102e8 <global_stdio_init.part.0>
   104b0:	bf89                	j	10402 <__sfp+0x10>
   104b2:	00082023          	sw	zero,0(a6)
   104b6:	47b1                	li	a5,12
   104b8:	c09c                	sw	a5,0(s1)
   104ba:	b76d                	j	10464 <__sfp+0x72>

000104bc <__sinit>:
   104bc:	595c                	lw	a5,52(a0)
   104be:	c391                	beqz	a5,104c2 <__sinit+0x6>
   104c0:	8082                	ret
   104c2:	67c1                	lui	a5,0x10
   104c4:	f481a703          	lw	a4,-184(gp) # 1c878 <__stdio_exit_handler>
   104c8:	2a078793          	addi	a5,a5,672 # 102a0 <cleanup_stdio>
   104cc:	d95c                	sw	a5,52(a0)
   104ce:	fb6d                	bnez	a4,104c0 <__sinit+0x4>
   104d0:	bd21                	j	102e8 <global_stdio_init.part.0>

000104d2 <__sfp_lock_acquire>:
   104d2:	8082                	ret

000104d4 <__sfp_lock_release>:
   104d4:	8082                	ret

000104d6 <__fp_lock_all>:
   104d6:	65c1                	lui	a1,0x10
   104d8:	82018613          	addi	a2,gp,-2016 # 1c150 <__sglue>
   104dc:	28a58593          	addi	a1,a1,650 # 1028a <__fp_lock>
   104e0:	4501                	li	a0,0
   104e2:	a801                	j	104f2 <_fwalk_sglue>

000104e4 <__fp_unlock_all>:
   104e4:	65c1                	lui	a1,0x10
   104e6:	82018613          	addi	a2,gp,-2016 # 1c150 <__sglue>
   104ea:	2e458593          	addi	a1,a1,740 # 102e4 <__fp_unlock>
   104ee:	4501                	li	a0,0
   104f0:	a009                	j	104f2 <_fwalk_sglue>

000104f2 <_fwalk_sglue>:
   104f2:	7179                	addi	sp,sp,-48
   104f4:	d04a                	sw	s2,32(sp)
   104f6:	ce4e                	sw	s3,28(sp)
   104f8:	cc52                	sw	s4,24(sp)
   104fa:	ca56                	sw	s5,20(sp)
   104fc:	c85a                	sw	s6,16(sp)
   104fe:	c65e                	sw	s7,12(sp)
   10500:	d606                	sw	ra,44(sp)
   10502:	d422                	sw	s0,40(sp)
   10504:	d226                	sw	s1,36(sp)
   10506:	8ab2                	mv	s5,a2
   10508:	8b2a                	mv	s6,a0
   1050a:	8bae                	mv	s7,a1
   1050c:	4a01                	li	s4,0
   1050e:	4985                	li	s3,1
   10510:	597d                	li	s2,-1
   10512:	004aa483          	lw	s1,4(s5)
   10516:	14fd                	addi	s1,s1,-1
   10518:	0204c663          	bltz	s1,10544 <_fwalk_sglue+0x52>
   1051c:	008aa403          	lw	s0,8(s5)
   10520:	00c45783          	lhu	a5,12(s0)
   10524:	00f9fb63          	bgeu	s3,a5,1053a <_fwalk_sglue+0x48>
   10528:	00e41783          	lh	a5,14(s0)
   1052c:	85a2                	mv	a1,s0
   1052e:	855a                	mv	a0,s6
   10530:	01278563          	beq	a5,s2,1053a <_fwalk_sglue+0x48>
   10534:	9b82                	jalr	s7
   10536:	00aa6a33          	or	s4,s4,a0
   1053a:	14fd                	addi	s1,s1,-1
   1053c:	06840413          	addi	s0,s0,104
   10540:	ff2490e3          	bne	s1,s2,10520 <_fwalk_sglue+0x2e>
   10544:	000aaa83          	lw	s5,0(s5)
   10548:	fc0a95e3          	bnez	s5,10512 <_fwalk_sglue+0x20>
   1054c:	50b2                	lw	ra,44(sp)
   1054e:	5422                	lw	s0,40(sp)
   10550:	5492                	lw	s1,36(sp)
   10552:	5902                	lw	s2,32(sp)
   10554:	49f2                	lw	s3,28(sp)
   10556:	4ad2                	lw	s5,20(sp)
   10558:	4b42                	lw	s6,16(sp)
   1055a:	4bb2                	lw	s7,12(sp)
   1055c:	8552                	mv	a0,s4
   1055e:	4a62                	lw	s4,24(sp)
   10560:	6145                	addi	sp,sp,48
   10562:	8082                	ret

00010564 <_printf_r>:
   10564:	7139                	addi	sp,sp,-64
   10566:	8e2e                	mv	t3,a1
   10568:	450c                	lw	a1,8(a0)
   1056a:	02810313          	addi	t1,sp,40
   1056e:	d432                	sw	a2,40(sp)
   10570:	d636                	sw	a3,44(sp)
   10572:	8672                	mv	a2,t3
   10574:	869a                	mv	a3,t1
   10576:	ce06                	sw	ra,28(sp)
   10578:	d83a                	sw	a4,48(sp)
   1057a:	da3e                	sw	a5,52(sp)
   1057c:	dc42                	sw	a6,56(sp)
   1057e:	de46                	sw	a7,60(sp)
   10580:	c61a                	sw	t1,12(sp)
   10582:	647000ef          	jal	113c8 <_vfprintf_r>
   10586:	40f2                	lw	ra,28(sp)
   10588:	6121                	addi	sp,sp,64
   1058a:	8082                	ret

0001058c <printf>:
   1058c:	f3c1a303          	lw	t1,-196(gp) # 1c86c <_impure_ptr>
   10590:	7139                	addi	sp,sp,-64
   10592:	d432                	sw	a2,40(sp)
   10594:	d636                	sw	a3,44(sp)
   10596:	d22e                	sw	a1,36(sp)
   10598:	d83a                	sw	a4,48(sp)
   1059a:	da3e                	sw	a5,52(sp)
   1059c:	dc42                	sw	a6,56(sp)
   1059e:	de46                	sw	a7,60(sp)
   105a0:	00832583          	lw	a1,8(t1) # 10178 <frame_dummy+0x18>
   105a4:	1054                	addi	a3,sp,36
   105a6:	862a                	mv	a2,a0
   105a8:	851a                	mv	a0,t1
   105aa:	ce06                	sw	ra,28(sp)
   105ac:	c636                	sw	a3,12(sp)
   105ae:	61b000ef          	jal	113c8 <_vfprintf_r>
   105b2:	40f2                	lw	ra,28(sp)
   105b4:	6121                	addi	sp,sp,64
   105b6:	8082                	ret

000105b8 <_putchar_r>:
   105b8:	4510                	lw	a2,8(a0)
   105ba:	5e00306f          	j	13b9a <_putc_r>

000105be <putchar>:
   105be:	f3c1a783          	lw	a5,-196(gp) # 1c86c <_impure_ptr>
   105c2:	85aa                	mv	a1,a0
   105c4:	4790                	lw	a2,8(a5)
   105c6:	853e                	mv	a0,a5
   105c8:	5d20306f          	j	13b9a <_putc_r>

000105cc <__sread>:
   105cc:	1141                	addi	sp,sp,-16
   105ce:	c422                	sw	s0,8(sp)
   105d0:	842e                	mv	s0,a1
   105d2:	00e59583          	lh	a1,14(a1)
   105d6:	c606                	sw	ra,12(sp)
   105d8:	2a4d                	jal	1078a <_read_r>
   105da:	00054963          	bltz	a0,105ec <__sread+0x20>
   105de:	483c                	lw	a5,80(s0)
   105e0:	40b2                	lw	ra,12(sp)
   105e2:	97aa                	add	a5,a5,a0
   105e4:	c83c                	sw	a5,80(s0)
   105e6:	4422                	lw	s0,8(sp)
   105e8:	0141                	addi	sp,sp,16
   105ea:	8082                	ret
   105ec:	00c45783          	lhu	a5,12(s0)
   105f0:	777d                	lui	a4,0xfffff
   105f2:	177d                	addi	a4,a4,-1 # ffffefff <__BSS_END__+0xfffe244b>
   105f4:	8ff9                	and	a5,a5,a4
   105f6:	40b2                	lw	ra,12(sp)
   105f8:	00f41623          	sh	a5,12(s0)
   105fc:	4422                	lw	s0,8(sp)
   105fe:	0141                	addi	sp,sp,16
   10600:	8082                	ret

00010602 <__seofread>:
   10602:	4501                	li	a0,0
   10604:	8082                	ret

00010606 <__swrite>:
   10606:	00c59783          	lh	a5,12(a1)
   1060a:	1101                	addi	sp,sp,-32
   1060c:	8336                	mv	t1,a3
   1060e:	ce06                	sw	ra,28(sp)
   10610:	1007f693          	andi	a3,a5,256
   10614:	872e                	mv	a4,a1
   10616:	88b2                	mv	a7,a2
   10618:	882a                	mv	a6,a0
   1061a:	ee91                	bnez	a3,10636 <__swrite+0x30>
   1061c:	76fd                	lui	a3,0xfffff
   1061e:	16fd                	addi	a3,a3,-1 # ffffefff <__BSS_END__+0xfffe244b>
   10620:	40f2                	lw	ra,28(sp)
   10622:	8ff5                	and	a5,a5,a3
   10624:	00e71583          	lh	a1,14(a4)
   10628:	00f71623          	sh	a5,12(a4)
   1062c:	869a                	mv	a3,t1
   1062e:	8646                	mv	a2,a7
   10630:	8542                	mv	a0,a6
   10632:	6105                	addi	sp,sp,32
   10634:	aa49                	j	107c6 <_write_r>
   10636:	00e59583          	lh	a1,14(a1)
   1063a:	c432                	sw	a2,8(sp)
   1063c:	4689                	li	a3,2
   1063e:	4601                	li	a2,0
   10640:	c61a                	sw	t1,12(sp)
   10642:	c03a                	sw	a4,0(sp)
   10644:	c22a                	sw	a0,4(sp)
   10646:	2221                	jal	1074e <_lseek_r>
   10648:	4702                	lw	a4,0(sp)
   1064a:	4332                	lw	t1,12(sp)
   1064c:	48a2                	lw	a7,8(sp)
   1064e:	00c71783          	lh	a5,12(a4)
   10652:	4812                	lw	a6,4(sp)
   10654:	b7e1                	j	1061c <__swrite+0x16>

00010656 <__sseek>:
   10656:	1141                	addi	sp,sp,-16
   10658:	c422                	sw	s0,8(sp)
   1065a:	842e                	mv	s0,a1
   1065c:	00e59583          	lh	a1,14(a1)
   10660:	c606                	sw	ra,12(sp)
   10662:	20f5                	jal	1074e <_lseek_r>
   10664:	577d                	li	a4,-1
   10666:	00c41783          	lh	a5,12(s0)
   1066a:	00e50b63          	beq	a0,a4,10680 <__sseek+0x2a>
   1066e:	6705                	lui	a4,0x1
   10670:	8fd9                	or	a5,a5,a4
   10672:	40b2                	lw	ra,12(sp)
   10674:	c828                	sw	a0,80(s0)
   10676:	00f41623          	sh	a5,12(s0)
   1067a:	4422                	lw	s0,8(sp)
   1067c:	0141                	addi	sp,sp,16
   1067e:	8082                	ret
   10680:	80050713          	addi	a4,a0,-2048
   10684:	80070713          	addi	a4,a4,-2048 # 800 <exit-0xf8b4>
   10688:	8ff9                	and	a5,a5,a4
   1068a:	40b2                	lw	ra,12(sp)
   1068c:	00f41623          	sh	a5,12(s0)
   10690:	4422                	lw	s0,8(sp)
   10692:	0141                	addi	sp,sp,16
   10694:	8082                	ret

00010696 <__sclose>:
   10696:	00e59583          	lh	a1,14(a1)
   1069a:	a009                	j	1069c <_close_r>

0001069c <_close_r>:
   1069c:	1141                	addi	sp,sp,-16
   1069e:	c422                	sw	s0,8(sp)
   106a0:	c226                	sw	s1,4(sp)
   106a2:	84aa                	mv	s1,a0
   106a4:	852e                	mv	a0,a1
   106a6:	c606                	sw	ra,12(sp)
   106a8:	f401a623          	sw	zero,-180(gp) # 1c87c <errno>
   106ac:	54d070ef          	jal	183f8 <_close>
   106b0:	57fd                	li	a5,-1
   106b2:	00f50763          	beq	a0,a5,106c0 <_close_r+0x24>
   106b6:	40b2                	lw	ra,12(sp)
   106b8:	4422                	lw	s0,8(sp)
   106ba:	4492                	lw	s1,4(sp)
   106bc:	0141                	addi	sp,sp,16
   106be:	8082                	ret
   106c0:	f4c1a783          	lw	a5,-180(gp) # 1c87c <errno>
   106c4:	dbed                	beqz	a5,106b6 <_close_r+0x1a>
   106c6:	40b2                	lw	ra,12(sp)
   106c8:	4422                	lw	s0,8(sp)
   106ca:	c09c                	sw	a5,0(s1)
   106cc:	4492                	lw	s1,4(sp)
   106ce:	0141                	addi	sp,sp,16
   106d0:	8082                	ret

000106d2 <_reclaim_reent>:
   106d2:	f3c1a783          	lw	a5,-196(gp) # 1c86c <_impure_ptr>
   106d6:	06a78b63          	beq	a5,a0,1074c <_reclaim_reent+0x7a>
   106da:	416c                	lw	a1,68(a0)
   106dc:	1101                	addi	sp,sp,-32
   106de:	ca26                	sw	s1,20(sp)
   106e0:	ce06                	sw	ra,28(sp)
   106e2:	cc22                	sw	s0,24(sp)
   106e4:	84aa                	mv	s1,a0
   106e6:	c59d                	beqz	a1,10714 <_reclaim_reent+0x42>
   106e8:	c84a                	sw	s2,16(sp)
   106ea:	c64e                	sw	s3,12(sp)
   106ec:	4901                	li	s2,0
   106ee:	08000993          	li	s3,128
   106f2:	012587b3          	add	a5,a1,s2
   106f6:	4380                	lw	s0,0(a5)
   106f8:	c419                	beqz	s0,10706 <_reclaim_reent+0x34>
   106fa:	85a2                	mv	a1,s0
   106fc:	4000                	lw	s0,0(s0)
   106fe:	8526                	mv	a0,s1
   10700:	2145                	jal	10ba0 <_free_r>
   10702:	fc65                	bnez	s0,106fa <_reclaim_reent+0x28>
   10704:	40ec                	lw	a1,68(s1)
   10706:	0911                	addi	s2,s2,4
   10708:	ff3915e3          	bne	s2,s3,106f2 <_reclaim_reent+0x20>
   1070c:	8526                	mv	a0,s1
   1070e:	2949                	jal	10ba0 <_free_r>
   10710:	4942                	lw	s2,16(sp)
   10712:	49b2                	lw	s3,12(sp)
   10714:	5c8c                	lw	a1,56(s1)
   10716:	c199                	beqz	a1,1071c <_reclaim_reent+0x4a>
   10718:	8526                	mv	a0,s1
   1071a:	2159                	jal	10ba0 <_free_r>
   1071c:	40a0                	lw	s0,64(s1)
   1071e:	c411                	beqz	s0,1072a <_reclaim_reent+0x58>
   10720:	85a2                	mv	a1,s0
   10722:	4000                	lw	s0,0(s0)
   10724:	8526                	mv	a0,s1
   10726:	29ad                	jal	10ba0 <_free_r>
   10728:	fc65                	bnez	s0,10720 <_reclaim_reent+0x4e>
   1072a:	44ec                	lw	a1,76(s1)
   1072c:	c199                	beqz	a1,10732 <_reclaim_reent+0x60>
   1072e:	8526                	mv	a0,s1
   10730:	2985                	jal	10ba0 <_free_r>
   10732:	58dc                	lw	a5,52(s1)
   10734:	c799                	beqz	a5,10742 <_reclaim_reent+0x70>
   10736:	4462                	lw	s0,24(sp)
   10738:	40f2                	lw	ra,28(sp)
   1073a:	8526                	mv	a0,s1
   1073c:	44d2                	lw	s1,20(sp)
   1073e:	6105                	addi	sp,sp,32
   10740:	8782                	jr	a5
   10742:	40f2                	lw	ra,28(sp)
   10744:	4462                	lw	s0,24(sp)
   10746:	44d2                	lw	s1,20(sp)
   10748:	6105                	addi	sp,sp,32
   1074a:	8082                	ret
   1074c:	8082                	ret

0001074e <_lseek_r>:
   1074e:	1141                	addi	sp,sp,-16
   10750:	87ae                	mv	a5,a1
   10752:	c422                	sw	s0,8(sp)
   10754:	c226                	sw	s1,4(sp)
   10756:	85b2                	mv	a1,a2
   10758:	84aa                	mv	s1,a0
   1075a:	8636                	mv	a2,a3
   1075c:	853e                	mv	a0,a5
   1075e:	c606                	sw	ra,12(sp)
   10760:	f401a623          	sw	zero,-180(gp) # 1c87c <errno>
   10764:	54d070ef          	jal	184b0 <_lseek>
   10768:	57fd                	li	a5,-1
   1076a:	00f50763          	beq	a0,a5,10778 <_lseek_r+0x2a>
   1076e:	40b2                	lw	ra,12(sp)
   10770:	4422                	lw	s0,8(sp)
   10772:	4492                	lw	s1,4(sp)
   10774:	0141                	addi	sp,sp,16
   10776:	8082                	ret
   10778:	f4c1a783          	lw	a5,-180(gp) # 1c87c <errno>
   1077c:	dbed                	beqz	a5,1076e <_lseek_r+0x20>
   1077e:	40b2                	lw	ra,12(sp)
   10780:	4422                	lw	s0,8(sp)
   10782:	c09c                	sw	a5,0(s1)
   10784:	4492                	lw	s1,4(sp)
   10786:	0141                	addi	sp,sp,16
   10788:	8082                	ret

0001078a <_read_r>:
   1078a:	1141                	addi	sp,sp,-16
   1078c:	87ae                	mv	a5,a1
   1078e:	c422                	sw	s0,8(sp)
   10790:	c226                	sw	s1,4(sp)
   10792:	85b2                	mv	a1,a2
   10794:	84aa                	mv	s1,a0
   10796:	8636                	mv	a2,a3
   10798:	853e                	mv	a0,a5
   1079a:	c606                	sw	ra,12(sp)
   1079c:	f401a623          	sw	zero,-180(gp) # 1c87c <errno>
   107a0:	539070ef          	jal	184d8 <_read>
   107a4:	57fd                	li	a5,-1
   107a6:	00f50763          	beq	a0,a5,107b4 <_read_r+0x2a>
   107aa:	40b2                	lw	ra,12(sp)
   107ac:	4422                	lw	s0,8(sp)
   107ae:	4492                	lw	s1,4(sp)
   107b0:	0141                	addi	sp,sp,16
   107b2:	8082                	ret
   107b4:	f4c1a783          	lw	a5,-180(gp) # 1c87c <errno>
   107b8:	dbed                	beqz	a5,107aa <_read_r+0x20>
   107ba:	40b2                	lw	ra,12(sp)
   107bc:	4422                	lw	s0,8(sp)
   107be:	c09c                	sw	a5,0(s1)
   107c0:	4492                	lw	s1,4(sp)
   107c2:	0141                	addi	sp,sp,16
   107c4:	8082                	ret

000107c6 <_write_r>:
   107c6:	1141                	addi	sp,sp,-16
   107c8:	87ae                	mv	a5,a1
   107ca:	c422                	sw	s0,8(sp)
   107cc:	c226                	sw	s1,4(sp)
   107ce:	85b2                	mv	a1,a2
   107d0:	84aa                	mv	s1,a0
   107d2:	8636                	mv	a2,a3
   107d4:	853e                	mv	a0,a5
   107d6:	c606                	sw	ra,12(sp)
   107d8:	f401a623          	sw	zero,-180(gp) # 1c87c <errno>
   107dc:	577070ef          	jal	18552 <_write>
   107e0:	57fd                	li	a5,-1
   107e2:	00f50763          	beq	a0,a5,107f0 <_write_r+0x2a>
   107e6:	40b2                	lw	ra,12(sp)
   107e8:	4422                	lw	s0,8(sp)
   107ea:	4492                	lw	s1,4(sp)
   107ec:	0141                	addi	sp,sp,16
   107ee:	8082                	ret
   107f0:	f4c1a783          	lw	a5,-180(gp) # 1c87c <errno>
   107f4:	dbed                	beqz	a5,107e6 <_write_r+0x20>
   107f6:	40b2                	lw	ra,12(sp)
   107f8:	4422                	lw	s0,8(sp)
   107fa:	c09c                	sw	a5,0(s1)
   107fc:	4492                	lw	s1,4(sp)
   107fe:	0141                	addi	sp,sp,16
   10800:	8082                	ret

00010802 <__libc_init_array>:
   10802:	1141                	addi	sp,sp,-16
   10804:	c422                	sw	s0,8(sp)
   10806:	c04a                	sw	s2,0(sp)
   10808:	6471                	lui	s0,0x1c
   1080a:	6971                	lui	s2,0x1c
   1080c:	c606                	sw	ra,12(sp)
   1080e:	c226                	sw	s1,4(sp)
   10810:	12490913          	addi	s2,s2,292 # 1c124 <__init_array_start>
   10814:	12440413          	addi	s0,s0,292 # 1c124 <__init_array_start>
   10818:	00890d63          	beq	s2,s0,10832 <__libc_init_array+0x30>
   1081c:	40890933          	sub	s2,s2,s0
   10820:	40295913          	srai	s2,s2,0x2
   10824:	4481                	li	s1,0
   10826:	401c                	lw	a5,0(s0)
   10828:	0485                	addi	s1,s1,1
   1082a:	0411                	addi	s0,s0,4
   1082c:	9782                	jalr	a5
   1082e:	ff24ece3          	bltu	s1,s2,10826 <__libc_init_array+0x24>
   10832:	6971                	lui	s2,0x1c
   10834:	6471                	lui	s0,0x1c
   10836:	12c90913          	addi	s2,s2,300 # 1c12c <__do_global_dtors_aux_fini_array_entry>
   1083a:	12440413          	addi	s0,s0,292 # 1c124 <__init_array_start>
   1083e:	00890d63          	beq	s2,s0,10858 <__libc_init_array+0x56>
   10842:	40890933          	sub	s2,s2,s0
   10846:	40295913          	srai	s2,s2,0x2
   1084a:	4481                	li	s1,0
   1084c:	401c                	lw	a5,0(s0)
   1084e:	0485                	addi	s1,s1,1
   10850:	0411                	addi	s0,s0,4
   10852:	9782                	jalr	a5
   10854:	ff24ece3          	bltu	s1,s2,1084c <__libc_init_array+0x4a>
   10858:	40b2                	lw	ra,12(sp)
   1085a:	4422                	lw	s0,8(sp)
   1085c:	4492                	lw	s1,4(sp)
   1085e:	4902                	lw	s2,0(sp)
   10860:	0141                	addi	sp,sp,16
   10862:	8082                	ret

00010864 <memset>:
   10864:	47fd                	li	a5,31
   10866:	86aa                	mv	a3,a0
   10868:	0ec7fa63          	bgeu	a5,a2,1095c <memset+0xf8>
   1086c:	0036f713          	andi	a4,a3,3
   10870:	cf19                	beqz	a4,1088e <memset+0x2a>
   10872:	00000297          	auipc	t0,0x0
   10876:	00271313          	slli	t1,a4,0x2
   1087a:	929a                	add	t0,t0,t1
   1087c:	8306                	mv	t1,ra
   1087e:	166280e7          	jalr	358(t0) # 109d8 <memset+0x174>
   10882:	809a                	mv	ra,t1
   10884:	1771                	addi	a4,a4,-4
   10886:	963a                	add	a2,a2,a4
   10888:	8e99                	sub	a3,a3,a4
   1088a:	0cc7f963          	bgeu	a5,a2,1095c <memset+0xf8>
   1088e:	e199                	bnez	a1,10894 <memset+0x30>
   10890:	a821                	j	108a8 <memset+0x44>
   10892:	0001                	nop
   10894:	0ff5f593          	zext.b	a1,a1
   10898:	00859293          	slli	t0,a1,0x8
   1089c:	0055e5b3          	or	a1,a1,t0
   108a0:	01059293          	slli	t0,a1,0x10
   108a4:	0055e5b3          	or	a1,a1,t0
   108a8:	ffc67293          	andi	t0,a2,-4
   108ac:	00568333          	add	t1,a3,t0
   108b0:	07c2f293          	andi	t0,t0,124
   108b4:	00028e63          	beqz	t0,108d0 <memset+0x6c>
   108b8:	405002b3          	neg	t0,t0
   108bc:	08028293          	addi	t0,t0,128
   108c0:	405686b3          	sub	a3,a3,t0
   108c4:	00000397          	auipc	t2,0x0
   108c8:	9396                	add	t2,t2,t0
   108ca:	00c38067          	jr	12(t2) # 108d0 <memset+0x6c>
   108ce:	0001                	nop
   108d0:	00b6a023          	sw	a1,0(a3)
   108d4:	00b6a223          	sw	a1,4(a3)
   108d8:	00b6a423          	sw	a1,8(a3)
   108dc:	00b6a623          	sw	a1,12(a3)
   108e0:	00b6a823          	sw	a1,16(a3)
   108e4:	00b6aa23          	sw	a1,20(a3)
   108e8:	00b6ac23          	sw	a1,24(a3)
   108ec:	00b6ae23          	sw	a1,28(a3)
   108f0:	02b6a023          	sw	a1,32(a3)
   108f4:	02b6a223          	sw	a1,36(a3)
   108f8:	02b6a423          	sw	a1,40(a3)
   108fc:	02b6a623          	sw	a1,44(a3)
   10900:	02b6a823          	sw	a1,48(a3)
   10904:	02b6aa23          	sw	a1,52(a3)
   10908:	02b6ac23          	sw	a1,56(a3)
   1090c:	02b6ae23          	sw	a1,60(a3)
   10910:	04b6a023          	sw	a1,64(a3)
   10914:	04b6a223          	sw	a1,68(a3)
   10918:	04b6a423          	sw	a1,72(a3)
   1091c:	04b6a623          	sw	a1,76(a3)
   10920:	04b6a823          	sw	a1,80(a3)
   10924:	04b6aa23          	sw	a1,84(a3)
   10928:	04b6ac23          	sw	a1,88(a3)
   1092c:	04b6ae23          	sw	a1,92(a3)
   10930:	06b6a023          	sw	a1,96(a3)
   10934:	06b6a223          	sw	a1,100(a3)
   10938:	06b6a423          	sw	a1,104(a3)
   1093c:	06b6a623          	sw	a1,108(a3)
   10940:	06b6a823          	sw	a1,112(a3)
   10944:	06b6aa23          	sw	a1,116(a3)
   10948:	06b6ac23          	sw	a1,120(a3)
   1094c:	06b6ae23          	sw	a1,124(a3)
   10950:	08068693          	addi	a3,a3,128
   10954:	f666eee3          	bltu	a3,t1,108d0 <memset+0x6c>
   10958:	8a0d                	andi	a2,a2,3
   1095a:	c659                	beqz	a2,109e8 <memset+0x184>
   1095c:	00000297          	auipc	t0,0x0
   10960:	40c78633          	sub	a2,a5,a2
   10964:	060a                	slli	a2,a2,0x2
   10966:	92b2                	add	t0,t0,a2
   10968:	01028067          	jr	16(t0) # 1096c <memset+0x108>
   1096c:	00b68f23          	sb	a1,30(a3)
   10970:	00b68ea3          	sb	a1,29(a3)
   10974:	00b68e23          	sb	a1,28(a3)
   10978:	00b68da3          	sb	a1,27(a3)
   1097c:	00b68d23          	sb	a1,26(a3)
   10980:	00b68ca3          	sb	a1,25(a3)
   10984:	00b68c23          	sb	a1,24(a3)
   10988:	00b68ba3          	sb	a1,23(a3)
   1098c:	00b68b23          	sb	a1,22(a3)
   10990:	00b68aa3          	sb	a1,21(a3)
   10994:	00b68a23          	sb	a1,20(a3)
   10998:	00b689a3          	sb	a1,19(a3)
   1099c:	00b68923          	sb	a1,18(a3)
   109a0:	00b688a3          	sb	a1,17(a3)
   109a4:	00b68823          	sb	a1,16(a3)
   109a8:	00b687a3          	sb	a1,15(a3)
   109ac:	00b68723          	sb	a1,14(a3)
   109b0:	00b686a3          	sb	a1,13(a3)
   109b4:	00b68623          	sb	a1,12(a3)
   109b8:	00b685a3          	sb	a1,11(a3)
   109bc:	00b68523          	sb	a1,10(a3)
   109c0:	00b684a3          	sb	a1,9(a3)
   109c4:	00b68423          	sb	a1,8(a3)
   109c8:	00b683a3          	sb	a1,7(a3)
   109cc:	00b68323          	sb	a1,6(a3)
   109d0:	00b682a3          	sb	a1,5(a3)
   109d4:	00b68223          	sb	a1,4(a3)
   109d8:	00b681a3          	sb	a1,3(a3)
   109dc:	00b68123          	sb	a1,2(a3)
   109e0:	00b680a3          	sb	a1,1(a3)
   109e4:	00b68023          	sb	a1,0(a3)
   109e8:	8082                	ret

000109ea <__call_exitprocs>:
   109ea:	7179                	addi	sp,sp,-48
   109ec:	cc52                	sw	s4,24(sp)
   109ee:	d04a                	sw	s2,32(sp)
   109f0:	f501a903          	lw	s2,-176(gp) # 1c880 <__atexit>
   109f4:	d606                	sw	ra,44(sp)
   109f6:	06090c63          	beqz	s2,10a6e <__call_exitprocs+0x84>
   109fa:	ce4e                	sw	s3,28(sp)
   109fc:	ca56                	sw	s5,20(sp)
   109fe:	c85a                	sw	s6,16(sp)
   10a00:	c65e                	sw	s7,12(sp)
   10a02:	d422                	sw	s0,40(sp)
   10a04:	d226                	sw	s1,36(sp)
   10a06:	c462                	sw	s8,8(sp)
   10a08:	8b2a                	mv	s6,a0
   10a0a:	8bae                	mv	s7,a1
   10a0c:	59fd                	li	s3,-1
   10a0e:	4a85                	li	s5,1
   10a10:	00492483          	lw	s1,4(s2)
   10a14:	fff48413          	addi	s0,s1,-1
   10a18:	04044463          	bltz	s0,10a60 <__call_exitprocs+0x76>
   10a1c:	048a                	slli	s1,s1,0x2
   10a1e:	94ca                	add	s1,s1,s2
   10a20:	040b9c63          	bnez	s7,10a78 <__call_exitprocs+0x8e>
   10a24:	00492783          	lw	a5,4(s2)
   10a28:	40d4                	lw	a3,4(s1)
   10a2a:	17fd                	addi	a5,a5,-1
   10a2c:	08878863          	beq	a5,s0,10abc <__call_exitprocs+0xd2>
   10a30:	0004a223          	sw	zero,4(s1)
   10a34:	c295                	beqz	a3,10a58 <__call_exitprocs+0x6e>
   10a36:	18892783          	lw	a5,392(s2)
   10a3a:	008a9733          	sll	a4,s5,s0
   10a3e:	00492c03          	lw	s8,4(s2)
   10a42:	8ff9                	and	a5,a5,a4
   10a44:	ebb9                	bnez	a5,10a9a <__call_exitprocs+0xb0>
   10a46:	9682                	jalr	a3
   10a48:	00492703          	lw	a4,4(s2)
   10a4c:	f501a783          	lw	a5,-176(gp) # 1c880 <__atexit>
   10a50:	07871363          	bne	a4,s8,10ab6 <__call_exitprocs+0xcc>
   10a54:	07279163          	bne	a5,s2,10ab6 <__call_exitprocs+0xcc>
   10a58:	147d                	addi	s0,s0,-1
   10a5a:	14f1                	addi	s1,s1,-4
   10a5c:	fd3412e3          	bne	s0,s3,10a20 <__call_exitprocs+0x36>
   10a60:	5422                	lw	s0,40(sp)
   10a62:	5492                	lw	s1,36(sp)
   10a64:	49f2                	lw	s3,28(sp)
   10a66:	4ad2                	lw	s5,20(sp)
   10a68:	4b42                	lw	s6,16(sp)
   10a6a:	4bb2                	lw	s7,12(sp)
   10a6c:	4c22                	lw	s8,8(sp)
   10a6e:	50b2                	lw	ra,44(sp)
   10a70:	5902                	lw	s2,32(sp)
   10a72:	4a62                	lw	s4,24(sp)
   10a74:	6145                	addi	sp,sp,48
   10a76:	8082                	ret
   10a78:	1044a783          	lw	a5,260(s1)
   10a7c:	fff40713          	addi	a4,s0,-1
   10a80:	fafb82e3          	beq	s7,a5,10a24 <__call_exitprocs+0x3a>
   10a84:	1479                	addi	s0,s0,-2
   10a86:	fd370de3          	beq	a4,s3,10a60 <__call_exitprocs+0x76>
   10a8a:	1004a783          	lw	a5,256(s1)
   10a8e:	03778a63          	beq	a5,s7,10ac2 <__call_exitprocs+0xd8>
   10a92:	14e1                	addi	s1,s1,-8
   10a94:	ff3412e3          	bne	s0,s3,10a78 <__call_exitprocs+0x8e>
   10a98:	b7e1                	j	10a60 <__call_exitprocs+0x76>
   10a9a:	18c92783          	lw	a5,396(s2)
   10a9e:	0844a583          	lw	a1,132(s1)
   10aa2:	8f7d                	and	a4,a4,a5
   10aa4:	e315                	bnez	a4,10ac8 <__call_exitprocs+0xde>
   10aa6:	855a                	mv	a0,s6
   10aa8:	9682                	jalr	a3
   10aaa:	00492703          	lw	a4,4(s2)
   10aae:	f501a783          	lw	a5,-176(gp) # 1c880 <__atexit>
   10ab2:	fb8701e3          	beq	a4,s8,10a54 <__call_exitprocs+0x6a>
   10ab6:	d7cd                	beqz	a5,10a60 <__call_exitprocs+0x76>
   10ab8:	893e                	mv	s2,a5
   10aba:	bf99                	j	10a10 <__call_exitprocs+0x26>
   10abc:	00892223          	sw	s0,4(s2)
   10ac0:	bf95                	j	10a34 <__call_exitprocs+0x4a>
   10ac2:	14f1                	addi	s1,s1,-4
   10ac4:	843a                	mv	s0,a4
   10ac6:	bfb9                	j	10a24 <__call_exitprocs+0x3a>
   10ac8:	852e                	mv	a0,a1
   10aca:	9682                	jalr	a3
   10acc:	bfb5                	j	10a48 <__call_exitprocs+0x5e>

00010ace <atexit>:
   10ace:	85aa                	mv	a1,a0
   10ad0:	4681                	li	a3,0
   10ad2:	4601                	li	a2,0
   10ad4:	4501                	li	a0,0
   10ad6:	2e30306f          	j	145b8 <__register_exitproc>

00010ada <_malloc_trim_r>:
   10ada:	1101                	addi	sp,sp,-32
   10adc:	c84a                	sw	s2,16(sp)
   10ade:	6971                	lui	s2,0x1c
   10ae0:	cc22                	sw	s0,24(sp)
   10ae2:	ca26                	sw	s1,20(sp)
   10ae4:	c64e                	sw	s3,12(sp)
   10ae6:	842e                	mv	s0,a1
   10ae8:	ce06                	sw	ra,28(sp)
   10aea:	89aa                	mv	s3,a0
   10aec:	28090913          	addi	s2,s2,640 # 1c280 <__malloc_av_>
   10af0:	0d5000ef          	jal	113c4 <__malloc_lock>
   10af4:	00892783          	lw	a5,8(s2)
   10af8:	6705                	lui	a4,0x1
   10afa:	43c4                	lw	s1,4(a5)
   10afc:	98f1                	andi	s1,s1,-4
   10afe:	7ff48793          	addi	a5,s1,2047
   10b02:	7f078793          	addi	a5,a5,2032
   10b06:	40878433          	sub	s0,a5,s0
   10b0a:	8031                	srli	s0,s0,0xc
   10b0c:	147d                	addi	s0,s0,-1
   10b0e:	0432                	slli	s0,s0,0xc
   10b10:	00e44b63          	blt	s0,a4,10b26 <_malloc_trim_r+0x4c>
   10b14:	4581                	li	a1,0
   10b16:	854e                	mv	a0,s3
   10b18:	3e6030ef          	jal	13efe <_sbrk_r>
   10b1c:	00892783          	lw	a5,8(s2)
   10b20:	97a6                	add	a5,a5,s1
   10b22:	00f50d63          	beq	a0,a5,10b3c <_malloc_trim_r+0x62>
   10b26:	854e                	mv	a0,s3
   10b28:	09f000ef          	jal	113c6 <__malloc_unlock>
   10b2c:	40f2                	lw	ra,28(sp)
   10b2e:	4462                	lw	s0,24(sp)
   10b30:	44d2                	lw	s1,20(sp)
   10b32:	4942                	lw	s2,16(sp)
   10b34:	49b2                	lw	s3,12(sp)
   10b36:	4501                	li	a0,0
   10b38:	6105                	addi	sp,sp,32
   10b3a:	8082                	ret
   10b3c:	408005b3          	neg	a1,s0
   10b40:	854e                	mv	a0,s3
   10b42:	3bc030ef          	jal	13efe <_sbrk_r>
   10b46:	57fd                	li	a5,-1
   10b48:	02f50863          	beq	a0,a5,10b78 <_malloc_trim_r+0x9e>
   10b4c:	00892683          	lw	a3,8(s2)
   10b50:	0cc1a783          	lw	a5,204(gp) # 1c9fc <__malloc_current_mallinfo>
   10b54:	8c81                	sub	s1,s1,s0
   10b56:	0014e493          	ori	s1,s1,1
   10b5a:	854e                	mv	a0,s3
   10b5c:	8f81                	sub	a5,a5,s0
   10b5e:	c2c4                	sw	s1,4(a3)
   10b60:	0cf1a623          	sw	a5,204(gp) # 1c9fc <__malloc_current_mallinfo>
   10b64:	063000ef          	jal	113c6 <__malloc_unlock>
   10b68:	40f2                	lw	ra,28(sp)
   10b6a:	4462                	lw	s0,24(sp)
   10b6c:	44d2                	lw	s1,20(sp)
   10b6e:	4942                	lw	s2,16(sp)
   10b70:	49b2                	lw	s3,12(sp)
   10b72:	4505                	li	a0,1
   10b74:	6105                	addi	sp,sp,32
   10b76:	8082                	ret
   10b78:	4581                	li	a1,0
   10b7a:	854e                	mv	a0,s3
   10b7c:	382030ef          	jal	13efe <_sbrk_r>
   10b80:	00892703          	lw	a4,8(s2)
   10b84:	46bd                	li	a3,15
   10b86:	40e507b3          	sub	a5,a0,a4
   10b8a:	f8f6dee3          	bge	a3,a5,10b26 <_malloc_trim_r+0x4c>
   10b8e:	f401a603          	lw	a2,-192(gp) # 1c870 <__malloc_sbrk_base>
   10b92:	0017e793          	ori	a5,a5,1
   10b96:	8d11                	sub	a0,a0,a2
   10b98:	c35c                	sw	a5,4(a4)
   10b9a:	0ca1a623          	sw	a0,204(gp) # 1c9fc <__malloc_current_mallinfo>
   10b9e:	b761                	j	10b26 <_malloc_trim_r+0x4c>

00010ba0 <_free_r>:
   10ba0:	cdf1                	beqz	a1,10c7c <_free_r+0xdc>
   10ba2:	1101                	addi	sp,sp,-32
   10ba4:	cc22                	sw	s0,24(sp)
   10ba6:	c62e                	sw	a1,12(sp)
   10ba8:	842a                	mv	s0,a0
   10baa:	ce06                	sw	ra,28(sp)
   10bac:	019000ef          	jal	113c4 <__malloc_lock>
   10bb0:	45b2                	lw	a1,12(sp)
   10bb2:	6871                	lui	a6,0x1c
   10bb4:	28080813          	addi	a6,a6,640 # 1c280 <__malloc_av_>
   10bb8:	ffc5a503          	lw	a0,-4(a1)
   10bbc:	ff858713          	addi	a4,a1,-8
   10bc0:	00882883          	lw	a7,8(a6)
   10bc4:	ffe57793          	andi	a5,a0,-2
   10bc8:	00f70633          	add	a2,a4,a5
   10bcc:	4254                	lw	a3,4(a2)
   10bce:	00157313          	andi	t1,a0,1
   10bd2:	9af1                	andi	a3,a3,-4
   10bd4:	10c88e63          	beq	a7,a2,10cf0 <_free_r+0x150>
   10bd8:	c254                	sw	a3,4(a2)
   10bda:	00d608b3          	add	a7,a2,a3
   10bde:	0048a883          	lw	a7,4(a7)
   10be2:	0018f893          	andi	a7,a7,1
   10be6:	06031763          	bnez	t1,10c54 <_free_r+0xb4>
   10bea:	ff85a303          	lw	t1,-8(a1)
   10bee:	65f1                	lui	a1,0x1c
   10bf0:	28858593          	addi	a1,a1,648 # 1c288 <__malloc_av_+0x8>
   10bf4:	40670733          	sub	a4,a4,t1
   10bf8:	4708                	lw	a0,8(a4)
   10bfa:	979a                	add	a5,a5,t1
   10bfc:	0cb50d63          	beq	a0,a1,10cd6 <_free_r+0x136>
   10c00:	00c72303          	lw	t1,12(a4) # 100c <exit-0xf0a8>
   10c04:	00652623          	sw	t1,12(a0)
   10c08:	00a32423          	sw	a0,8(t1)
   10c0c:	10088b63          	beqz	a7,10d22 <_free_r+0x182>
   10c10:	0017e693          	ori	a3,a5,1
   10c14:	c354                	sw	a3,4(a4)
   10c16:	c21c                	sw	a5,0(a2)
   10c18:	1ff00693          	li	a3,511
   10c1c:	06f6ea63          	bltu	a3,a5,10c90 <_free_r+0xf0>
   10c20:	ff87f693          	andi	a3,a5,-8
   10c24:	06a1                	addi	a3,a3,8
   10c26:	00482583          	lw	a1,4(a6)
   10c2a:	96c2                	add	a3,a3,a6
   10c2c:	4290                	lw	a2,0(a3)
   10c2e:	0057d513          	srli	a0,a5,0x5
   10c32:	4785                	li	a5,1
   10c34:	00a797b3          	sll	a5,a5,a0
   10c38:	8fcd                	or	a5,a5,a1
   10c3a:	ff868593          	addi	a1,a3,-8
   10c3e:	c710                	sw	a2,8(a4)
   10c40:	c74c                	sw	a1,12(a4)
   10c42:	00f82223          	sw	a5,4(a6)
   10c46:	c298                	sw	a4,0(a3)
   10c48:	c658                	sw	a4,12(a2)
   10c4a:	8522                	mv	a0,s0
   10c4c:	4462                	lw	s0,24(sp)
   10c4e:	40f2                	lw	ra,28(sp)
   10c50:	6105                	addi	sp,sp,32
   10c52:	af95                	j	113c6 <__malloc_unlock>
   10c54:	02089563          	bnez	a7,10c7e <_free_r+0xde>
   10c58:	65f1                	lui	a1,0x1c
   10c5a:	97b6                	add	a5,a5,a3
   10c5c:	28858593          	addi	a1,a1,648 # 1c288 <__malloc_av_+0x8>
   10c60:	4614                	lw	a3,8(a2)
   10c62:	0017e893          	ori	a7,a5,1
   10c66:	00f70533          	add	a0,a4,a5
   10c6a:	0eb68863          	beq	a3,a1,10d5a <_free_r+0x1ba>
   10c6e:	4650                	lw	a2,12(a2)
   10c70:	c6d0                	sw	a2,12(a3)
   10c72:	c614                	sw	a3,8(a2)
   10c74:	01172223          	sw	a7,4(a4)
   10c78:	c11c                	sw	a5,0(a0)
   10c7a:	bf79                	j	10c18 <_free_r+0x78>
   10c7c:	8082                	ret
   10c7e:	00156513          	ori	a0,a0,1
   10c82:	fea5ae23          	sw	a0,-4(a1)
   10c86:	c21c                	sw	a5,0(a2)
   10c88:	1ff00693          	li	a3,511
   10c8c:	f8f6fae3          	bgeu	a3,a5,10c20 <_free_r+0x80>
   10c90:	0097d693          	srli	a3,a5,0x9
   10c94:	4611                	li	a2,4
   10c96:	08d66863          	bltu	a2,a3,10d26 <_free_r+0x186>
   10c9a:	0067d693          	srli	a3,a5,0x6
   10c9e:	03968593          	addi	a1,a3,57
   10ca2:	058e                	slli	a1,a1,0x3
   10ca4:	03868613          	addi	a2,a3,56
   10ca8:	95c2                	add	a1,a1,a6
   10caa:	4194                	lw	a3,0(a1)
   10cac:	15e1                	addi	a1,a1,-8
   10cae:	00d59663          	bne	a1,a3,10cba <_free_r+0x11a>
   10cb2:	a875                	j	10d6e <_free_r+0x1ce>
   10cb4:	4694                	lw	a3,8(a3)
   10cb6:	00d58663          	beq	a1,a3,10cc2 <_free_r+0x122>
   10cba:	42d0                	lw	a2,4(a3)
   10cbc:	9a71                	andi	a2,a2,-4
   10cbe:	fec7ebe3          	bltu	a5,a2,10cb4 <_free_r+0x114>
   10cc2:	46cc                	lw	a1,12(a3)
   10cc4:	c74c                	sw	a1,12(a4)
   10cc6:	c714                	sw	a3,8(a4)
   10cc8:	8522                	mv	a0,s0
   10cca:	4462                	lw	s0,24(sp)
   10ccc:	40f2                	lw	ra,28(sp)
   10cce:	c598                	sw	a4,8(a1)
   10cd0:	c6d8                	sw	a4,12(a3)
   10cd2:	6105                	addi	sp,sp,32
   10cd4:	adcd                	j	113c6 <__malloc_unlock>
   10cd6:	06089763          	bnez	a7,10d44 <_free_r+0x1a4>
   10cda:	464c                	lw	a1,12(a2)
   10cdc:	4610                	lw	a2,8(a2)
   10cde:	96be                	add	a3,a3,a5
   10ce0:	0016e793          	ori	a5,a3,1
   10ce4:	c64c                	sw	a1,12(a2)
   10ce6:	c590                	sw	a2,8(a1)
   10ce8:	c35c                	sw	a5,4(a4)
   10cea:	9736                	add	a4,a4,a3
   10cec:	c314                	sw	a3,0(a4)
   10cee:	bfb1                	j	10c4a <_free_r+0xaa>
   10cf0:	96be                	add	a3,a3,a5
   10cf2:	00031a63          	bnez	t1,10d06 <_free_r+0x166>
   10cf6:	ff85a783          	lw	a5,-8(a1)
   10cfa:	8f1d                	sub	a4,a4,a5
   10cfc:	4710                	lw	a2,8(a4)
   10cfe:	96be                	add	a3,a3,a5
   10d00:	475c                	lw	a5,12(a4)
   10d02:	c65c                	sw	a5,12(a2)
   10d04:	c790                	sw	a2,8(a5)
   10d06:	0016e613          	ori	a2,a3,1
   10d0a:	f441a783          	lw	a5,-188(gp) # 1c874 <__malloc_trim_threshold>
   10d0e:	c350                	sw	a2,4(a4)
   10d10:	00e82423          	sw	a4,8(a6)
   10d14:	f2f6ebe3          	bltu	a3,a5,10c4a <_free_r+0xaa>
   10d18:	f5c1a583          	lw	a1,-164(gp) # 1c88c <__malloc_top_pad>
   10d1c:	8522                	mv	a0,s0
   10d1e:	3b75                	jal	10ada <_malloc_trim_r>
   10d20:	b72d                	j	10c4a <_free_r+0xaa>
   10d22:	97b6                	add	a5,a5,a3
   10d24:	bf35                	j	10c60 <_free_r+0xc0>
   10d26:	4651                	li	a2,20
   10d28:	02d67363          	bgeu	a2,a3,10d4e <_free_r+0x1ae>
   10d2c:	05400613          	li	a2,84
   10d30:	04d66963          	bltu	a2,a3,10d82 <_free_r+0x1e2>
   10d34:	00c7d693          	srli	a3,a5,0xc
   10d38:	06f68593          	addi	a1,a3,111
   10d3c:	058e                	slli	a1,a1,0x3
   10d3e:	06e68613          	addi	a2,a3,110
   10d42:	b79d                	j	10ca8 <_free_r+0x108>
   10d44:	0017e693          	ori	a3,a5,1
   10d48:	c354                	sw	a3,4(a4)
   10d4a:	c21c                	sw	a5,0(a2)
   10d4c:	bdfd                	j	10c4a <_free_r+0xaa>
   10d4e:	05c68593          	addi	a1,a3,92
   10d52:	058e                	slli	a1,a1,0x3
   10d54:	05b68613          	addi	a2,a3,91
   10d58:	bf81                	j	10ca8 <_free_r+0x108>
   10d5a:	00e82a23          	sw	a4,20(a6)
   10d5e:	00e82823          	sw	a4,16(a6)
   10d62:	c74c                	sw	a1,12(a4)
   10d64:	c70c                	sw	a1,8(a4)
   10d66:	01172223          	sw	a7,4(a4)
   10d6a:	c11c                	sw	a5,0(a0)
   10d6c:	bdf9                	j	10c4a <_free_r+0xaa>
   10d6e:	00482503          	lw	a0,4(a6)
   10d72:	8609                	srai	a2,a2,0x2
   10d74:	4785                	li	a5,1
   10d76:	00c797b3          	sll	a5,a5,a2
   10d7a:	8fc9                	or	a5,a5,a0
   10d7c:	00f82223          	sw	a5,4(a6)
   10d80:	b791                	j	10cc4 <_free_r+0x124>
   10d82:	15400613          	li	a2,340
   10d86:	00d66a63          	bltu	a2,a3,10d9a <_free_r+0x1fa>
   10d8a:	00f7d693          	srli	a3,a5,0xf
   10d8e:	07868593          	addi	a1,a3,120
   10d92:	058e                	slli	a1,a1,0x3
   10d94:	07768613          	addi	a2,a3,119
   10d98:	bf01                	j	10ca8 <_free_r+0x108>
   10d9a:	55400613          	li	a2,1364
   10d9e:	00d66a63          	bltu	a2,a3,10db2 <_free_r+0x212>
   10da2:	0127d693          	srli	a3,a5,0x12
   10da6:	07d68593          	addi	a1,a3,125
   10daa:	058e                	slli	a1,a1,0x3
   10dac:	07c68613          	addi	a2,a3,124
   10db0:	bde5                	j	10ca8 <_free_r+0x108>
   10db2:	3f800593          	li	a1,1016
   10db6:	07e00613          	li	a2,126
   10dba:	b5fd                	j	10ca8 <_free_r+0x108>

00010dbc <_malloc_r>:
   10dbc:	7139                	addi	sp,sp,-64
   10dbe:	dc22                	sw	s0,56(sp)
   10dc0:	de06                	sw	ra,60(sp)
   10dc2:	00b58793          	addi	a5,a1,11
   10dc6:	4759                	li	a4,22
   10dc8:	842a                	mv	s0,a0
   10dca:	04f76e63          	bltu	a4,a5,10e26 <_malloc_r+0x6a>
   10dce:	46c1                	li	a3,16
   10dd0:	04b6e463          	bltu	a3,a1,10e18 <_malloc_r+0x5c>
   10dd4:	2bc5                	jal	113c4 <__malloc_lock>
   10dd6:	46c1                	li	a3,16
   10dd8:	4761                	li	a4,24
   10dda:	4889                	li	a7,2
   10ddc:	6871                	lui	a6,0x1c
   10dde:	28080813          	addi	a6,a6,640 # 1c280 <__malloc_av_>
   10de2:	9742                	add	a4,a4,a6
   10de4:	435c                	lw	a5,4(a4)
   10de6:	ff870613          	addi	a2,a4,-8
   10dea:	30c78563          	beq	a5,a2,110f4 <_malloc_r+0x338>
   10dee:	43d8                	lw	a4,4(a5)
   10df0:	47d0                	lw	a2,12(a5)
   10df2:	478c                	lw	a1,8(a5)
   10df4:	9b71                	andi	a4,a4,-4
   10df6:	973e                	add	a4,a4,a5
   10df8:	4354                	lw	a3,4(a4)
   10dfa:	c5d0                	sw	a2,12(a1)
   10dfc:	c63e                	sw	a5,12(sp)
   10dfe:	c60c                	sw	a1,8(a2)
   10e00:	0016e693          	ori	a3,a3,1
   10e04:	8522                	mv	a0,s0
   10e06:	c354                	sw	a3,4(a4)
   10e08:	2b7d                	jal	113c6 <__malloc_unlock>
   10e0a:	47b2                	lw	a5,12(sp)
   10e0c:	50f2                	lw	ra,60(sp)
   10e0e:	5462                	lw	s0,56(sp)
   10e10:	00878513          	addi	a0,a5,8
   10e14:	6121                	addi	sp,sp,64
   10e16:	8082                	ret
   10e18:	47b1                	li	a5,12
   10e1a:	c01c                	sw	a5,0(s0)
   10e1c:	4501                	li	a0,0
   10e1e:	50f2                	lw	ra,60(sp)
   10e20:	5462                	lw	s0,56(sp)
   10e22:	6121                	addi	sp,sp,64
   10e24:	8082                	ret
   10e26:	ff87f693          	andi	a3,a5,-8
   10e2a:	fe07c7e3          	bltz	a5,10e18 <_malloc_r+0x5c>
   10e2e:	feb6e5e3          	bltu	a3,a1,10e18 <_malloc_r+0x5c>
   10e32:	c636                	sw	a3,12(sp)
   10e34:	2b41                	jal	113c4 <__malloc_lock>
   10e36:	46b2                	lw	a3,12(sp)
   10e38:	1f700793          	li	a5,503
   10e3c:	36d7f563          	bgeu	a5,a3,111a6 <_malloc_r+0x3ea>
   10e40:	0096d793          	srli	a5,a3,0x9
   10e44:	10078b63          	beqz	a5,10f5a <_malloc_r+0x19e>
   10e48:	4711                	li	a4,4
   10e4a:	2ef76a63          	bltu	a4,a5,1113e <_malloc_r+0x382>
   10e4e:	0066d793          	srli	a5,a3,0x6
   10e52:	03978893          	addi	a7,a5,57
   10e56:	03878e13          	addi	t3,a5,56
   10e5a:	00389513          	slli	a0,a7,0x3
   10e5e:	6871                	lui	a6,0x1c
   10e60:	28080813          	addi	a6,a6,640 # 1c280 <__malloc_av_>
   10e64:	9542                	add	a0,a0,a6
   10e66:	415c                	lw	a5,4(a0)
   10e68:	1561                	addi	a0,a0,-8
   10e6a:	02f50163          	beq	a0,a5,10e8c <_malloc_r+0xd0>
   10e6e:	433d                	li	t1,15
   10e70:	a039                	j	10e7e <_malloc_r+0xc2>
   10e72:	47cc                	lw	a1,12(a5)
   10e74:	24065e63          	bgez	a2,110d0 <_malloc_r+0x314>
   10e78:	00b50a63          	beq	a0,a1,10e8c <_malloc_r+0xd0>
   10e7c:	87ae                	mv	a5,a1
   10e7e:	43d8                	lw	a4,4(a5)
   10e80:	9b71                	andi	a4,a4,-4
   10e82:	40d70633          	sub	a2,a4,a3
   10e86:	fec356e3          	bge	t1,a2,10e72 <_malloc_r+0xb6>
   10e8a:	88f2                	mv	a7,t3
   10e8c:	01082783          	lw	a5,16(a6)
   10e90:	6e71                	lui	t3,0x1c
   10e92:	288e0e13          	addi	t3,t3,648 # 1c288 <__malloc_av_+0x8>
   10e96:	21c78763          	beq	a5,t3,110a4 <_malloc_r+0x2e8>
   10e9a:	43d8                	lw	a4,4(a5)
   10e9c:	45bd                	li	a1,15
   10e9e:	9b71                	andi	a4,a4,-4
   10ea0:	40d70633          	sub	a2,a4,a3
   10ea4:	32c5c263          	blt	a1,a2,111c8 <_malloc_r+0x40c>
   10ea8:	01c82a23          	sw	t3,20(a6)
   10eac:	01c82823          	sw	t3,16(a6)
   10eb0:	30065063          	bgez	a2,111b0 <_malloc_r+0x3f4>
   10eb4:	1ff00613          	li	a2,511
   10eb8:	00482303          	lw	t1,4(a6)
   10ebc:	24e66163          	bltu	a2,a4,110fe <_malloc_r+0x342>
   10ec0:	ff877613          	andi	a2,a4,-8
   10ec4:	0621                	addi	a2,a2,8
   10ec6:	9642                	add	a2,a2,a6
   10ec8:	420c                	lw	a1,0(a2)
   10eca:	00575513          	srli	a0,a4,0x5
   10ece:	4705                	li	a4,1
   10ed0:	00a71733          	sll	a4,a4,a0
   10ed4:	00e36333          	or	t1,t1,a4
   10ed8:	ff860713          	addi	a4,a2,-8
   10edc:	c78c                	sw	a1,8(a5)
   10ede:	c7d8                	sw	a4,12(a5)
   10ee0:	00682223          	sw	t1,4(a6)
   10ee4:	c21c                	sw	a5,0(a2)
   10ee6:	c5dc                	sw	a5,12(a1)
   10ee8:	4028d793          	srai	a5,a7,0x2
   10eec:	4505                	li	a0,1
   10eee:	00f51533          	sll	a0,a0,a5
   10ef2:	06a36b63          	bltu	t1,a0,10f68 <_malloc_r+0x1ac>
   10ef6:	006577b3          	and	a5,a0,t1
   10efa:	ef89                	bnez	a5,10f14 <_malloc_r+0x158>
   10efc:	0506                	slli	a0,a0,0x1
   10efe:	ffc8f893          	andi	a7,a7,-4
   10f02:	006577b3          	and	a5,a0,t1
   10f06:	0891                	addi	a7,a7,4
   10f08:	e791                	bnez	a5,10f14 <_malloc_r+0x158>
   10f0a:	0506                	slli	a0,a0,0x1
   10f0c:	006577b3          	and	a5,a0,t1
   10f10:	0891                	addi	a7,a7,4
   10f12:	dfe5                	beqz	a5,10f0a <_malloc_r+0x14e>
   10f14:	4ebd                	li	t4,15
   10f16:	00389f13          	slli	t5,a7,0x3
   10f1a:	9f42                	add	t5,t5,a6
   10f1c:	837a                	mv	t1,t5
   10f1e:	00c32703          	lw	a4,12(t1)
   10f22:	8fc6                	mv	t6,a7
   10f24:	22e30d63          	beq	t1,a4,1115e <_malloc_r+0x3a2>
   10f28:	4350                	lw	a2,4(a4)
   10f2a:	87ba                	mv	a5,a4
   10f2c:	4758                	lw	a4,12(a4)
   10f2e:	9a71                	andi	a2,a2,-4
   10f30:	40d605b3          	sub	a1,a2,a3
   10f34:	22becd63          	blt	t4,a1,1116e <_malloc_r+0x3b2>
   10f38:	fe05c6e3          	bltz	a1,10f24 <_malloc_r+0x168>
   10f3c:	963e                	add	a2,a2,a5
   10f3e:	4254                	lw	a3,4(a2)
   10f40:	478c                	lw	a1,8(a5)
   10f42:	8522                	mv	a0,s0
   10f44:	0016e693          	ori	a3,a3,1
   10f48:	c254                	sw	a3,4(a2)
   10f4a:	c5d8                	sw	a4,12(a1)
   10f4c:	c70c                	sw	a1,8(a4)
   10f4e:	c63e                	sw	a5,12(sp)
   10f50:	299d                	jal	113c6 <__malloc_unlock>
   10f52:	47b2                	lw	a5,12(sp)
   10f54:	00878513          	addi	a0,a5,8
   10f58:	b5d9                	j	10e1e <_malloc_r+0x62>
   10f5a:	20000513          	li	a0,512
   10f5e:	04000893          	li	a7,64
   10f62:	03f00e13          	li	t3,63
   10f66:	bde5                	j	10e5e <_malloc_r+0xa2>
   10f68:	00882783          	lw	a5,8(a6)
   10f6c:	43d8                	lw	a4,4(a5)
   10f6e:	ffc77313          	andi	t1,a4,-4
   10f72:	40d30633          	sub	a2,t1,a3
   10f76:	00d36663          	bltu	t1,a3,10f82 <_malloc_r+0x1c6>
   10f7a:	01062713          	slti	a4,a2,16
   10f7e:	12070663          	beqz	a4,110aa <_malloc_r+0x2ee>
   10f82:	f5c1a583          	lw	a1,-164(gp) # 1c88c <__malloc_top_pad>
   10f86:	f401a603          	lw	a2,-192(gp) # 1c870 <__malloc_sbrk_base>
   10f8a:	577d                	li	a4,-1
   10f8c:	95b6                	add	a1,a1,a3
   10f8e:	2ee60463          	beq	a2,a4,11276 <_malloc_r+0x4ba>
   10f92:	6705                	lui	a4,0x1
   10f94:	073d                	addi	a4,a4,15 # 100f <exit-0xf0a5>
   10f96:	95ba                	add	a1,a1,a4
   10f98:	777d                	lui	a4,0xfffff
   10f9a:	8df9                	and	a1,a1,a4
   10f9c:	8522                	mv	a0,s0
   10f9e:	ce42                	sw	a6,28(sp)
   10fa0:	cc3e                	sw	a5,24(sp)
   10fa2:	ca36                	sw	a3,20(sp)
   10fa4:	c81a                	sw	t1,16(sp)
   10fa6:	c62e                	sw	a1,12(sp)
   10fa8:	757020ef          	jal	13efe <_sbrk_r>
   10fac:	577d                	li	a4,-1
   10fae:	45b2                	lw	a1,12(sp)
   10fb0:	4342                	lw	t1,16(sp)
   10fb2:	46d2                	lw	a3,20(sp)
   10fb4:	47e2                	lw	a5,24(sp)
   10fb6:	4872                	lw	a6,28(sp)
   10fb8:	8e2a                	mv	t3,a0
   10fba:	24e50963          	beq	a0,a4,1120c <_malloc_r+0x450>
   10fbe:	00678733          	add	a4,a5,t1
   10fc2:	24e56363          	bltu	a0,a4,11208 <_malloc_r+0x44c>
   10fc6:	0cc18e93          	addi	t4,gp,204 # 1c9fc <__malloc_current_mallinfo>
   10fca:	000ea603          	lw	a2,0(t4)
   10fce:	962e                	add	a2,a2,a1
   10fd0:	00cea023          	sw	a2,0(t4)
   10fd4:	32a70c63          	beq	a4,a0,1130c <_malloc_r+0x550>
   10fd8:	f401af03          	lw	t5,-192(gp) # 1c870 <__malloc_sbrk_base>
   10fdc:	557d                	li	a0,-1
   10fde:	34af0263          	beq	t5,a0,11322 <_malloc_r+0x566>
   10fe2:	40ee0733          	sub	a4,t3,a4
   10fe6:	9732                	add	a4,a4,a2
   10fe8:	00eea023          	sw	a4,0(t4)
   10fec:	007e7f13          	andi	t5,t3,7
   10ff0:	280f0e63          	beqz	t5,1128c <_malloc_r+0x4d0>
   10ff4:	ff8e7e13          	andi	t3,t3,-8
   10ff8:	6885                	lui	a7,0x1
   10ffa:	0e21                	addi	t3,t3,8
   10ffc:	08a1                	addi	a7,a7,8 # 1008 <exit-0xf0ac>
   10ffe:	00be0633          	add	a2,t3,a1
   11002:	41e885b3          	sub	a1,a7,t5
   11006:	8d91                	sub	a1,a1,a2
   11008:	05d2                	slli	a1,a1,0x14
   1100a:	81d1                	srli	a1,a1,0x14
   1100c:	8522                	mv	a0,s0
   1100e:	d642                	sw	a6,44(sp)
   11010:	d476                	sw	t4,40(sp)
   11012:	d23e                	sw	a5,36(sp)
   11014:	d036                	sw	a3,32(sp)
   11016:	ce1a                	sw	t1,28(sp)
   11018:	cc72                	sw	t3,24(sp)
   1101a:	ca7a                	sw	t5,20(sp)
   1101c:	c832                	sw	a2,16(sp)
   1101e:	c62e                	sw	a1,12(sp)
   11020:	6df020ef          	jal	13efe <_sbrk_r>
   11024:	872a                	mv	a4,a0
   11026:	557d                	li	a0,-1
   11028:	45b2                	lw	a1,12(sp)
   1102a:	4642                	lw	a2,16(sp)
   1102c:	4f52                	lw	t5,20(sp)
   1102e:	4e62                	lw	t3,24(sp)
   11030:	4372                	lw	t1,28(sp)
   11032:	5682                	lw	a3,32(sp)
   11034:	5792                	lw	a5,36(sp)
   11036:	5ea2                	lw	t4,40(sp)
   11038:	5832                	lw	a6,44(sp)
   1103a:	32a70463          	beq	a4,a0,11362 <_malloc_r+0x5a6>
   1103e:	000ea603          	lw	a2,0(t4)
   11042:	41c70733          	sub	a4,a4,t3
   11046:	972e                	add	a4,a4,a1
   11048:	00176713          	ori	a4,a4,1
   1104c:	01c82423          	sw	t3,8(a6)
   11050:	962e                	add	a2,a2,a1
   11052:	00ee2223          	sw	a4,4(t3)
   11056:	00cea023          	sw	a2,0(t4)
   1105a:	03078763          	beq	a5,a6,11088 <_malloc_r+0x2cc>
   1105e:	453d                	li	a0,15
   11060:	2c657463          	bgeu	a0,t1,11328 <_malloc_r+0x56c>
   11064:	43cc                	lw	a1,4(a5)
   11066:	ff430713          	addi	a4,t1,-12
   1106a:	9b61                	andi	a4,a4,-8
   1106c:	8985                	andi	a1,a1,1
   1106e:	8dd9                	or	a1,a1,a4
   11070:	c3cc                	sw	a1,4(a5)
   11072:	4895                	li	a7,5
   11074:	00e785b3          	add	a1,a5,a4
   11078:	0115a223          	sw	a7,4(a1)
   1107c:	0115a423          	sw	a7,8(a1)
   11080:	2ee56663          	bltu	a0,a4,1136c <_malloc_r+0x5b0>
   11084:	004e2703          	lw	a4,4(t3)
   11088:	f581a583          	lw	a1,-168(gp) # 1c888 <__malloc_max_sbrked_mem>
   1108c:	00c5f463          	bgeu	a1,a2,11094 <_malloc_r+0x2d8>
   11090:	f4c1ac23          	sw	a2,-168(gp) # 1c888 <__malloc_max_sbrked_mem>
   11094:	f541a583          	lw	a1,-172(gp) # 1c884 <__malloc_max_total_mem>
   11098:	00c5f463          	bgeu	a1,a2,110a0 <_malloc_r+0x2e4>
   1109c:	f4c1aa23          	sw	a2,-172(gp) # 1c884 <__malloc_max_total_mem>
   110a0:	87f2                	mv	a5,t3
   110a2:	aa85                	j	11212 <_malloc_r+0x456>
   110a4:	00482303          	lw	t1,4(a6)
   110a8:	b581                	j	10ee8 <_malloc_r+0x12c>
   110aa:	0016e713          	ori	a4,a3,1
   110ae:	c3d8                	sw	a4,4(a5)
   110b0:	96be                	add	a3,a3,a5
   110b2:	00166613          	ori	a2,a2,1
   110b6:	00d82423          	sw	a3,8(a6)
   110ba:	8522                	mv	a0,s0
   110bc:	c2d0                	sw	a2,4(a3)
   110be:	c63e                	sw	a5,12(sp)
   110c0:	2619                	jal	113c6 <__malloc_unlock>
   110c2:	47b2                	lw	a5,12(sp)
   110c4:	50f2                	lw	ra,60(sp)
   110c6:	5462                	lw	s0,56(sp)
   110c8:	00878513          	addi	a0,a5,8
   110cc:	6121                	addi	sp,sp,64
   110ce:	8082                	ret
   110d0:	4790                	lw	a2,8(a5)
   110d2:	973e                	add	a4,a4,a5
   110d4:	4354                	lw	a3,4(a4)
   110d6:	c64c                	sw	a1,12(a2)
   110d8:	c63e                	sw	a5,12(sp)
   110da:	0016e693          	ori	a3,a3,1
   110de:	c590                	sw	a2,8(a1)
   110e0:	8522                	mv	a0,s0
   110e2:	c354                	sw	a3,4(a4)
   110e4:	24cd                	jal	113c6 <__malloc_unlock>
   110e6:	47b2                	lw	a5,12(sp)
   110e8:	50f2                	lw	ra,60(sp)
   110ea:	5462                	lw	s0,56(sp)
   110ec:	00878513          	addi	a0,a5,8
   110f0:	6121                	addi	sp,sp,64
   110f2:	8082                	ret
   110f4:	475c                	lw	a5,12(a4)
   110f6:	0889                	addi	a7,a7,2
   110f8:	d8f70ae3          	beq	a4,a5,10e8c <_malloc_r+0xd0>
   110fc:	b9cd                	j	10dee <_malloc_r+0x32>
   110fe:	00975613          	srli	a2,a4,0x9
   11102:	4591                	li	a1,4
   11104:	0ec5fa63          	bgeu	a1,a2,111f8 <_malloc_r+0x43c>
   11108:	45d1                	li	a1,20
   1110a:	1cc5e063          	bltu	a1,a2,112ca <_malloc_r+0x50e>
   1110e:	05c60513          	addi	a0,a2,92
   11112:	050e                	slli	a0,a0,0x3
   11114:	05b60593          	addi	a1,a2,91
   11118:	9542                	add	a0,a0,a6
   1111a:	4110                	lw	a2,0(a0)
   1111c:	1561                	addi	a0,a0,-8
   1111e:	00c51663          	bne	a0,a2,1112a <_malloc_r+0x36e>
   11122:	aaa1                	j	1127a <_malloc_r+0x4be>
   11124:	4610                	lw	a2,8(a2)
   11126:	00c50663          	beq	a0,a2,11132 <_malloc_r+0x376>
   1112a:	424c                	lw	a1,4(a2)
   1112c:	99f1                	andi	a1,a1,-4
   1112e:	feb76be3          	bltu	a4,a1,11124 <_malloc_r+0x368>
   11132:	4648                	lw	a0,12(a2)
   11134:	c7c8                	sw	a0,12(a5)
   11136:	c790                	sw	a2,8(a5)
   11138:	c51c                	sw	a5,8(a0)
   1113a:	c65c                	sw	a5,12(a2)
   1113c:	b375                	j	10ee8 <_malloc_r+0x12c>
   1113e:	4751                	li	a4,20
   11140:	0ef77563          	bgeu	a4,a5,1122a <_malloc_r+0x46e>
   11144:	05400713          	li	a4,84
   11148:	18f76d63          	bltu	a4,a5,112e2 <_malloc_r+0x526>
   1114c:	00c6d793          	srli	a5,a3,0xc
   11150:	06f78893          	addi	a7,a5,111
   11154:	06e78e13          	addi	t3,a5,110
   11158:	00389513          	slli	a0,a7,0x3
   1115c:	b309                	j	10e5e <_malloc_r+0xa2>
   1115e:	0f85                	addi	t6,t6,1
   11160:	003ff793          	andi	a5,t6,3
   11164:	0321                	addi	t1,t1,8
   11166:	cff1                	beqz	a5,11242 <_malloc_r+0x486>
   11168:	00c32703          	lw	a4,12(t1)
   1116c:	bb65                	j	10f24 <_malloc_r+0x168>
   1116e:	4788                	lw	a0,8(a5)
   11170:	0016e893          	ori	a7,a3,1
   11174:	0117a223          	sw	a7,4(a5)
   11178:	c558                	sw	a4,12(a0)
   1117a:	c708                	sw	a0,8(a4)
   1117c:	96be                	add	a3,a3,a5
   1117e:	00d82a23          	sw	a3,20(a6)
   11182:	00d82823          	sw	a3,16(a6)
   11186:	0015e713          	ori	a4,a1,1
   1118a:	963e                	add	a2,a2,a5
   1118c:	01c6a623          	sw	t3,12(a3)
   11190:	01c6a423          	sw	t3,8(a3)
   11194:	c2d8                	sw	a4,4(a3)
   11196:	8522                	mv	a0,s0
   11198:	c20c                	sw	a1,0(a2)
   1119a:	c63e                	sw	a5,12(sp)
   1119c:	242d                	jal	113c6 <__malloc_unlock>
   1119e:	47b2                	lw	a5,12(sp)
   111a0:	00878513          	addi	a0,a5,8
   111a4:	b9ad                	j	10e1e <_malloc_r+0x62>
   111a6:	0036d893          	srli	a7,a3,0x3
   111aa:	00868713          	addi	a4,a3,8
   111ae:	b13d                	j	10ddc <_malloc_r+0x20>
   111b0:	973e                	add	a4,a4,a5
   111b2:	4354                	lw	a3,4(a4)
   111b4:	c63e                	sw	a5,12(sp)
   111b6:	8522                	mv	a0,s0
   111b8:	0016e693          	ori	a3,a3,1
   111bc:	c354                	sw	a3,4(a4)
   111be:	2421                	jal	113c6 <__malloc_unlock>
   111c0:	47b2                	lw	a5,12(sp)
   111c2:	00878513          	addi	a0,a5,8
   111c6:	b9a1                	j	10e1e <_malloc_r+0x62>
   111c8:	0016e593          	ori	a1,a3,1
   111cc:	c3cc                	sw	a1,4(a5)
   111ce:	96be                	add	a3,a3,a5
   111d0:	00d82a23          	sw	a3,20(a6)
   111d4:	00d82823          	sw	a3,16(a6)
   111d8:	00166593          	ori	a1,a2,1
   111dc:	973e                	add	a4,a4,a5
   111de:	01c6a623          	sw	t3,12(a3)
   111e2:	01c6a423          	sw	t3,8(a3)
   111e6:	c2cc                	sw	a1,4(a3)
   111e8:	8522                	mv	a0,s0
   111ea:	c310                	sw	a2,0(a4)
   111ec:	c63e                	sw	a5,12(sp)
   111ee:	2ae1                	jal	113c6 <__malloc_unlock>
   111f0:	47b2                	lw	a5,12(sp)
   111f2:	00878513          	addi	a0,a5,8
   111f6:	b125                	j	10e1e <_malloc_r+0x62>
   111f8:	00675613          	srli	a2,a4,0x6
   111fc:	03960513          	addi	a0,a2,57
   11200:	050e                	slli	a0,a0,0x3
   11202:	03860593          	addi	a1,a2,56
   11206:	bf09                	j	11118 <_malloc_r+0x35c>
   11208:	0f078a63          	beq	a5,a6,112fc <_malloc_r+0x540>
   1120c:	00882783          	lw	a5,8(a6)
   11210:	43d8                	lw	a4,4(a5)
   11212:	9b71                	andi	a4,a4,-4
   11214:	40d70633          	sub	a2,a4,a3
   11218:	00d76663          	bltu	a4,a3,11224 <_malloc_r+0x468>
   1121c:	01062713          	slti	a4,a2,16
   11220:	e80705e3          	beqz	a4,110aa <_malloc_r+0x2ee>
   11224:	8522                	mv	a0,s0
   11226:	2245                	jal	113c6 <__malloc_unlock>
   11228:	bed5                	j	10e1c <_malloc_r+0x60>
   1122a:	05c78893          	addi	a7,a5,92
   1122e:	05b78e13          	addi	t3,a5,91
   11232:	00389513          	slli	a0,a7,0x3
   11236:	b125                	j	10e5e <_malloc_r+0xa2>
   11238:	008f2783          	lw	a5,8(t5)
   1123c:	18fd                	addi	a7,a7,-1
   1123e:	19e79063          	bne	a5,t5,113be <_malloc_r+0x602>
   11242:	0038f793          	andi	a5,a7,3
   11246:	1f61                	addi	t5,t5,-8
   11248:	fbe5                	bnez	a5,11238 <_malloc_r+0x47c>
   1124a:	00482703          	lw	a4,4(a6)
   1124e:	fff54793          	not	a5,a0
   11252:	8ff9                	and	a5,a5,a4
   11254:	00f82223          	sw	a5,4(a6)
   11258:	0506                	slli	a0,a0,0x1
   1125a:	fff50713          	addi	a4,a0,-1
   1125e:	d0f775e3          	bgeu	a4,a5,10f68 <_malloc_r+0x1ac>
   11262:	00f57733          	and	a4,a0,a5
   11266:	e711                	bnez	a4,11272 <_malloc_r+0x4b6>
   11268:	0506                	slli	a0,a0,0x1
   1126a:	00f57733          	and	a4,a0,a5
   1126e:	0f91                	addi	t6,t6,4
   11270:	df65                	beqz	a4,11268 <_malloc_r+0x4ac>
   11272:	88fe                	mv	a7,t6
   11274:	b14d                	j	10f16 <_malloc_r+0x15a>
   11276:	05c1                	addi	a1,a1,16
   11278:	b315                	j	10f9c <_malloc_r+0x1e0>
   1127a:	8589                	srai	a1,a1,0x2
   1127c:	4705                	li	a4,1
   1127e:	00b71733          	sll	a4,a4,a1
   11282:	00e36333          	or	t1,t1,a4
   11286:	00682223          	sw	t1,4(a6)
   1128a:	b56d                	j	11134 <_malloc_r+0x378>
   1128c:	00be0633          	add	a2,t3,a1
   11290:	40c005b3          	neg	a1,a2
   11294:	05d2                	slli	a1,a1,0x14
   11296:	81d1                	srli	a1,a1,0x14
   11298:	8522                	mv	a0,s0
   1129a:	d442                	sw	a6,40(sp)
   1129c:	d276                	sw	t4,36(sp)
   1129e:	d03e                	sw	a5,32(sp)
   112a0:	ce36                	sw	a3,28(sp)
   112a2:	cc1a                	sw	t1,24(sp)
   112a4:	ca72                	sw	t3,20(sp)
   112a6:	c62e                	sw	a1,12(sp)
   112a8:	c832                	sw	a2,16(sp)
   112aa:	455020ef          	jal	13efe <_sbrk_r>
   112ae:	872a                	mv	a4,a0
   112b0:	557d                	li	a0,-1
   112b2:	45b2                	lw	a1,12(sp)
   112b4:	4e52                	lw	t3,20(sp)
   112b6:	4362                	lw	t1,24(sp)
   112b8:	46f2                	lw	a3,28(sp)
   112ba:	5782                	lw	a5,32(sp)
   112bc:	5e92                	lw	t4,36(sp)
   112be:	5822                	lw	a6,40(sp)
   112c0:	d6a71fe3          	bne	a4,a0,1103e <_malloc_r+0x282>
   112c4:	4742                	lw	a4,16(sp)
   112c6:	4581                	li	a1,0
   112c8:	bb9d                	j	1103e <_malloc_r+0x282>
   112ca:	05400593          	li	a1,84
   112ce:	06c5e163          	bltu	a1,a2,11330 <_malloc_r+0x574>
   112d2:	00c75613          	srli	a2,a4,0xc
   112d6:	06f60513          	addi	a0,a2,111
   112da:	050e                	slli	a0,a0,0x3
   112dc:	06e60593          	addi	a1,a2,110
   112e0:	bd25                	j	11118 <_malloc_r+0x35c>
   112e2:	15400713          	li	a4,340
   112e6:	06f76163          	bltu	a4,a5,11348 <_malloc_r+0x58c>
   112ea:	00f6d793          	srli	a5,a3,0xf
   112ee:	07878893          	addi	a7,a5,120
   112f2:	07778e13          	addi	t3,a5,119
   112f6:	00389513          	slli	a0,a7,0x3
   112fa:	b695                	j	10e5e <_malloc_r+0xa2>
   112fc:	0cc18e93          	addi	t4,gp,204 # 1c9fc <__malloc_current_mallinfo>
   11300:	000ea603          	lw	a2,0(t4)
   11304:	962e                	add	a2,a2,a1
   11306:	00cea023          	sw	a2,0(t4)
   1130a:	b1f9                	j	10fd8 <_malloc_r+0x21c>
   1130c:	0552                	slli	a0,a0,0x14
   1130e:	cc0515e3          	bnez	a0,10fd8 <_malloc_r+0x21c>
   11312:	00882e03          	lw	t3,8(a6)
   11316:	959a                	add	a1,a1,t1
   11318:	0015e713          	ori	a4,a1,1
   1131c:	00ee2223          	sw	a4,4(t3)
   11320:	b3a5                	j	11088 <_malloc_r+0x2cc>
   11322:	f5c1a023          	sw	t3,-192(gp) # 1c870 <__malloc_sbrk_base>
   11326:	b1d9                	j	10fec <_malloc_r+0x230>
   11328:	4785                	li	a5,1
   1132a:	00fe2223          	sw	a5,4(t3)
   1132e:	bddd                	j	11224 <_malloc_r+0x468>
   11330:	15400593          	li	a1,340
   11334:	04c5ed63          	bltu	a1,a2,1138e <_malloc_r+0x5d2>
   11338:	00f75613          	srli	a2,a4,0xf
   1133c:	07860513          	addi	a0,a2,120
   11340:	050e                	slli	a0,a0,0x3
   11342:	07760593          	addi	a1,a2,119
   11346:	bbc9                	j	11118 <_malloc_r+0x35c>
   11348:	55400713          	li	a4,1364
   1134c:	04f76d63          	bltu	a4,a5,113a6 <_malloc_r+0x5ea>
   11350:	0126d793          	srli	a5,a3,0x12
   11354:	07d78893          	addi	a7,a5,125
   11358:	07c78e13          	addi	t3,a5,124
   1135c:	00389513          	slli	a0,a7,0x3
   11360:	bcfd                	j	10e5e <_malloc_r+0xa2>
   11362:	1f61                	addi	t5,t5,-8
   11364:	01e60733          	add	a4,a2,t5
   11368:	4581                	li	a1,0
   1136a:	b9d1                	j	1103e <_malloc_r+0x282>
   1136c:	00878593          	addi	a1,a5,8
   11370:	8522                	mv	a0,s0
   11372:	ca42                	sw	a6,20(sp)
   11374:	c876                	sw	t4,16(sp)
   11376:	c636                	sw	a3,12(sp)
   11378:	3025                	jal	10ba0 <_free_r>
   1137a:	4852                	lw	a6,20(sp)
   1137c:	4ec2                	lw	t4,16(sp)
   1137e:	46b2                	lw	a3,12(sp)
   11380:	00882e03          	lw	t3,8(a6)
   11384:	000ea603          	lw	a2,0(t4)
   11388:	004e2703          	lw	a4,4(t3)
   1138c:	b9f5                	j	11088 <_malloc_r+0x2cc>
   1138e:	55400593          	li	a1,1364
   11392:	02c5e163          	bltu	a1,a2,113b4 <_malloc_r+0x5f8>
   11396:	01275613          	srli	a2,a4,0x12
   1139a:	07d60513          	addi	a0,a2,125
   1139e:	050e                	slli	a0,a0,0x3
   113a0:	07c60593          	addi	a1,a2,124
   113a4:	bb95                	j	11118 <_malloc_r+0x35c>
   113a6:	3f800513          	li	a0,1016
   113aa:	07f00893          	li	a7,127
   113ae:	07e00e13          	li	t3,126
   113b2:	b475                	j	10e5e <_malloc_r+0xa2>
   113b4:	3f800513          	li	a0,1016
   113b8:	07e00593          	li	a1,126
   113bc:	bbb1                	j	11118 <_malloc_r+0x35c>
   113be:	00482783          	lw	a5,4(a6)
   113c2:	bd59                	j	11258 <_malloc_r+0x49c>

000113c4 <__malloc_lock>:
   113c4:	8082                	ret

000113c6 <__malloc_unlock>:
   113c6:	8082                	ret

000113c8 <_vfprintf_r>:
   113c8:	7121                	addi	sp,sp,-448
   113ca:	1a112e23          	sw	ra,444(sp)
   113ce:	1a912a23          	sw	s1,436(sp)
   113d2:	1b212823          	sw	s2,432(sp)
   113d6:	19a12823          	sw	s10,400(sp)
   113da:	c836                	sw	a3,16(sp)
   113dc:	8d32                	mv	s10,a2
   113de:	84ae                	mv	s1,a1
   113e0:	892a                	mv	s2,a0
   113e2:	311020ef          	jal	13ef2 <_localeconv_r>
   113e6:	411c                	lw	a5,0(a0)
   113e8:	853e                	mv	a0,a5
   113ea:	d43e                	sw	a5,40(sp)
   113ec:	7a7020ef          	jal	14392 <strlen>
   113f0:	d22a                	sw	a0,36(sp)
   113f2:	c182                	sw	zero,192(sp)
   113f4:	00090763          	beqz	s2,11402 <_vfprintf_r+0x3a>
   113f8:	03492783          	lw	a5,52(s2)
   113fc:	e399                	bnez	a5,11402 <_vfprintf_r+0x3a>
   113fe:	4260106f          	j	12824 <_vfprintf_r+0x145c>
   11402:	00c49703          	lh	a4,12(s1)
   11406:	50fc                	lw	a5,100(s1)
   11408:	6609                	lui	a2,0x2
   1140a:	01271693          	slli	a3,a4,0x12
   1140e:	0006c963          	bltz	a3,11420 <_vfprintf_r+0x58>
   11412:	76f9                	lui	a3,0xffffe
   11414:	16fd                	addi	a3,a3,-1 # ffffdfff <__BSS_END__+0xfffe144b>
   11416:	8f51                	or	a4,a4,a2
   11418:	8ff5                	and	a5,a5,a3
   1141a:	00e49623          	sh	a4,12(s1)
   1141e:	d0fc                	sw	a5,100(s1)
   11420:	01279713          	slli	a4,a5,0x12
   11424:	00075463          	bgez	a4,1142c <_vfprintf_r+0x64>
   11428:	4f30106f          	j	1311a <_vfprintf_r+0x1d52>
   1142c:	00c49783          	lh	a5,12(s1)
   11430:	0087f713          	andi	a4,a5,8
   11434:	1e070263          	beqz	a4,11618 <_vfprintf_r+0x250>
   11438:	4898                	lw	a4,16(s1)
   1143a:	1c070f63          	beqz	a4,11618 <_vfprintf_r+0x250>
   1143e:	8be9                	andi	a5,a5,26
   11440:	4729                	li	a4,10
   11442:	1ee78863          	beq	a5,a4,11632 <_vfprintf_r+0x26a>
   11446:	67ed                	lui	a5,0x1b
   11448:	1b312623          	sw	s3,428(sp)
   1144c:	1b412423          	sw	s4,424(sp)
   11450:	0dc10993          	addi	s3,sp,220
   11454:	6a6d                	lui	s4,0x1b
   11456:	acc78793          	addi	a5,a5,-1332 # 1aacc <__clzsi2+0x1ba>
   1145a:	1a812c23          	sw	s0,440(sp)
   1145e:	1b612023          	sw	s6,416(sp)
   11462:	1b512223          	sw	s5,420(sp)
   11466:	19712e23          	sw	s7,412(sp)
   1146a:	19812c23          	sw	s8,408(sp)
   1146e:	19912a23          	sw	s9,404(sp)
   11472:	19b12623          	sw	s11,396(sp)
   11476:	df02                	sw	zero,188(sp)
   11478:	dd02                	sw	zero,184(sp)
   1147a:	db4e                	sw	s3,180(sp)
   1147c:	8b4e                	mv	s6,s3
   1147e:	ca3e                	sw	a5,20(sp)
   11480:	c38a0a13          	addi	s4,s4,-968 # 1ac38 <zeroes.0>
   11484:	cc02                	sw	zero,24(sp)
   11486:	dc02                	sw	zero,56(sp)
   11488:	d602                	sw	zero,44(sp)
   1148a:	c282                	sw	zero,68(sp)
   1148c:	de02                	sw	zero,60(sp)
   1148e:	c402                	sw	zero,8(sp)
   11490:	4441                	li	s0,16
   11492:	c026                	sw	s1,0(sp)
   11494:	000d4783          	lbu	a5,0(s10)
   11498:	8aea                	mv	s5,s10
   1149a:	fdb78713          	addi	a4,a5,-37
   1149e:	c329                	beqz	a4,114e0 <_vfprintf_r+0x118>
   114a0:	c3a1                	beqz	a5,114e0 <_vfprintf_r+0x118>
   114a2:	8c56                	mv	s8,s5
   114a4:	001ac783          	lbu	a5,1(s5)
   114a8:	0a85                	addi	s5,s5,1
   114aa:	c781                	beqz	a5,114b2 <_vfprintf_r+0xea>
   114ac:	fdb78713          	addi	a4,a5,-37
   114b0:	fb6d                	bnez	a4,114a2 <_vfprintf_r+0xda>
   114b2:	41aa8cb3          	sub	s9,s5,s10
   114b6:	03aa8563          	beq	s5,s10,114e0 <_vfprintf_r+0x118>
   114ba:	57fa                	lw	a5,188(sp)
   114bc:	556a                	lw	a0,184(sp)
   114be:	01ab2023          	sw	s10,0(s6)
   114c2:	97e6                	add	a5,a5,s9
   114c4:	0505                	addi	a0,a0,1
   114c6:	019b2223          	sw	s9,4(s6)
   114ca:	df3e                	sw	a5,188(sp)
   114cc:	dd2a                	sw	a0,184(sp)
   114ce:	479d                	li	a5,7
   114d0:	0b21                	addi	s6,s6,8
   114d2:	18a7c563          	blt	a5,a0,1165c <_vfprintf_r+0x294>
   114d6:	47a2                	lw	a5,8(sp)
   114d8:	97e6                	add	a5,a5,s9
   114da:	c43e                	sw	a5,8(sp)
   114dc:	001c4783          	lbu	a5,1(s8)
   114e0:	e399                	bnez	a5,114e6 <_vfprintf_r+0x11e>
   114e2:	4180106f          	j	128fa <_vfprintf_r+0x1532>
   114e6:	001ac883          	lbu	a7,1(s5)
   114ea:	001a8d13          	addi	s10,s5,1
   114ee:	080109a3          	sb	zero,147(sp)
   114f2:	5afd                	li	s5,-1
   114f4:	c202                	sw	zero,4(sp)
   114f6:	4b81                	li	s7,0
   114f8:	05a00c13          	li	s8,90
   114fc:	0d05                	addi	s10,s10,1
   114fe:	fe088793          	addi	a5,a7,-32
   11502:	02fc6d63          	bltu	s8,a5,1153c <_vfprintf_r+0x174>
   11506:	4752                	lw	a4,20(sp)
   11508:	078a                	slli	a5,a5,0x2
   1150a:	97ba                	add	a5,a5,a4
   1150c:	439c                	lw	a5,0(a5)
   1150e:	8782                	jr	a5
   11510:	fd088793          	addi	a5,a7,-48
   11514:	c202                	sw	zero,4(sp)
   11516:	46a5                	li	a3,9
   11518:	4612                	lw	a2,4(sp)
   1151a:	000d4883          	lbu	a7,0(s10)
   1151e:	0d05                	addi	s10,s10,1
   11520:	00261713          	slli	a4,a2,0x2
   11524:	9732                	add	a4,a4,a2
   11526:	0706                	slli	a4,a4,0x1
   11528:	97ba                	add	a5,a5,a4
   1152a:	c23e                	sw	a5,4(sp)
   1152c:	fd088793          	addi	a5,a7,-48
   11530:	fef6f4e3          	bgeu	a3,a5,11518 <_vfprintf_r+0x150>
   11534:	fe088793          	addi	a5,a7,-32
   11538:	fcfc77e3          	bgeu	s8,a5,11506 <_vfprintf_r+0x13e>
   1153c:	00089463          	bnez	a7,11544 <_vfprintf_r+0x17c>
   11540:	3ba0106f          	j	128fa <_vfprintf_r+0x1532>
   11544:	4c85                	li	s9,1
   11546:	11110e23          	sb	a7,284(sp)
   1154a:	080109a3          	sb	zero,147(sp)
   1154e:	8c66                	mv	s8,s9
   11550:	c602                	sw	zero,12(sp)
   11552:	4a81                	li	s5,0
   11554:	d002                	sw	zero,32(sp)
   11556:	ce02                	sw	zero,28(sp)
   11558:	4301                	li	t1,0
   1155a:	0a7c                	addi	a5,sp,284
   1155c:	567a                	lw	a2,188(sp)
   1155e:	084bfd93          	andi	s11,s7,132
   11562:	8832                	mv	a6,a2
   11564:	500d8363          	beqz	s11,11a6a <_vfprintf_r+0x6a2>
   11568:	09314703          	lbu	a4,147(sp)
   1156c:	c331                	beqz	a4,115b0 <_vfprintf_r+0x1e8>
   1156e:	55ea                	lw	a1,184(sp)
   11570:	4701                	li	a4,0
   11572:	09310513          	addi	a0,sp,147
   11576:	00ab2023          	sw	a0,0(s6)
   1157a:	0605                	addi	a2,a2,1 # 2001 <exit-0xe0b3>
   1157c:	4505                	li	a0,1
   1157e:	0585                	addi	a1,a1,1
   11580:	00ab2223          	sw	a0,4(s6)
   11584:	df32                	sw	a2,188(sp)
   11586:	dd2e                	sw	a1,184(sp)
   11588:	451d                	li	a0,7
   1158a:	0b21                	addi	s6,s6,8
   1158c:	38b54e63          	blt	a0,a1,11928 <_vfprintf_r+0x560>
   11590:	c305                	beqz	a4,115b0 <_vfprintf_r+0x1e8>
   11592:	55ea                	lw	a1,184(sp)
   11594:	0958                	addi	a4,sp,148
   11596:	00eb2023          	sw	a4,0(s6)
   1159a:	0609                	addi	a2,a2,2
   1159c:	4709                	li	a4,2
   1159e:	0585                	addi	a1,a1,1
   115a0:	00eb2223          	sw	a4,4(s6)
   115a4:	df32                	sw	a2,188(sp)
   115a6:	dd2e                	sw	a1,184(sp)
   115a8:	471d                	li	a4,7
   115aa:	0b21                	addi	s6,s6,8
   115ac:	40b748e3          	blt	a4,a1,121bc <_vfprintf_r+0xdf4>
   115b0:	08000713          	li	a4,128
   115b4:	2ced8fe3          	beq	s11,a4,12092 <_vfprintf_r+0xcca>
   115b8:	419a8ab3          	sub	s5,s5,s9
   115bc:	4d504463          	bgtz	s5,11a84 <_vfprintf_r+0x6bc>
   115c0:	100bf713          	andi	a4,s7,256
   115c4:	54071d63          	bnez	a4,11b1e <_vfprintf_r+0x756>
   115c8:	00fb2023          	sw	a5,0(s6)
   115cc:	57ea                	lw	a5,184(sp)
   115ce:	9666                	add	a2,a2,s9
   115d0:	df32                	sw	a2,188(sp)
   115d2:	0785                	addi	a5,a5,1
   115d4:	019b2223          	sw	s9,4(s6)
   115d8:	471d                	li	a4,7
   115da:	dd3e                	sw	a5,184(sp)
   115dc:	40f74f63          	blt	a4,a5,119fa <_vfprintf_r+0x632>
   115e0:	0b21                	addi	s6,s6,8
   115e2:	004bfe13          	andi	t3,s7,4
   115e6:	000e0763          	beqz	t3,115f4 <_vfprintf_r+0x22c>
   115ea:	4792                	lw	a5,4(sp)
   115ec:	41878ab3          	sub	s5,a5,s8
   115f0:	3f5046e3          	bgtz	s5,121dc <_vfprintf_r+0xe14>
   115f4:	4312                	lw	t1,4(sp)
   115f6:	01835363          	bge	t1,s8,115fc <_vfprintf_r+0x234>
   115fa:	8362                	mv	t1,s8
   115fc:	47a2                	lw	a5,8(sp)
   115fe:	979a                	add	a5,a5,t1
   11600:	c43e                	sw	a5,8(sp)
   11602:	32061fe3          	bnez	a2,12140 <_vfprintf_r+0xd78>
   11606:	47b2                	lw	a5,12(sp)
   11608:	dd02                	sw	zero,184(sp)
   1160a:	c789                	beqz	a5,11614 <_vfprintf_r+0x24c>
   1160c:	45b2                	lw	a1,12(sp)
   1160e:	854a                	mv	a0,s2
   11610:	d90ff0ef          	jal	10ba0 <_free_r>
   11614:	8b4e                	mv	s6,s3
   11616:	bdbd                	j	11494 <_vfprintf_r+0xcc>
   11618:	85a6                	mv	a1,s1
   1161a:	854a                	mv	a0,s2
   1161c:	770020ef          	jal	13d8c <__swsetup_r>
   11620:	c119                	beqz	a0,11626 <_vfprintf_r+0x25e>
   11622:	2f90106f          	j	1311a <_vfprintf_r+0x1d52>
   11626:	00c49783          	lh	a5,12(s1)
   1162a:	4729                	li	a4,10
   1162c:	8be9                	andi	a5,a5,26
   1162e:	e0e79ce3          	bne	a5,a4,11446 <_vfprintf_r+0x7e>
   11632:	00e49783          	lh	a5,14(s1)
   11636:	e007c8e3          	bltz	a5,11446 <_vfprintf_r+0x7e>
   1163a:	46c2                	lw	a3,16(sp)
   1163c:	866a                	mv	a2,s10
   1163e:	85a6                	mv	a1,s1
   11640:	854a                	mv	a0,s2
   11642:	695010ef          	jal	134d6 <__sbprintf>
   11646:	c42a                	sw	a0,8(sp)
   11648:	3450006f          	j	1218c <_vfprintf_r+0xdc4>
   1164c:	000d4883          	lbu	a7,0(s10)
   11650:	b575                	j	114fc <_vfprintf_r+0x134>
   11652:	000d4883          	lbu	a7,0(s10)
   11656:	020beb93          	ori	s7,s7,32
   1165a:	b54d                	j	114fc <_vfprintf_r+0x134>
   1165c:	4582                	lw	a1,0(sp)
   1165e:	1950                	addi	a2,sp,180
   11660:	854a                	mv	a0,s2
   11662:	705010ef          	jal	13566 <__sprint_r>
   11666:	c119                	beqz	a0,1166c <_vfprintf_r+0x2a4>
   11668:	43d0106f          	j	132a4 <_vfprintf_r+0x1edc>
   1166c:	8b4e                	mv	s6,s3
   1166e:	b5a5                	j	114d6 <_vfprintf_r+0x10e>
   11670:	008bf793          	andi	a5,s7,8
   11674:	6a079ae3          	bnez	a5,12528 <_vfprintf_r+0x1160>
   11678:	47c2                	lw	a5,16(sp)
   1167a:	0108                	addi	a0,sp,128
   1167c:	c646                	sw	a7,12(sp)
   1167e:	079d                	addi	a5,a5,7
   11680:	9be1                	andi	a5,a5,-8
   11682:	2388                	fld	fa0,0(a5)
   11684:	07a1                	addi	a5,a5,8
   11686:	c83e                	sw	a5,16(sp)
   11688:	114090ef          	jal	1a79c <__extenddftf2>
   1168c:	460a                	lw	a2,128(sp)
   1168e:	469a                	lw	a3,132(sp)
   11690:	472a                	lw	a4,136(sp)
   11692:	47ba                	lw	a5,140(sp)
   11694:	48b2                	lw	a7,12(sp)
   11696:	0188                	addi	a0,sp,192
   11698:	c646                	sw	a7,12(sp)
   1169a:	c7be                	sw	a5,204(sp)
   1169c:	c1b2                	sw	a2,192(sp)
   1169e:	c3b6                	sw	a3,196(sp)
   116a0:	c5ba                	sw	a4,200(sp)
   116a2:	10e030ef          	jal	147b0 <_ldcheck>
   116a6:	cd2a                	sw	a0,152(sp)
   116a8:	4789                	li	a5,2
   116aa:	48b2                	lw	a7,12(sp)
   116ac:	00f51463          	bne	a0,a5,116b4 <_vfprintf_r+0x2ec>
   116b0:	1e00106f          	j	12890 <_vfprintf_r+0x14c8>
   116b4:	4785                	li	a5,1
   116b6:	00f51463          	bne	a0,a5,116be <_vfprintf_r+0x2f6>
   116ba:	2e20106f          	j	1299c <_vfprintf_r+0x15d4>
   116be:	fdf8fc13          	andi	s8,a7,-33
   116c2:	04100793          	li	a5,65
   116c6:	00fc0463          	beq	s8,a5,116ce <_vfprintf_r+0x306>
   116ca:	30c0106f          	j	129d6 <_vfprintf_r+0x160e>
   116ce:	03000793          	li	a5,48
   116d2:	08f10a23          	sb	a5,148(sp)
   116d6:	06100713          	li	a4,97
   116da:	05800793          	li	a5,88
   116de:	00e89463          	bne	a7,a4,116e6 <_vfprintf_r+0x31e>
   116e2:	69e0106f          	j	12d80 <_vfprintf_r+0x19b8>
   116e6:	08f10aa3          	sb	a5,149(sp)
   116ea:	06300793          	li	a5,99
   116ee:	0157d463          	bge	a5,s5,116f6 <_vfprintf_r+0x32e>
   116f2:	6660106f          	j	12d58 <_vfprintf_r+0x1990>
   116f6:	473e                	lw	a4,204(sp)
   116f8:	468e                	lw	a3,192(sp)
   116fa:	461e                	lw	a2,196(sp)
   116fc:	45ae                	lw	a1,200(sp)
   116fe:	00075463          	bgez	a4,11706 <_vfprintf_r+0x33e>
   11702:	3410106f          	j	13242 <_vfprintf_r+0x1e7a>
   11706:	d802                	sw	zero,48(sp)
   11708:	c602                	sw	zero,12(sp)
   1170a:	0a7c                	addi	a5,sp,284
   1170c:	08010d93          	addi	s11,sp,128
   11710:	c0be                	sw	a5,64(sp)
   11712:	dab2                	sw	a2,116(sp)
   11714:	002be793          	ori	a5,s7,2
   11718:	dcae                	sw	a1,120(sp)
   1171a:	856e                	mv	a0,s11
   1171c:	188c                	addi	a1,sp,112
   1171e:	0930                	addi	a2,sp,152
   11720:	dc46                	sw	a7,56(sp)
   11722:	ce3e                	sw	a5,28(sp)
   11724:	d8b6                	sw	a3,112(sp)
   11726:	deba                	sw	a4,124(sp)
   11728:	5b3020ef          	jal	144da <frexpl>
   1172c:	472a                	lw	a4,136(sp)
   1172e:	460a                	lw	a2,128(sp)
   11730:	469a                	lw	a3,132(sp)
   11732:	dcba                	sw	a4,120(sp)
   11734:	473a                	lw	a4,140(sp)
   11736:	d8b2                	sw	a2,112(sp)
   11738:	dab6                	sw	a3,116(sp)
   1173a:	1090                	addi	a2,sp,96
   1173c:	3ffc06b7          	lui	a3,0x3ffc0
   11740:	188c                	addi	a1,sp,112
   11742:	856e                	mv	a0,s11
   11744:	d6b6                	sw	a3,108(sp)
   11746:	deba                	sw	a4,124(sp)
   11748:	d082                	sw	zero,96(sp)
   1174a:	d282                	sw	zero,100(sp)
   1174c:	d482                	sw	zero,104(sp)
   1174e:	198070ef          	jal	188e6 <__multf3>
   11752:	4e0a                	lw	t3,128(sp)
   11754:	481a                	lw	a6,132(sp)
   11756:	462a                	lw	a2,136(sp)
   11758:	188c                	addi	a1,sp,112
   1175a:	856e                	mv	a0,s11
   1175c:	da72                	sw	t3,52(sp)
   1175e:	d042                	sw	a6,32(sp)
   11760:	cc32                	sw	a2,24(sp)
   11762:	d882                	sw	zero,112(sp)
   11764:	da82                	sw	zero,116(sp)
   11766:	dc82                	sw	zero,120(sp)
   11768:	de82                	sw	zero,124(sp)
   1176a:	67b060ef          	jal	185e4 <__eqtf2>
   1176e:	4bba                	lw	s7,140(sp)
   11770:	4662                	lw	a2,24(sp)
   11772:	5802                	lw	a6,32(sp)
   11774:	5e52                	lw	t3,52(sp)
   11776:	58e2                	lw	a7,56(sp)
   11778:	4786                	lw	a5,64(sp)
   1177a:	e119                	bnez	a0,11780 <_vfprintf_r+0x3b8>
   1177c:	4685                	li	a3,1
   1177e:	cd36                	sw	a3,152(sp)
   11780:	06100693          	li	a3,97
   11784:	00d89463          	bne	a7,a3,1178c <_vfprintf_r+0x3c4>
   11788:	4a90106f          	j	13430 <_vfprintf_r+0x2068>
   1178c:	66ed                	lui	a3,0x1b
   1178e:	97868713          	addi	a4,a3,-1672 # 1a978 <__clzsi2+0x66>
   11792:	cc3a                	sw	a4,24(sp)
   11794:	d05a                	sw	s6,32(sp)
   11796:	8cde                	mv	s9,s7
   11798:	c4ca                	sw	s2,72(sp)
   1179a:	44e2                	lw	s1,24(sp)
   1179c:	8c3e                	mv	s8,a5
   1179e:	da46                	sw	a7,52(sp)
   117a0:	dc3e                	sw	a5,56(sp)
   117a2:	c0ea                	sw	s10,64(sp)
   117a4:	8b42                	mv	s6,a6
   117a6:	8bb2                	mv	s7,a2
   117a8:	8972                	mv	s2,t3
   117aa:	a00d                	j	117cc <_vfprintf_r+0x404>
   117ac:	188c                	addi	a1,sp,112
   117ae:	856e                	mv	a0,s11
   117b0:	c14a                	sw	s2,128(sp)
   117b2:	c35a                	sw	s6,132(sp)
   117b4:	c55e                	sw	s7,136(sp)
   117b6:	c766                	sw	s9,140(sp)
   117b8:	d882                	sw	zero,112(sp)
   117ba:	da82                	sw	zero,116(sp)
   117bc:	dc82                	sw	zero,120(sp)
   117be:	de82                	sw	zero,124(sp)
   117c0:	625060ef          	jal	185e4 <__eqtf2>
   117c4:	e119                	bnez	a0,117ca <_vfprintf_r+0x402>
   117c6:	32d0106f          	j	132f2 <_vfprintf_r+0x1f2a>
   117ca:	1afd                	addi	s5,s5,-1
   117cc:	400307b7          	lui	a5,0x40030
   117d0:	1090                	addi	a2,sp,96
   117d2:	188c                	addi	a1,sp,112
   117d4:	856e                	mv	a0,s11
   117d6:	d6be                	sw	a5,108(sp)
   117d8:	d8ca                	sw	s2,112(sp)
   117da:	dada                	sw	s6,116(sp)
   117dc:	dcde                	sw	s7,120(sp)
   117de:	dee6                	sw	s9,124(sp)
   117e0:	d082                	sw	zero,96(sp)
   117e2:	d282                	sw	zero,100(sp)
   117e4:	d482                	sw	zero,104(sp)
   117e6:	100070ef          	jal	188e6 <__multf3>
   117ea:	856e                	mv	a0,s11
   117ec:	5dd080ef          	jal	1a5c8 <__fixtfsi>
   117f0:	85aa                	mv	a1,a0
   117f2:	8d2a                	mv	s10,a0
   117f4:	856e                	mv	a0,s11
   117f6:	4c8a                	lw	s9,128(sp)
   117f8:	4b9a                	lw	s7,132(sp)
   117fa:	4b2a                	lw	s6,136(sp)
   117fc:	493a                	lw	s2,140(sp)
   117fe:	6d7080ef          	jal	1a6d4 <__floatsitf>
   11802:	47aa                	lw	a5,136(sp)
   11804:	460a                	lw	a2,128(sp)
   11806:	469a                	lw	a3,132(sp)
   11808:	ccbe                	sw	a5,88(sp)
   1180a:	47ba                	lw	a5,140(sp)
   1180c:	c8b2                	sw	a2,80(sp)
   1180e:	108c                	addi	a1,sp,96
   11810:	0890                	addi	a2,sp,80
   11812:	1888                	addi	a0,sp,112
   11814:	d0e6                	sw	s9,96(sp)
   11816:	d2de                	sw	s7,100(sp)
   11818:	d4da                	sw	s6,104(sp)
   1181a:	d6ca                	sw	s2,108(sp)
   1181c:	cab6                	sw	a3,84(sp)
   1181e:	cebe                	sw	a5,92(sp)
   11820:	4a3070ef          	jal	194c2 <__subtf3>
   11824:	01a487b3          	add	a5,s1,s10
   11828:	0007c683          	lbu	a3,0(a5) # 40030000 <__BSS_END__+0x4001344c>
   1182c:	85e2                	mv	a1,s8
   1182e:	0c05                	addi	s8,s8,1
   11830:	5946                	lw	s2,112(sp)
   11832:	5b56                	lw	s6,116(sp)
   11834:	5be6                	lw	s7,120(sp)
   11836:	5cf6                	lw	s9,124(sp)
   11838:	fedc0fa3          	sb	a3,-1(s8)
   1183c:	f60a98e3          	bnez	s5,117ac <_vfprintf_r+0x3e4>
   11840:	58d2                	lw	a7,52(sp)
   11842:	57e2                	lw	a5,56(sp)
   11844:	8e4a                	mv	t3,s2
   11846:	885a                	mv	a6,s6
   11848:	865e                	mv	a2,s7
   1184a:	84ae                	mv	s1,a1
   1184c:	8be6                	mv	s7,s9
   1184e:	3ffe0ab7          	lui	s5,0x3ffe0
   11852:	188c                	addi	a1,sp,112
   11854:	856e                	mv	a0,s11
   11856:	c6c6                	sw	a7,76(sp)
   11858:	da3e                	sw	a5,52(sp)
   1185a:	4926                	lw	s2,72(sp)
   1185c:	8cea                	mv	s9,s10
   1185e:	c172                	sw	t3,128(sp)
   11860:	4d06                	lw	s10,64(sp)
   11862:	c4f2                	sw	t3,72(sp)
   11864:	c342                	sw	a6,132(sp)
   11866:	c0c2                	sw	a6,64(sp)
   11868:	c532                	sw	a2,136(sp)
   1186a:	dc32                	sw	a2,56(sp)
   1186c:	c75e                	sw	s7,140(sp)
   1186e:	d882                	sw	zero,112(sp)
   11870:	da82                	sw	zero,116(sp)
   11872:	dc82                	sw	zero,120(sp)
   11874:	ded6                	sw	s5,124(sp)
   11876:	681060ef          	jal	186f6 <__getf2>
   1187a:	5b02                	lw	s6,32(sp)
   1187c:	57d2                	lw	a5,52(sp)
   1187e:	48b6                	lw	a7,76(sp)
   11880:	00a04e63          	bgtz	a0,1189c <_vfprintf_r+0x4d4>
   11884:	188c                	addi	a1,sp,112
   11886:	856e                	mv	a0,s11
   11888:	d046                	sw	a7,32(sp)
   1188a:	55b060ef          	jal	185e4 <__eqtf2>
   1188e:	5882                	lw	a7,32(sp)
   11890:	57d2                	lw	a5,52(sp)
   11892:	e531                	bnez	a0,118de <_vfprintf_r+0x516>
   11894:	001cfc93          	andi	s9,s9,1
   11898:	040c8363          	beqz	s9,118de <_vfprintf_r+0x516>
   1189c:	4762                	lw	a4,24(sp)
   1189e:	d126                	sw	s1,160(sp)
   118a0:	fffc4603          	lbu	a2,-1(s8)
   118a4:	00f74583          	lbu	a1,15(a4) # fffff00f <__BSS_END__+0xfffe245b>
   118a8:	8762                	mv	a4,s8
   118aa:	00c59e63          	bne	a1,a2,118c6 <_vfprintf_r+0x4fe>
   118ae:	03000513          	li	a0,48
   118b2:	fea70fa3          	sb	a0,-1(a4)
   118b6:	570a                	lw	a4,160(sp)
   118b8:	fff70693          	addi	a3,a4,-1
   118bc:	d136                	sw	a3,160(sp)
   118be:	fff74603          	lbu	a2,-1(a4)
   118c2:	fec588e3          	beq	a1,a2,118b2 <_vfprintf_r+0x4ea>
   118c6:	00160593          	addi	a1,a2,1
   118ca:	03900513          	li	a0,57
   118ce:	0ff5f593          	zext.b	a1,a1
   118d2:	00a61463          	bne	a2,a0,118da <_vfprintf_r+0x512>
   118d6:	7020106f          	j	12fd8 <_vfprintf_r+0x1c10>
   118da:	feb70fa3          	sb	a1,-1(a4)
   118de:	466a                	lw	a2,152(sp)
   118e0:	00f88713          	addi	a4,a7,15
   118e4:	0ae10223          	sb	a4,164(sp)
   118e8:	40fc06b3          	sub	a3,s8,a5
   118ec:	fff60713          	addi	a4,a2,-1
   118f0:	cd3a                	sw	a4,152(sp)
   118f2:	cc36                	sw	a3,24(sp)
   118f4:	00075463          	bgez	a4,118fc <_vfprintf_r+0x534>
   118f8:	3450106f          	j	1343c <_vfprintf_r+0x2074>
   118fc:	02b00693          	li	a3,43
   11900:	0ad102a3          	sb	a3,165(sp)
   11904:	46a5                	li	a3,9
   11906:	00e6d463          	bge	a3,a4,1190e <_vfprintf_r+0x546>
   1190a:	6260106f          	j	12f30 <_vfprintf_r+0x1b68>
   1190e:	0a610693          	addi	a3,sp,166
   11912:	03070713          	addi	a4,a4,48
   11916:	00e68023          	sb	a4,0(a3)
   1191a:	0318                	addi	a4,sp,384
   1191c:	8e99                	sub	a3,a3,a4
   1191e:	0dd68713          	addi	a4,a3,221
   11922:	dc3a                	sw	a4,56(sp)
   11924:	6740106f          	j	12f98 <_vfprintf_r+0x1bd0>
   11928:	4582                	lw	a1,0(sp)
   1192a:	1950                	addi	a2,sp,180
   1192c:	854a                	mv	a0,s2
   1192e:	c49a                	sw	t1,72(sp)
   11930:	c0be                	sw	a5,64(sp)
   11932:	da46                	sw	a7,52(sp)
   11934:	d83a                	sw	a4,48(sp)
   11936:	431010ef          	jal	13566 <__sprint_r>
   1193a:	00051ae3          	bnez	a0,1214e <_vfprintf_r+0xd86>
   1193e:	567a                	lw	a2,188(sp)
   11940:	4326                	lw	t1,72(sp)
   11942:	4786                	lw	a5,64(sp)
   11944:	58d2                	lw	a7,52(sp)
   11946:	5742                	lw	a4,48(sp)
   11948:	8b4e                	mv	s6,s3
   1194a:	b199                	j	11590 <_vfprintf_r+0x1c8>
   1194c:	5aea                	lw	s5,184(sp)
   1194e:	46e2                	lw	a3,24(sp)
   11950:	4705                	li	a4,1
   11952:	963a                	add	a2,a2,a4
   11954:	9aba                	add	s5,s5,a4
   11956:	008b0d93          	addi	s11,s6,8
   1195a:	2ad75ee3          	bge	a4,a3,12416 <_vfprintf_r+0x104e>
   1195e:	4705                	li	a4,1
   11960:	00eb2223          	sw	a4,4(s6)
   11964:	00fb2023          	sw	a5,0(s6)
   11968:	df32                	sw	a2,188(sp)
   1196a:	dd56                	sw	s5,184(sp)
   1196c:	471d                	li	a4,7
   1196e:	5d5742e3          	blt	a4,s5,12732 <_vfprintf_r+0x136a>
   11972:	5712                	lw	a4,36(sp)
   11974:	56a2                	lw	a3,40(sp)
   11976:	0a85                	addi	s5,s5,1 # 3ffe0001 <__BSS_END__+0x3ffc344d>
   11978:	963a                	add	a2,a2,a4
   1197a:	00eda223          	sw	a4,4(s11)
   1197e:	00dda023          	sw	a3,0(s11)
   11982:	df32                	sw	a2,188(sp)
   11984:	dd56                	sw	s5,184(sp)
   11986:	471d                	li	a4,7
   11988:	0da1                	addi	s11,s11,8
   1198a:	595746e3          	blt	a4,s5,12716 <_vfprintf_r+0x134e>
   1198e:	472e                	lw	a4,200(sp)
   11990:	450e                	lw	a0,192(sp)
   11992:	459e                	lw	a1,196(sp)
   11994:	d03e                	sw	a5,32(sp)
   11996:	c53a                	sw	a4,136(sp)
   11998:	47e2                	lw	a5,24(sp)
   1199a:	473e                	lw	a4,204(sp)
   1199c:	c12a                	sw	a0,128(sp)
   1199e:	c32e                	sw	a1,132(sp)
   119a0:	0108                	addi	a0,sp,128
   119a2:	188c                	addi	a1,sp,112
   119a4:	ce32                	sw	a2,28(sp)
   119a6:	d882                	sw	zero,112(sp)
   119a8:	da82                	sw	zero,116(sp)
   119aa:	dc82                	sw	zero,120(sp)
   119ac:	de82                	sw	zero,124(sp)
   119ae:	c73a                	sw	a4,140(sp)
   119b0:	fff78b13          	addi	s6,a5,-1
   119b4:	431060ef          	jal	185e4 <__eqtf2>
   119b8:	4672                	lw	a2,28(sp)
   119ba:	280507e3          	beqz	a0,12448 <_vfprintf_r+0x1080>
   119be:	5782                	lw	a5,32(sp)
   119c0:	0a85                	addi	s5,s5,1
   119c2:	965a                	add	a2,a2,s6
   119c4:	0785                	addi	a5,a5,1
   119c6:	dd56                	sw	s5,184(sp)
   119c8:	df32                	sw	a2,188(sp)
   119ca:	00fda023          	sw	a5,0(s11)
   119ce:	016da223          	sw	s6,4(s11)
   119d2:	479d                	li	a5,7
   119d4:	2557cee3          	blt	a5,s5,12430 <_vfprintf_r+0x1068>
   119d8:	0da1                	addi	s11,s11,8
   119da:	56e2                	lw	a3,56(sp)
   119dc:	1158                	addi	a4,sp,164
   119de:	001a8793          	addi	a5,s5,1
   119e2:	9636                	add	a2,a2,a3
   119e4:	00eda023          	sw	a4,0(s11)
   119e8:	df32                	sw	a2,188(sp)
   119ea:	dd3e                	sw	a5,184(sp)
   119ec:	00dda223          	sw	a3,4(s11)
   119f0:	471d                	li	a4,7
   119f2:	008d8b13          	addi	s6,s11,8
   119f6:	bef756e3          	bge	a4,a5,115e2 <_vfprintf_r+0x21a>
   119fa:	4582                	lw	a1,0(sp)
   119fc:	1950                	addi	a2,sp,180
   119fe:	854a                	mv	a0,s2
   11a00:	367010ef          	jal	13566 <__sprint_r>
   11a04:	74051563          	bnez	a0,1214e <_vfprintf_r+0xd86>
   11a08:	567a                	lw	a2,188(sp)
   11a0a:	8b4e                	mv	s6,s3
   11a0c:	bed9                	j	115e2 <_vfprintf_r+0x21a>
   11a0e:	4742                	lw	a4,16(sp)
   11a10:	080109a3          	sb	zero,147(sp)
   11a14:	431c                	lw	a5,0(a4)
   11a16:	00470493          	addi	s1,a4,4
   11a1a:	40078de3          	beqz	a5,12634 <_vfprintf_r+0x126c>
   11a1e:	4a0acae3          	bltz	s5,126d2 <_vfprintf_r+0x130a>
   11a22:	853e                	mv	a0,a5
   11a24:	8656                	mv	a2,s5
   11a26:	4581                	li	a1,0
   11a28:	ce46                	sw	a7,28(sp)
   11a2a:	c83e                	sw	a5,16(sp)
   11a2c:	1cb020ef          	jal	143f6 <memchr>
   11a30:	c62a                	sw	a0,12(sp)
   11a32:	09314703          	lbu	a4,147(sp)
   11a36:	47c2                	lw	a5,16(sp)
   11a38:	48f2                	lw	a7,28(sp)
   11a3a:	e119                	bnez	a0,11a40 <_vfprintf_r+0x678>
   11a3c:	6f40106f          	j	13130 <_vfprintf_r+0x1d68>
   11a40:	40f50cb3          	sub	s9,a0,a5
   11a44:	fffcc693          	not	a3,s9
   11a48:	86fd                	srai	a3,a3,0x1f
   11a4a:	00dcfc33          	and	s8,s9,a3
   11a4e:	4a0713e3          	bnez	a4,126f4 <_vfprintf_r+0x132c>
   11a52:	c826                	sw	s1,16(sp)
   11a54:	567a                	lw	a2,188(sp)
   11a56:	c602                	sw	zero,12(sp)
   11a58:	d002                	sw	zero,32(sp)
   11a5a:	ce02                	sw	zero,28(sp)
   11a5c:	084bfd93          	andi	s11,s7,132
   11a60:	4a81                	li	s5,0
   11a62:	4301                	li	t1,0
   11a64:	8832                	mv	a6,a2
   11a66:	b00d91e3          	bnez	s11,11568 <_vfprintf_r+0x1a0>
   11a6a:	4712                	lw	a4,4(sp)
   11a6c:	41870733          	sub	a4,a4,s8
   11a70:	18e048e3          	bgtz	a4,12400 <_vfprintf_r+0x1038>
   11a74:	09314703          	lbu	a4,147(sp)
   11a78:	ae071be3          	bnez	a4,1156e <_vfprintf_r+0x1a6>
   11a7c:	419a8ab3          	sub	s5,s5,s9
   11a80:	b55050e3          	blez	s5,115c0 <_vfprintf_r+0x1f8>
   11a84:	686d                	lui	a6,0x1b
   11a86:	55ea                	lw	a1,184(sp)
   11a88:	c3880813          	addi	a6,a6,-968 # 1ac38 <zeroes.0>
   11a8c:	05545a63          	bge	s0,s5,11ae0 <_vfprintf_r+0x718>
   11a90:	84d6                	mv	s1,s5
   11a92:	da3e                	sw	a5,52(sp)
   11a94:	4d9d                	li	s11,7
   11a96:	87da                	mv	a5,s6
   11a98:	d846                	sw	a7,48(sp)
   11a9a:	8a9a                	mv	s5,t1
   11a9c:	8b52                	mv	s6,s4
   11a9e:	a021                	j	11aa6 <_vfprintf_r+0x6de>
   11aa0:	14c1                	addi	s1,s1,-16
   11aa2:	02945963          	bge	s0,s1,11ad4 <_vfprintf_r+0x70c>
   11aa6:	0641                	addi	a2,a2,16
   11aa8:	0585                	addi	a1,a1,1
   11aaa:	0147a023          	sw	s4,0(a5)
   11aae:	c3c0                	sw	s0,4(a5)
   11ab0:	df32                	sw	a2,188(sp)
   11ab2:	dd2e                	sw	a1,184(sp)
   11ab4:	07a1                	addi	a5,a5,8
   11ab6:	febdd5e3          	bge	s11,a1,11aa0 <_vfprintf_r+0x6d8>
   11aba:	4582                	lw	a1,0(sp)
   11abc:	1950                	addi	a2,sp,180
   11abe:	854a                	mv	a0,s2
   11ac0:	2a7010ef          	jal	13566 <__sprint_r>
   11ac4:	68051563          	bnez	a0,1214e <_vfprintf_r+0xd86>
   11ac8:	14c1                	addi	s1,s1,-16
   11aca:	567a                	lw	a2,188(sp)
   11acc:	55ea                	lw	a1,184(sp)
   11ace:	87ce                	mv	a5,s3
   11ad0:	fc944be3          	blt	s0,s1,11aa6 <_vfprintf_r+0x6de>
   11ad4:	885a                	mv	a6,s6
   11ad6:	58c2                	lw	a7,48(sp)
   11ad8:	8b3e                	mv	s6,a5
   11ada:	57d2                	lw	a5,52(sp)
   11adc:	8356                	mv	t1,s5
   11ade:	8aa6                	mv	s5,s1
   11ae0:	9656                	add	a2,a2,s5
   11ae2:	0585                	addi	a1,a1,1
   11ae4:	010b2023          	sw	a6,0(s6)
   11ae8:	015b2223          	sw	s5,4(s6)
   11aec:	df32                	sw	a2,188(sp)
   11aee:	dd2e                	sw	a1,184(sp)
   11af0:	471d                	li	a4,7
   11af2:	0b21                	addi	s6,s6,8
   11af4:	acb756e3          	bge	a4,a1,115c0 <_vfprintf_r+0x1f8>
   11af8:	4582                	lw	a1,0(sp)
   11afa:	1950                	addi	a2,sp,180
   11afc:	854a                	mv	a0,s2
   11afe:	c09a                	sw	t1,64(sp)
   11b00:	da3e                	sw	a5,52(sp)
   11b02:	d846                	sw	a7,48(sp)
   11b04:	263010ef          	jal	13566 <__sprint_r>
   11b08:	64051363          	bnez	a0,1214e <_vfprintf_r+0xd86>
   11b0c:	100bf713          	andi	a4,s7,256
   11b10:	567a                	lw	a2,188(sp)
   11b12:	4306                	lw	t1,64(sp)
   11b14:	57d2                	lw	a5,52(sp)
   11b16:	58c2                	lw	a7,48(sp)
   11b18:	8b4e                	mv	s6,s3
   11b1a:	aa0707e3          	beqz	a4,115c8 <_vfprintf_r+0x200>
   11b1e:	06500713          	li	a4,101
   11b22:	e31755e3          	bge	a4,a7,1194c <_vfprintf_r+0x584>
   11b26:	471e                	lw	a4,196(sp)
   11b28:	458e                	lw	a1,192(sp)
   11b2a:	452e                	lw	a0,200(sp)
   11b2c:	c33a                	sw	a4,132(sp)
   11b2e:	473e                	lw	a4,204(sp)
   11b30:	c12e                	sw	a1,128(sp)
   11b32:	c52a                	sw	a0,136(sp)
   11b34:	188c                	addi	a1,sp,112
   11b36:	0108                	addi	a0,sp,128
   11b38:	da32                	sw	a2,52(sp)
   11b3a:	d83e                	sw	a5,48(sp)
   11b3c:	c09a                	sw	t1,64(sp)
   11b3e:	d882                	sw	zero,112(sp)
   11b40:	da82                	sw	zero,116(sp)
   11b42:	dc82                	sw	zero,120(sp)
   11b44:	de82                	sw	zero,124(sp)
   11b46:	c73a                	sw	a4,140(sp)
   11b48:	29d060ef          	jal	185e4 <__eqtf2>
   11b4c:	57c2                	lw	a5,48(sp)
   11b4e:	5652                	lw	a2,52(sp)
   11b50:	4306                	lw	t1,64(sp)
   11b52:	74051663          	bnez	a0,1229e <_vfprintf_r+0xed6>
   11b56:	57ea                	lw	a5,184(sp)
   11b58:	676d                	lui	a4,0x1b
   11b5a:	99470713          	addi	a4,a4,-1644 # 1a994 <__clzsi2+0x82>
   11b5e:	00eb2023          	sw	a4,0(s6)
   11b62:	0605                	addi	a2,a2,1
   11b64:	4705                	li	a4,1
   11b66:	0785                	addi	a5,a5,1
   11b68:	00eb2223          	sw	a4,4(s6)
   11b6c:	df32                	sw	a2,188(sp)
   11b6e:	dd3e                	sw	a5,184(sp)
   11b70:	471d                	li	a4,7
   11b72:	0b21                	addi	s6,s6,8
   11b74:	4af74de3          	blt	a4,a5,1282e <_vfprintf_r+0x1466>
   11b78:	47ea                	lw	a5,152(sp)
   11b7a:	4762                	lw	a4,24(sp)
   11b7c:	10e7dfe3          	bge	a5,a4,1249a <_vfprintf_r+0x10d2>
   11b80:	5712                	lw	a4,36(sp)
   11b82:	57ea                	lw	a5,184(sp)
   11b84:	56a2                	lw	a3,40(sp)
   11b86:	963a                	add	a2,a2,a4
   11b88:	0785                	addi	a5,a5,1
   11b8a:	00eb2223          	sw	a4,4(s6)
   11b8e:	00db2023          	sw	a3,0(s6)
   11b92:	df32                	sw	a2,188(sp)
   11b94:	dd3e                	sw	a5,184(sp)
   11b96:	471d                	li	a4,7
   11b98:	0b21                	addi	s6,s6,8
   11b9a:	20f74ce3          	blt	a4,a5,125b2 <_vfprintf_r+0x11ea>
   11b9e:	47e2                	lw	a5,24(sp)
   11ba0:	fff78a93          	addi	s5,a5,-1
   11ba4:	a3505fe3          	blez	s5,115e2 <_vfprintf_r+0x21a>
   11ba8:	686d                	lui	a6,0x1b
   11baa:	4cc1                	li	s9,16
   11bac:	57ea                	lw	a5,184(sp)
   11bae:	4d9d                	li	s11,7
   11bb0:	c3880493          	addi	s1,a6,-968 # 1ac38 <zeroes.0>
   11bb4:	015cc663          	blt	s9,s5,11bc0 <_vfprintf_r+0x7f8>
   11bb8:	af45                	j	12368 <_vfprintf_r+0xfa0>
   11bba:	1ac1                	addi	s5,s5,-16
   11bbc:	4b5cdae3          	bge	s9,s5,12870 <_vfprintf_r+0x14a8>
   11bc0:	0641                	addi	a2,a2,16
   11bc2:	0785                	addi	a5,a5,1
   11bc4:	009b2023          	sw	s1,0(s6)
   11bc8:	019b2223          	sw	s9,4(s6)
   11bcc:	df32                	sw	a2,188(sp)
   11bce:	dd3e                	sw	a5,184(sp)
   11bd0:	0b21                	addi	s6,s6,8
   11bd2:	fefdd4e3          	bge	s11,a5,11bba <_vfprintf_r+0x7f2>
   11bd6:	4582                	lw	a1,0(sp)
   11bd8:	1950                	addi	a2,sp,180
   11bda:	854a                	mv	a0,s2
   11bdc:	18b010ef          	jal	13566 <__sprint_r>
   11be0:	56051763          	bnez	a0,1214e <_vfprintf_r+0xd86>
   11be4:	567a                	lw	a2,188(sp)
   11be6:	57ea                	lw	a5,184(sp)
   11be8:	8b4e                	mv	s6,s3
   11bea:	bfc1                	j	11bba <_vfprintf_r+0x7f2>
   11bec:	020bf793          	andi	a5,s7,32
   11bf0:	e3d5                	bnez	a5,11c94 <_vfprintf_r+0x8cc>
   11bf2:	47c2                	lw	a5,16(sp)
   11bf4:	010bf713          	andi	a4,s7,16
   11bf8:	0791                	addi	a5,a5,4
   11bfa:	c319                	beqz	a4,11c00 <_vfprintf_r+0x838>
   11bfc:	5920106f          	j	1318e <_vfprintf_r+0x1dc6>
   11c00:	46c2                	lw	a3,16(sp)
   11c02:	040bf713          	andi	a4,s7,64
   11c06:	0006ac03          	lw	s8,0(a3)
   11c0a:	560703e3          	beqz	a4,12970 <_vfprintf_r+0x15a8>
   11c0e:	0c42                	slli	s8,s8,0x10
   11c10:	410c5c13          	srai	s8,s8,0x10
   11c14:	41fc5e93          	srai	t4,s8,0x1f
   11c18:	c83e                	sw	a5,16(sp)
   11c1a:	8776                	mv	a4,t4
   11c1c:	08074863          	bltz	a4,11cac <_vfprintf_r+0x8e4>
   11c20:	0a0ac663          	bltz	s5,11ccc <_vfprintf_r+0x904>
   11c24:	01dc67b3          	or	a5,s8,t4
   11c28:	f7fbfb93          	andi	s7,s7,-129
   11c2c:	e3c5                	bnez	a5,11ccc <_vfprintf_r+0x904>
   11c2e:	080a9f63          	bnez	s5,11ccc <_vfprintf_r+0x904>
   11c32:	09314e83          	lbu	t4,147(sp)
   11c36:	540e8ae3          	beqz	t4,1298a <_vfprintf_r+0x15c2>
   11c3a:	4c01                	li	s8,0
   11c3c:	4301                	li	t1,0
   11c3e:	c602                	sw	zero,12(sp)
   11c40:	4c81                	li	s9,0
   11c42:	4a81                	li	s5,0
   11c44:	031c                	addi	a5,sp,384
   11c46:	0c05                	addi	s8,s8,1
   11c48:	00031463          	bnez	t1,11c50 <_vfprintf_r+0x888>
   11c4c:	06f0106f          	j	134ba <_vfprintf_r+0x20f2>
   11c50:	567a                	lw	a2,188(sp)
   11c52:	55ea                	lw	a1,184(sp)
   11c54:	084bfd93          	andi	s11,s7,132
   11c58:	0c09                	addi	s8,s8,2
   11c5a:	8832                	mv	a6,a2
   11c5c:	852e                	mv	a0,a1
   11c5e:	540d8263          	beqz	s11,121a2 <_vfprintf_r+0xdda>
   11c62:	d002                	sw	zero,32(sp)
   11c64:	ce02                	sw	zero,28(sp)
   11c66:	4301                	li	t1,0
   11c68:	920e86e3          	beqz	t4,11594 <_vfprintf_r+0x1cc>
   11c6c:	4709                	li	a4,2
   11c6e:	b211                	j	11572 <_vfprintf_r+0x1aa>
   11c70:	4742                	lw	a4,16(sp)
   11c72:	4c85                	li	s9,1
   11c74:	080109a3          	sb	zero,147(sp)
   11c78:	431c                	lw	a5,0(a4)
   11c7a:	10f10e23          	sb	a5,284(sp)
   11c7e:	00470793          	addi	a5,a4,4
   11c82:	c83e                	sw	a5,16(sp)
   11c84:	b0e9                	j	1154e <_vfprintf_r+0x186>
   11c86:	020bf793          	andi	a5,s7,32
   11c8a:	010bee13          	ori	t3,s7,16
   11c8e:	080781e3          	beqz	a5,12510 <_vfprintf_r+0x1148>
   11c92:	8bf2                	mv	s7,t3
   11c94:	47c2                	lw	a5,16(sp)
   11c96:	079d                	addi	a5,a5,7
   11c98:	9be1                	andi	a5,a5,-8
   11c9a:	43d8                	lw	a4,4(a5)
   11c9c:	00878693          	addi	a3,a5,8
   11ca0:	c836                	sw	a3,16(sp)
   11ca2:	0007ac03          	lw	s8,0(a5)
   11ca6:	8eba                	mv	t4,a4
   11ca8:	f6075ce3          	bgez	a4,11c20 <_vfprintf_r+0x858>
   11cac:	018037b3          	snez	a5,s8
   11cb0:	41d00eb3          	neg	t4,t4
   11cb4:	40fe8eb3          	sub	t4,t4,a5
   11cb8:	02d00793          	li	a5,45
   11cbc:	08f109a3          	sb	a5,147(sp)
   11cc0:	41800c33          	neg	s8,s8
   11cc4:	000ac463          	bltz	s5,11ccc <_vfprintf_r+0x904>
   11cc8:	f7fbfb93          	andi	s7,s7,-129
   11ccc:	200e9563          	bnez	t4,11ed6 <_vfprintf_r+0xb0e>
   11cd0:	47a5                	li	a5,9
   11cd2:	2187e263          	bltu	a5,s8,11ed6 <_vfprintf_r+0xb0e>
   11cd6:	030c0c13          	addi	s8,s8,48
   11cda:	17810fa3          	sb	s8,383(sp)
   11cde:	8c56                	mv	s8,s5
   11ce0:	075050e3          	blez	s5,12540 <_vfprintf_r+0x1178>
   11ce4:	09314e83          	lbu	t4,147(sp)
   11ce8:	4301                	li	t1,0
   11cea:	4c85                	li	s9,1
   11cec:	17f10793          	addi	a5,sp,383
   11cf0:	c602                	sw	zero,12(sp)
   11cf2:	f40e8be3          	beqz	t4,11c48 <_vfprintf_r+0x880>
   11cf6:	0c05                	addi	s8,s8,1
   11cf8:	bf81                	j	11c48 <_vfprintf_r+0x880>
   11cfa:	4742                	lw	a4,16(sp)
   11cfc:	431c                	lw	a5,0(a4)
   11cfe:	c23e                	sw	a5,4(sp)
   11d00:	7a07d363          	bgez	a5,124a6 <_vfprintf_r+0x10de>
   11d04:	4792                	lw	a5,4(sp)
   11d06:	40f007b3          	neg	a5,a5
   11d0a:	c23e                	sw	a5,4(sp)
   11d0c:	47c2                	lw	a5,16(sp)
   11d0e:	0791                	addi	a5,a5,4
   11d10:	c83e                	sw	a5,16(sp)
   11d12:	000d4883          	lbu	a7,0(s10)
   11d16:	004beb93          	ori	s7,s7,4
   11d1a:	fe2ff06f          	j	114fc <_vfprintf_r+0x134>
   11d1e:	02b00793          	li	a5,43
   11d22:	000d4883          	lbu	a7,0(s10)
   11d26:	08f109a3          	sb	a5,147(sp)
   11d2a:	fd2ff06f          	j	114fc <_vfprintf_r+0x134>
   11d2e:	000d4883          	lbu	a7,0(s10)
   11d32:	080beb93          	ori	s7,s7,128
   11d36:	fc6ff06f          	j	114fc <_vfprintf_r+0x134>
   11d3a:	000d4883          	lbu	a7,0(s10)
   11d3e:	02a00793          	li	a5,42
   11d42:	001d0693          	addi	a3,s10,1
   11d46:	00f89463          	bne	a7,a5,11d4e <_vfprintf_r+0x986>
   11d4a:	6c00106f          	j	1340a <_vfprintf_r+0x2042>
   11d4e:	fd088793          	addi	a5,a7,-48
   11d52:	4625                	li	a2,9
   11d54:	4a81                	li	s5,0
   11d56:	02f66063          	bltu	a2,a5,11d76 <_vfprintf_r+0x9ae>
   11d5a:	002a9713          	slli	a4,s5,0x2
   11d5e:	0006c883          	lbu	a7,0(a3)
   11d62:	9aba                	add	s5,s5,a4
   11d64:	0a86                	slli	s5,s5,0x1
   11d66:	9abe                	add	s5,s5,a5
   11d68:	fd088793          	addi	a5,a7,-48
   11d6c:	0685                	addi	a3,a3,1
   11d6e:	fef676e3          	bgeu	a2,a5,11d5a <_vfprintf_r+0x992>
   11d72:	020acce3          	bltz	s5,125aa <_vfprintf_r+0x11e2>
   11d76:	8d36                	mv	s10,a3
   11d78:	f86ff06f          	j	114fe <_vfprintf_r+0x136>
   11d7c:	854a                	mv	a0,s2
   11d7e:	174020ef          	jal	13ef2 <_localeconv_r>
   11d82:	415c                	lw	a5,4(a0)
   11d84:	853e                	mv	a0,a5
   11d86:	de3e                	sw	a5,60(sp)
   11d88:	60a020ef          	jal	14392 <strlen>
   11d8c:	84aa                	mv	s1,a0
   11d8e:	854a                	mv	a0,s2
   11d90:	c2a6                	sw	s1,68(sp)
   11d92:	160020ef          	jal	13ef2 <_localeconv_r>
   11d96:	4518                	lw	a4,8(a0)
   11d98:	000d4883          	lbu	a7,0(s10)
   11d9c:	d63a                	sw	a4,44(sp)
   11d9e:	f4048f63          	beqz	s1,114fc <_vfprintf_r+0x134>
   11da2:	f4070d63          	beqz	a4,114fc <_vfprintf_r+0x134>
   11da6:	00074783          	lbu	a5,0(a4)
   11daa:	f4078963          	beqz	a5,114fc <_vfprintf_r+0x134>
   11dae:	400beb93          	ori	s7,s7,1024
   11db2:	f4aff06f          	j	114fc <_vfprintf_r+0x134>
   11db6:	000d4883          	lbu	a7,0(s10)
   11dba:	001beb93          	ori	s7,s7,1
   11dbe:	f3eff06f          	j	114fc <_vfprintf_r+0x134>
   11dc2:	09314783          	lbu	a5,147(sp)
   11dc6:	000d4883          	lbu	a7,0(s10)
   11dca:	f2079963          	bnez	a5,114fc <_vfprintf_r+0x134>
   11dce:	02000793          	li	a5,32
   11dd2:	08f109a3          	sb	a5,147(sp)
   11dd6:	f26ff06f          	j	114fc <_vfprintf_r+0x134>
   11dda:	020bf793          	andi	a5,s7,32
   11dde:	010be693          	ori	a3,s7,16
   11de2:	6e078463          	beqz	a5,124ca <_vfprintf_r+0x1102>
   11de6:	47c2                	lw	a5,16(sp)
   11de8:	079d                	addi	a5,a5,7
   11dea:	9be1                	andi	a5,a5,-8
   11dec:	00878713          	addi	a4,a5,8
   11df0:	c83a                	sw	a4,16(sp)
   11df2:	43d0                	lw	a2,4(a5)
   11df4:	4398                	lw	a4,0(a5)
   11df6:	080109a3          	sb	zero,147(sp)
   11dfa:	bff6fb93          	andi	s7,a3,-1025
   11dfe:	440acc63          	bltz	s5,12256 <_vfprintf_r+0xe8e>
   11e02:	00c767b3          	or	a5,a4,a2
   11e06:	b7f6fb93          	andi	s7,a3,-1153
   11e0a:	44079663          	bnez	a5,12256 <_vfprintf_r+0xe8e>
   11e0e:	440a9463          	bnez	s5,12256 <_vfprintf_r+0xe8e>
   11e12:	0016fc13          	andi	s8,a3,1
   11e16:	5e0c0763          	beqz	s8,12404 <_vfprintf_r+0x103c>
   11e1a:	03000793          	li	a5,48
   11e1e:	16f10fa3          	sb	a5,383(sp)
   11e22:	8ce2                	mv	s9,s8
   11e24:	c602                	sw	zero,12(sp)
   11e26:	d002                	sw	zero,32(sp)
   11e28:	ce02                	sw	zero,28(sp)
   11e2a:	4301                	li	t1,0
   11e2c:	17f10793          	addi	a5,sp,383
   11e30:	f2cff06f          	j	1155c <_vfprintf_r+0x194>
   11e34:	000d4883          	lbu	a7,0(s10)
   11e38:	06800793          	li	a5,104
   11e3c:	78f88d63          	beq	a7,a5,125d6 <_vfprintf_r+0x120e>
   11e40:	040beb93          	ori	s7,s7,64
   11e44:	eb8ff06f          	j	114fc <_vfprintf_r+0x134>
   11e48:	46c2                	lw	a3,16(sp)
   11e4a:	020bf793          	andi	a5,s7,32
   11e4e:	00468713          	addi	a4,a3,4
   11e52:	68079363          	bnez	a5,124d8 <_vfprintf_r+0x1110>
   11e56:	010bf793          	andi	a5,s7,16
   11e5a:	26079fe3          	bnez	a5,128d8 <_vfprintf_r+0x1510>
   11e5e:	040bf793          	andi	a5,s7,64
   11e62:	5a079be3          	bnez	a5,12c18 <_vfprintf_r+0x1850>
   11e66:	200bfe13          	andi	t3,s7,512
   11e6a:	260e07e3          	beqz	t3,128d8 <_vfprintf_r+0x1510>
   11e6e:	47c2                	lw	a5,16(sp)
   11e70:	46a2                	lw	a3,8(sp)
   11e72:	c83a                	sw	a4,16(sp)
   11e74:	439c                	lw	a5,0(a5)
   11e76:	00d78023          	sb	a3,0(a5)
   11e7a:	e1aff06f          	j	11494 <_vfprintf_r+0xcc>
   11e7e:	000d4883          	lbu	a7,0(s10)
   11e82:	06c00793          	li	a5,108
   11e86:	74f88163          	beq	a7,a5,125c8 <_vfprintf_r+0x1200>
   11e8a:	010beb93          	ori	s7,s7,16
   11e8e:	e6eff06f          	j	114fc <_vfprintf_r+0x134>
   11e92:	020bf793          	andi	a5,s7,32
   11e96:	1a079f63          	bnez	a5,12054 <_vfprintf_r+0xc8c>
   11e9a:	010bf793          	andi	a5,s7,16
   11e9e:	c399                	beqz	a5,11ea4 <_vfprintf_r+0xadc>
   11ea0:	2e80106f          	j	13188 <_vfprintf_r+0x1dc0>
   11ea4:	4742                	lw	a4,16(sp)
   11ea6:	040bf793          	andi	a5,s7,64
   11eaa:	00072c03          	lw	s8,0(a4)
   11eae:	0711                	addi	a4,a4,4
   11eb0:	c83a                	sw	a4,16(sp)
   11eb2:	28078ee3          	beqz	a5,1294e <_vfprintf_r+0x1586>
   11eb6:	0c42                	slli	s8,s8,0x10
   11eb8:	080109a3          	sb	zero,147(sp)
   11ebc:	010c5c13          	srli	s8,s8,0x10
   11ec0:	4e81                	li	t4,0
   11ec2:	e00ac5e3          	bltz	s5,11ccc <_vfprintf_r+0x904>
   11ec6:	018ae333          	or	t1,s5,s8
   11eca:	f7fbfb93          	andi	s7,s7,-129
   11ece:	10030c63          	beqz	t1,11fe6 <_vfprintf_r+0xc1e>
   11ed2:	de0e8fe3          	beqz	t4,11cd0 <_vfprintf_r+0x908>
   11ed6:	ccccdcb7          	lui	s9,0xccccd
   11eda:	ccccddb7          	lui	s11,0xccccd
   11ede:	ccdc8c93          	addi	s9,s9,-819 # cccccccd <__BSS_END__+0xcccb0119>
   11ee2:	cccd8d93          	addi	s11,s11,-820 # cccccccc <__BSS_END__+0xcccb0118>
   11ee6:	400bf813          	andi	a6,s7,1024
   11eea:	4581                	li	a1,0
   11eec:	0310                	addi	a2,sp,384
   11eee:	84c6                	mv	s1,a7
   11ef0:	a095                	j	11f54 <_vfprintf_r+0xb8c>
   11ef2:	5732                	lw	a4,44(sp)
   11ef4:	00074703          	lbu	a4,0(a4)
   11ef8:	f0170693          	addi	a3,a4,-255
   11efc:	c299                	beqz	a3,11f02 <_vfprintf_r+0xb3a>
   11efe:	14b705e3          	beq	a4,a1,12848 <_vfprintf_r+0x1480>
   11f02:	8362                	mv	t1,s8
   11f04:	8576                	mv	a0,t4
   11f06:	863e                	mv	a2,a5
   11f08:	01dc0733          	add	a4,s8,t4
   11f0c:	018736b3          	sltu	a3,a4,s8
   11f10:	9736                	add	a4,a4,a3
   11f12:	039736b3          	mulhu	a3,a4,s9
   11f16:	0026de13          	srli	t3,a3,0x2
   11f1a:	9af1                	andi	a3,a3,-4
   11f1c:	96f2                	add	a3,a3,t3
   11f1e:	8f15                	sub	a4,a4,a3
   11f20:	40ec0733          	sub	a4,s8,a4
   11f24:	00ec36b3          	sltu	a3,s8,a4
   11f28:	40de86b3          	sub	a3,t4,a3
   11f2c:	039686b3          	mul	a3,a3,s9
   11f30:	03b70eb3          	mul	t4,a4,s11
   11f34:	03973e33          	mulhu	t3,a4,s9
   11f38:	96f6                	add	a3,a3,t4
   11f3a:	03970733          	mul	a4,a4,s9
   11f3e:	96f2                	add	a3,a3,t3
   11f40:	01f69e13          	slli	t3,a3,0x1f
   11f44:	0016de93          	srli	t4,a3,0x1
   11f48:	8305                	srli	a4,a4,0x1
   11f4a:	00ee0c33          	add	s8,t3,a4
   11f4e:	e119                	bnez	a0,11f54 <_vfprintf_r+0xb8c>
   11f50:	1d20106f          	j	13122 <_vfprintf_r+0x1d5a>
   11f54:	01dc0733          	add	a4,s8,t4
   11f58:	018736b3          	sltu	a3,a4,s8
   11f5c:	96ba                	add	a3,a3,a4
   11f5e:	0396b533          	mulhu	a0,a3,s9
   11f62:	0585                	addi	a1,a1,1
   11f64:	fff60793          	addi	a5,a2,-1
   11f68:	00255313          	srli	t1,a0,0x2
   11f6c:	9971                	andi	a0,a0,-4
   11f6e:	951a                	add	a0,a0,t1
   11f70:	8e89                	sub	a3,a3,a0
   11f72:	40dc06b3          	sub	a3,s8,a3
   11f76:	00dc3533          	sltu	a0,s8,a3
   11f7a:	40ae8533          	sub	a0,t4,a0
   11f7e:	0396b333          	mulhu	t1,a3,s9
   11f82:	03950533          	mul	a0,a0,s9
   11f86:	039686b3          	mul	a3,a3,s9
   11f8a:	951a                	add	a0,a0,t1
   11f8c:	057e                	slli	a0,a0,0x1f
   11f8e:	8285                	srli	a3,a3,0x1
   11f90:	96aa                	add	a3,a3,a0
   11f92:	00269513          	slli	a0,a3,0x2
   11f96:	96aa                	add	a3,a3,a0
   11f98:	0686                	slli	a3,a3,0x1
   11f9a:	40dc06b3          	sub	a3,s8,a3
   11f9e:	03068693          	addi	a3,a3,48
   11fa2:	fed60fa3          	sb	a3,-1(a2)
   11fa6:	f40816e3          	bnez	a6,11ef2 <_vfprintf_r+0xb2a>
   11faa:	8362                	mv	t1,s8
   11fac:	8576                	mv	a0,t4
   11fae:	863e                	mv	a2,a5
   11fb0:	bfb1                	j	11f0c <_vfprintf_r+0xb44>
   11fb2:	4742                	lw	a4,16(sp)
   11fb4:	67a1                	lui	a5,0x8
   11fb6:	83078793          	addi	a5,a5,-2000 # 7830 <exit-0x8884>
   11fba:	08f11a23          	sh	a5,148(sp)
   11fbe:	080109a3          	sb	zero,147(sp)
   11fc2:	00470793          	addi	a5,a4,4
   11fc6:	4601                	li	a2,0
   11fc8:	4318                	lw	a4,0(a4)
   11fca:	580ac463          	bltz	s5,12552 <_vfprintf_r+0x118a>
   11fce:	f7fbfe13          	andi	t3,s7,-129
   11fd2:	002e6b93          	ori	s7,t3,2
   11fd6:	100718e3          	bnez	a4,128e6 <_vfprintf_r+0x151e>
   11fda:	100a96e3          	bnez	s5,128e6 <_vfprintf_r+0x151e>
   11fde:	c83e                	sw	a5,16(sp)
   11fe0:	4309                	li	t1,2
   11fe2:	07800893          	li	a7,120
   11fe6:	09314e83          	lbu	t4,147(sp)
   11fea:	4a81                	li	s5,0
   11fec:	4c01                	li	s8,0
   11fee:	4c81                	li	s9,0
   11ff0:	031c                	addi	a5,sp,384
   11ff2:	c602                	sw	zero,12(sp)
   11ff4:	b9fd                	j	11cf2 <_vfprintf_r+0x92a>
   11ff6:	020bf793          	andi	a5,s7,32
   11ffa:	54079163          	bnez	a5,1253c <_vfprintf_r+0x1174>
   11ffe:	47c2                	lw	a5,16(sp)
   12000:	010bf713          	andi	a4,s7,16
   12004:	0791                	addi	a5,a5,4
   12006:	c319                	beqz	a4,1200c <_vfprintf_r+0xc44>
   12008:	1720106f          	j	1317a <_vfprintf_r+0x1db2>
   1200c:	4742                	lw	a4,16(sp)
   1200e:	040bf693          	andi	a3,s7,64
   12012:	4318                	lw	a4,0(a4)
   12014:	120682e3          	beqz	a3,12938 <_vfprintf_r+0x1570>
   12018:	0742                	slli	a4,a4,0x10
   1201a:	8341                	srli	a4,a4,0x10
   1201c:	c83e                	sw	a5,16(sp)
   1201e:	86de                	mv	a3,s7
   12020:	4601                	li	a2,0
   12022:	bbd1                	j	11df6 <_vfprintf_r+0xa2e>
   12024:	020bf793          	andi	a5,s7,32
   12028:	010bee13          	ori	t3,s7,16
   1202c:	e78d                	bnez	a5,12056 <_vfprintf_r+0xc8e>
   1202e:	4742                	lw	a4,16(sp)
   12030:	080109a3          	sb	zero,147(sp)
   12034:	4e81                	li	t4,0
   12036:	00072c03          	lw	s8,0(a4)
   1203a:	00470793          	addi	a5,a4,4
   1203e:	1a0acfe3          	bltz	s5,129fc <_vfprintf_r+0x1634>
   12042:	c83e                	sw	a5,16(sp)
   12044:	f7fe7b93          	andi	s7,t3,-129
   12048:	c80c14e3          	bnez	s8,11cd0 <_vfprintf_r+0x908>
   1204c:	c80a92e3          	bnez	s5,11cd0 <_vfprintf_r+0x908>
   12050:	4301                	li	t1,0
   12052:	bf51                	j	11fe6 <_vfprintf_r+0xc1e>
   12054:	8e5e                	mv	t3,s7
   12056:	47c2                	lw	a5,16(sp)
   12058:	080109a3          	sb	zero,147(sp)
   1205c:	079d                	addi	a5,a5,7
   1205e:	9be1                	andi	a5,a5,-8
   12060:	00878713          	addi	a4,a5,8
   12064:	c83a                	sw	a4,16(sp)
   12066:	0007ac03          	lw	s8,0(a5)
   1206a:	0047ae83          	lw	t4,4(a5)
   1206e:	520acb63          	bltz	s5,125a4 <_vfprintf_r+0x11dc>
   12072:	f7fe7b93          	andi	s7,t3,-129
   12076:	c40a9be3          	bnez	s5,11ccc <_vfprintf_r+0x904>
   1207a:	01dc67b3          	or	a5,s8,t4
   1207e:	c40797e3          	bnez	a5,11ccc <_vfprintf_r+0x904>
   12082:	4301                	li	t1,0
   12084:	b78d                	j	11fe6 <_vfprintf_r+0xc1e>
   12086:	000d4883          	lbu	a7,0(s10)
   1208a:	008beb93          	ori	s7,s7,8
   1208e:	c6eff06f          	j	114fc <_vfprintf_r+0x134>
   12092:	4712                	lw	a4,4(sp)
   12094:	41870db3          	sub	s11,a4,s8
   12098:	d3b05063          	blez	s11,115b8 <_vfprintf_r+0x1f0>
   1209c:	4ec1                	li	t4,16
   1209e:	55ea                	lw	a1,184(sp)
   120a0:	686d                	lui	a6,0x1b
   120a2:	01bec463          	blt	t4,s11,120aa <_vfprintf_r+0xce2>
   120a6:	16e0106f          	j	13214 <_vfprintf_r+0x1e4c>
   120aa:	84ee                	mv	s1,s11
   120ac:	da3e                	sw	a5,52(sp)
   120ae:	8dea                	mv	s11,s10
   120b0:	87da                	mv	a5,s6
   120b2:	429d                	li	t0,7
   120b4:	8b56                	mv	s6,s5
   120b6:	d846                	sw	a7,48(sp)
   120b8:	8d1a                	mv	s10,t1
   120ba:	c3880a93          	addi	s5,a6,-968 # 1ac38 <zeroes.0>
   120be:	a021                	j	120c6 <_vfprintf_r+0xcfe>
   120c0:	14c1                	addi	s1,s1,-16
   120c2:	029edb63          	bge	t4,s1,120f8 <_vfprintf_r+0xd30>
   120c6:	0641                	addi	a2,a2,16
   120c8:	0585                	addi	a1,a1,1
   120ca:	0157a023          	sw	s5,0(a5)
   120ce:	01d7a223          	sw	t4,4(a5)
   120d2:	df32                	sw	a2,188(sp)
   120d4:	dd2e                	sw	a1,184(sp)
   120d6:	07a1                	addi	a5,a5,8
   120d8:	feb2d4e3          	bge	t0,a1,120c0 <_vfprintf_r+0xcf8>
   120dc:	4582                	lw	a1,0(sp)
   120de:	1950                	addi	a2,sp,180
   120e0:	854a                	mv	a0,s2
   120e2:	484010ef          	jal	13566 <__sprint_r>
   120e6:	e525                	bnez	a0,1214e <_vfprintf_r+0xd86>
   120e8:	4ec1                	li	t4,16
   120ea:	14c1                	addi	s1,s1,-16
   120ec:	567a                	lw	a2,188(sp)
   120ee:	55ea                	lw	a1,184(sp)
   120f0:	87ce                	mv	a5,s3
   120f2:	429d                	li	t0,7
   120f4:	fc9ec9e3          	blt	t4,s1,120c6 <_vfprintf_r+0xcfe>
   120f8:	8856                	mv	a6,s5
   120fa:	58c2                	lw	a7,48(sp)
   120fc:	8ada                	mv	s5,s6
   120fe:	8b3e                	mv	s6,a5
   12100:	57d2                	lw	a5,52(sp)
   12102:	836a                	mv	t1,s10
   12104:	8d6e                	mv	s10,s11
   12106:	8da6                	mv	s11,s1
   12108:	966e                	add	a2,a2,s11
   1210a:	0585                	addi	a1,a1,1
   1210c:	010b2023          	sw	a6,0(s6)
   12110:	01bb2223          	sw	s11,4(s6)
   12114:	df32                	sw	a2,188(sp)
   12116:	dd2e                	sw	a1,184(sp)
   12118:	471d                	li	a4,7
   1211a:	0b21                	addi	s6,s6,8
   1211c:	c8b75e63          	bge	a4,a1,115b8 <_vfprintf_r+0x1f0>
   12120:	4582                	lw	a1,0(sp)
   12122:	1950                	addi	a2,sp,180
   12124:	854a                	mv	a0,s2
   12126:	c09a                	sw	t1,64(sp)
   12128:	da3e                	sw	a5,52(sp)
   1212a:	d846                	sw	a7,48(sp)
   1212c:	43a010ef          	jal	13566 <__sprint_r>
   12130:	ed19                	bnez	a0,1214e <_vfprintf_r+0xd86>
   12132:	567a                	lw	a2,188(sp)
   12134:	58c2                	lw	a7,48(sp)
   12136:	57d2                	lw	a5,52(sp)
   12138:	4306                	lw	t1,64(sp)
   1213a:	8b4e                	mv	s6,s3
   1213c:	c7cff06f          	j	115b8 <_vfprintf_r+0x1f0>
   12140:	4582                	lw	a1,0(sp)
   12142:	1950                	addi	a2,sp,180
   12144:	854a                	mv	a0,s2
   12146:	420010ef          	jal	13566 <__sprint_r>
   1214a:	ca050e63          	beqz	a0,11606 <_vfprintf_r+0x23e>
   1214e:	45b2                	lw	a1,12(sp)
   12150:	4482                	lw	s1,0(sp)
   12152:	c581                	beqz	a1,1215a <_vfprintf_r+0xd92>
   12154:	854a                	mv	a0,s2
   12156:	a4bfe0ef          	jal	10ba0 <_free_r>
   1215a:	00c4d783          	lhu	a5,12(s1)
   1215e:	1b812403          	lw	s0,440(sp)
   12162:	1ac12983          	lw	s3,428(sp)
   12166:	0407f793          	andi	a5,a5,64
   1216a:	1a812a03          	lw	s4,424(sp)
   1216e:	1a412a83          	lw	s5,420(sp)
   12172:	1a012b03          	lw	s6,416(sp)
   12176:	19c12b83          	lw	s7,412(sp)
   1217a:	19812c03          	lw	s8,408(sp)
   1217e:	19412c83          	lw	s9,404(sp)
   12182:	18c12d83          	lw	s11,396(sp)
   12186:	c399                	beqz	a5,1218c <_vfprintf_r+0xdc4>
   12188:	7930006f          	j	1311a <_vfprintf_r+0x1d52>
   1218c:	1bc12083          	lw	ra,444(sp)
   12190:	4522                	lw	a0,8(sp)
   12192:	1b412483          	lw	s1,436(sp)
   12196:	1b012903          	lw	s2,432(sp)
   1219a:	19012d03          	lw	s10,400(sp)
   1219e:	6139                	addi	sp,sp,448
   121a0:	8082                	ret
   121a2:	4712                	lw	a4,4(sp)
   121a4:	d002                	sw	zero,32(sp)
   121a6:	ce02                	sw	zero,28(sp)
   121a8:	41870733          	sub	a4,a4,s8
   121ac:	4301                	li	t1,0
   121ae:	1ce04063          	bgtz	a4,1236e <_vfprintf_r+0xfa6>
   121b2:	be0e8163          	beqz	t4,11594 <_vfprintf_r+0x1cc>
   121b6:	4709                	li	a4,2
   121b8:	bbaff06f          	j	11572 <_vfprintf_r+0x1aa>
   121bc:	4582                	lw	a1,0(sp)
   121be:	1950                	addi	a2,sp,180
   121c0:	854a                	mv	a0,s2
   121c2:	c09a                	sw	t1,64(sp)
   121c4:	da3e                	sw	a5,52(sp)
   121c6:	d846                	sw	a7,48(sp)
   121c8:	39e010ef          	jal	13566 <__sprint_r>
   121cc:	f149                	bnez	a0,1214e <_vfprintf_r+0xd86>
   121ce:	567a                	lw	a2,188(sp)
   121d0:	4306                	lw	t1,64(sp)
   121d2:	57d2                	lw	a5,52(sp)
   121d4:	58c2                	lw	a7,48(sp)
   121d6:	8b4e                	mv	s6,s3
   121d8:	bd8ff06f          	j	115b0 <_vfprintf_r+0x1e8>
   121dc:	4cc1                	li	s9,16
   121de:	57ea                	lw	a5,184(sp)
   121e0:	686d                	lui	a6,0x1b
   121e2:	015cc463          	blt	s9,s5,121ea <_vfprintf_r+0xe22>
   121e6:	79b0006f          	j	13180 <_vfprintf_r+0x1db8>
   121ea:	4482                	lw	s1,0(sp)
   121ec:	4d9d                	li	s11,7
   121ee:	c4880b93          	addi	s7,a6,-952 # 1ac48 <blanks.1>
   121f2:	a021                	j	121fa <_vfprintf_r+0xe32>
   121f4:	1ac1                	addi	s5,s5,-16
   121f6:	035cda63          	bge	s9,s5,1222a <_vfprintf_r+0xe62>
   121fa:	0641                	addi	a2,a2,16
   121fc:	0785                	addi	a5,a5,1
   121fe:	017b2023          	sw	s7,0(s6)
   12202:	019b2223          	sw	s9,4(s6)
   12206:	df32                	sw	a2,188(sp)
   12208:	dd3e                	sw	a5,184(sp)
   1220a:	0b21                	addi	s6,s6,8
   1220c:	fefdd4e3          	bge	s11,a5,121f4 <_vfprintf_r+0xe2c>
   12210:	1950                	addi	a2,sp,180
   12212:	85a6                	mv	a1,s1
   12214:	854a                	mv	a0,s2
   12216:	350010ef          	jal	13566 <__sprint_r>
   1221a:	62051563          	bnez	a0,12844 <_vfprintf_r+0x147c>
   1221e:	1ac1                	addi	s5,s5,-16
   12220:	567a                	lw	a2,188(sp)
   12222:	57ea                	lw	a5,184(sp)
   12224:	8b4e                	mv	s6,s3
   12226:	fd5ccae3          	blt	s9,s5,121fa <_vfprintf_r+0xe32>
   1222a:	885e                	mv	a6,s7
   1222c:	9656                	add	a2,a2,s5
   1222e:	0785                	addi	a5,a5,1
   12230:	df32                	sw	a2,188(sp)
   12232:	dd3e                	sw	a5,184(sp)
   12234:	010b2023          	sw	a6,0(s6)
   12238:	015b2223          	sw	s5,4(s6)
   1223c:	471d                	li	a4,7
   1223e:	baf75b63          	bge	a4,a5,115f4 <_vfprintf_r+0x22c>
   12242:	4582                	lw	a1,0(sp)
   12244:	1950                	addi	a2,sp,180
   12246:	854a                	mv	a0,s2
   12248:	31e010ef          	jal	13566 <__sprint_r>
   1224c:	f00511e3          	bnez	a0,1214e <_vfprintf_r+0xd86>
   12250:	567a                	lw	a2,188(sp)
   12252:	ba2ff06f          	j	115f4 <_vfprintf_r+0x22c>
   12256:	031c                	addi	a5,sp,384
   12258:	01d61593          	slli	a1,a2,0x1d
   1225c:	00777693          	andi	a3,a4,7
   12260:	830d                	srli	a4,a4,0x3
   12262:	853e                	mv	a0,a5
   12264:	972e                	add	a4,a4,a1
   12266:	03068693          	addi	a3,a3,48
   1226a:	820d                	srli	a2,a2,0x3
   1226c:	00c765b3          	or	a1,a4,a2
   12270:	fed78fa3          	sb	a3,-1(a5)
   12274:	17fd                	addi	a5,a5,-1
   12276:	f1ed                	bnez	a1,12258 <_vfprintf_r+0xe90>
   12278:	fd068693          	addi	a3,a3,-48
   1227c:	c689                	beqz	a3,12286 <_vfprintf_r+0xebe>
   1227e:	001bf713          	andi	a4,s7,1
   12282:	26071463          	bnez	a4,124ea <_vfprintf_r+0x1122>
   12286:	0318                	addi	a4,sp,384
   12288:	40f70cb3          	sub	s9,a4,a5
   1228c:	8c56                	mv	s8,s5
   1228e:	239ac763          	blt	s5,s9,124bc <_vfprintf_r+0x10f4>
   12292:	c602                	sw	zero,12(sp)
   12294:	d002                	sw	zero,32(sp)
   12296:	ce02                	sw	zero,28(sp)
   12298:	4301                	li	t1,0
   1229a:	ac2ff06f          	j	1155c <_vfprintf_r+0x194>
   1229e:	456a                	lw	a0,152(sp)
   122a0:	4ea05a63          	blez	a0,12794 <_vfprintf_r+0x13cc>
   122a4:	4762                	lw	a4,24(sp)
   122a6:	8a9a                	mv	s5,t1
   122a8:	2e674a63          	blt	a4,t1,1259c <_vfprintf_r+0x11d4>
   122ac:	01505f63          	blez	s5,122ca <_vfprintf_r+0xf02>
   122b0:	576a                	lw	a4,184(sp)
   122b2:	9656                	add	a2,a2,s5
   122b4:	00fb2023          	sw	a5,0(s6)
   122b8:	0705                	addi	a4,a4,1
   122ba:	015b2223          	sw	s5,4(s6)
   122be:	df32                	sw	a2,188(sp)
   122c0:	dd3a                	sw	a4,184(sp)
   122c2:	459d                	li	a1,7
   122c4:	0b21                	addi	s6,s6,8
   122c6:	0ce5cce3          	blt	a1,a4,12b9e <_vfprintf_r+0x17d6>
   122ca:	fffac713          	not	a4,s5
   122ce:	877d                	srai	a4,a4,0x1f
   122d0:	00eafab3          	and	s5,s5,a4
   122d4:	41530ab3          	sub	s5,t1,s5
   122d8:	37504e63          	bgtz	s5,12654 <_vfprintf_r+0x128c>
   122dc:	400bf713          	andi	a4,s7,1024
   122e0:	00678db3          	add	s11,a5,t1
   122e4:	72071763          	bnez	a4,12a12 <_vfprintf_r+0x164a>
   122e8:	4aea                	lw	s5,152(sp)
   122ea:	46e2                	lw	a3,24(sp)
   122ec:	00dac663          	blt	s5,a3,122f8 <_vfprintf_r+0xf30>
   122f0:	001bf713          	andi	a4,s7,1
   122f4:	100705e3          	beqz	a4,12bfe <_vfprintf_r+0x1836>
   122f8:	576a                	lw	a4,184(sp)
   122fa:	5692                	lw	a3,36(sp)
   122fc:	55a2                	lw	a1,40(sp)
   122fe:	0705                	addi	a4,a4,1
   12300:	9636                	add	a2,a2,a3
   12302:	00bb2023          	sw	a1,0(s6)
   12306:	00db2223          	sw	a3,4(s6)
   1230a:	df32                	sw	a2,188(sp)
   1230c:	dd3a                	sw	a4,184(sp)
   1230e:	459d                	li	a1,7
   12310:	0b21                	addi	s6,s6,8
   12312:	54e5cce3          	blt	a1,a4,1306a <_vfprintf_r+0x1ca2>
   12316:	4762                	lw	a4,24(sp)
   12318:	97ba                	add	a5,a5,a4
   1231a:	41b78cb3          	sub	s9,a5,s11
   1231e:	41570ab3          	sub	s5,a4,s5
   12322:	019ad363          	bge	s5,s9,12328 <_vfprintf_r+0xf60>
   12326:	8cd6                	mv	s9,s5
   12328:	01905f63          	blez	s9,12346 <_vfprintf_r+0xf7e>
   1232c:	576a                	lw	a4,184(sp)
   1232e:	9666                	add	a2,a2,s9
   12330:	01bb2023          	sw	s11,0(s6)
   12334:	0705                	addi	a4,a4,1
   12336:	019b2223          	sw	s9,4(s6)
   1233a:	df32                	sw	a2,188(sp)
   1233c:	dd3a                	sw	a4,184(sp)
   1233e:	479d                	li	a5,7
   12340:	0b21                	addi	s6,s6,8
   12342:	60e7c7e3          	blt	a5,a4,13150 <_vfprintf_r+0x1d88>
   12346:	fffcc713          	not	a4,s9
   1234a:	877d                	srai	a4,a4,0x1f
   1234c:	00ecf7b3          	and	a5,s9,a4
   12350:	40fa8ab3          	sub	s5,s5,a5
   12354:	a9505763          	blez	s5,115e2 <_vfprintf_r+0x21a>
   12358:	686d                	lui	a6,0x1b
   1235a:	4cc1                	li	s9,16
   1235c:	57ea                	lw	a5,184(sp)
   1235e:	4d9d                	li	s11,7
   12360:	c3880493          	addi	s1,a6,-968 # 1ac38 <zeroes.0>
   12364:	355ccb63          	blt	s9,s5,126ba <_vfprintf_r+0x12f2>
   12368:	c3880813          	addi	a6,a6,-968
   1236c:	a319                	j	12872 <_vfprintf_r+0x14aa>
   1236e:	4d89                	li	s11,2
   12370:	4ec1                	li	t4,16
   12372:	8642                	mv	a2,a6
   12374:	85aa                	mv	a1,a0
   12376:	686d                	lui	a6,0x1b
   12378:	5ceed8e3          	bge	t4,a4,13148 <_vfprintf_r+0x1d80>
   1237c:	da3e                	sw	a5,52(sp)
   1237e:	c0d6                	sw	s5,64(sp)
   12380:	87da                	mv	a5,s6
   12382:	439d                	li	t2,7
   12384:	84ba                	mv	s1,a4
   12386:	d846                	sw	a7,48(sp)
   12388:	8b1a                	mv	s6,t1
   1238a:	c4880a93          	addi	s5,a6,-952 # 1ac48 <blanks.1>
   1238e:	a021                	j	12396 <_vfprintf_r+0xfce>
   12390:	14c1                	addi	s1,s1,-16
   12392:	029edc63          	bge	t4,s1,123ca <_vfprintf_r+0x1002>
   12396:	0641                	addi	a2,a2,16
   12398:	0585                	addi	a1,a1,1
   1239a:	0157a023          	sw	s5,0(a5)
   1239e:	01d7a223          	sw	t4,4(a5)
   123a2:	df32                	sw	a2,188(sp)
   123a4:	dd2e                	sw	a1,184(sp)
   123a6:	07a1                	addi	a5,a5,8
   123a8:	feb3d4e3          	bge	t2,a1,12390 <_vfprintf_r+0xfc8>
   123ac:	4582                	lw	a1,0(sp)
   123ae:	1950                	addi	a2,sp,180
   123b0:	854a                	mv	a0,s2
   123b2:	1b4010ef          	jal	13566 <__sprint_r>
   123b6:	d8051ce3          	bnez	a0,1214e <_vfprintf_r+0xd86>
   123ba:	4ec1                	li	t4,16
   123bc:	14c1                	addi	s1,s1,-16
   123be:	567a                	lw	a2,188(sp)
   123c0:	55ea                	lw	a1,184(sp)
   123c2:	87ce                	mv	a5,s3
   123c4:	439d                	li	t2,7
   123c6:	fc9ec8e3          	blt	t4,s1,12396 <_vfprintf_r+0xfce>
   123ca:	835a                	mv	t1,s6
   123cc:	8856                	mv	a6,s5
   123ce:	8b3e                	mv	s6,a5
   123d0:	58c2                	lw	a7,48(sp)
   123d2:	57d2                	lw	a5,52(sp)
   123d4:	4a86                	lw	s5,64(sp)
   123d6:	8726                	mv	a4,s1
   123d8:	963a                	add	a2,a2,a4
   123da:	0585                	addi	a1,a1,1
   123dc:	00eb2223          	sw	a4,4(s6)
   123e0:	df32                	sw	a2,188(sp)
   123e2:	dd2e                	sw	a1,184(sp)
   123e4:	010b2023          	sw	a6,0(s6)
   123e8:	471d                	li	a4,7
   123ea:	36b74d63          	blt	a4,a1,12764 <_vfprintf_r+0x139c>
   123ee:	09314703          	lbu	a4,147(sp)
   123f2:	0b21                	addi	s6,s6,8
   123f4:	e361                	bnez	a4,124b4 <_vfprintf_r+0x10ec>
   123f6:	9c0d8163          	beqz	s11,115b8 <_vfprintf_r+0x1f0>
   123fa:	4d81                	li	s11,0
   123fc:	998ff06f          	j	11594 <_vfprintf_r+0x1cc>
   12400:	556a                	lw	a0,184(sp)
   12402:	b7bd                	j	12370 <_vfprintf_r+0xfa8>
   12404:	4c81                	li	s9,0
   12406:	4a81                	li	s5,0
   12408:	d002                	sw	zero,32(sp)
   1240a:	ce02                	sw	zero,28(sp)
   1240c:	4301                	li	t1,0
   1240e:	c602                	sw	zero,12(sp)
   12410:	031c                	addi	a5,sp,384
   12412:	94aff06f          	j	1155c <_vfprintf_r+0x194>
   12416:	00ebf5b3          	and	a1,s7,a4
   1241a:	d4059263          	bnez	a1,1195e <_vfprintf_r+0x596>
   1241e:	00fb2023          	sw	a5,0(s6)
   12422:	00eb2223          	sw	a4,4(s6)
   12426:	df32                	sw	a2,188(sp)
   12428:	dd56                	sw	s5,184(sp)
   1242a:	479d                	li	a5,7
   1242c:	db57d763          	bge	a5,s5,119da <_vfprintf_r+0x612>
   12430:	4582                	lw	a1,0(sp)
   12432:	1950                	addi	a2,sp,180
   12434:	854a                	mv	a0,s2
   12436:	130010ef          	jal	13566 <__sprint_r>
   1243a:	d0051ae3          	bnez	a0,1214e <_vfprintf_r+0xd86>
   1243e:	567a                	lw	a2,188(sp)
   12440:	5aea                	lw	s5,184(sp)
   12442:	8dce                	mv	s11,s3
   12444:	d96ff06f          	j	119da <_vfprintf_r+0x612>
   12448:	4762                	lw	a4,24(sp)
   1244a:	4785                	li	a5,1
   1244c:	d8e7d763          	bge	a5,a4,119da <_vfprintf_r+0x612>
   12450:	47c5                	li	a5,17
   12452:	686d                	lui	a6,0x1b
   12454:	00e7c463          	blt	a5,a4,1245c <_vfprintf_r+0x1094>
   12458:	7cd0006f          	j	13424 <_vfprintf_r+0x205c>
   1245c:	4cc1                	li	s9,16
   1245e:	479d                	li	a5,7
   12460:	c3880493          	addi	s1,a6,-968 # 1ac38 <zeroes.0>
   12464:	a021                	j	1246c <_vfprintf_r+0x10a4>
   12466:	1b41                	addi	s6,s6,-16
   12468:	4b6cdb63          	bge	s9,s6,1291e <_vfprintf_r+0x1556>
   1246c:	0641                	addi	a2,a2,16
   1246e:	0a85                	addi	s5,s5,1
   12470:	009da023          	sw	s1,0(s11)
   12474:	019da223          	sw	s9,4(s11)
   12478:	df32                	sw	a2,188(sp)
   1247a:	dd56                	sw	s5,184(sp)
   1247c:	0da1                	addi	s11,s11,8
   1247e:	ff57d4e3          	bge	a5,s5,12466 <_vfprintf_r+0x109e>
   12482:	4582                	lw	a1,0(sp)
   12484:	1950                	addi	a2,sp,180
   12486:	854a                	mv	a0,s2
   12488:	0de010ef          	jal	13566 <__sprint_r>
   1248c:	cc0511e3          	bnez	a0,1214e <_vfprintf_r+0xd86>
   12490:	567a                	lw	a2,188(sp)
   12492:	5aea                	lw	s5,184(sp)
   12494:	8dce                	mv	s11,s3
   12496:	479d                	li	a5,7
   12498:	b7f9                	j	12466 <_vfprintf_r+0x109e>
   1249a:	001bf793          	andi	a5,s7,1
   1249e:	94078263          	beqz	a5,115e2 <_vfprintf_r+0x21a>
   124a2:	edeff06f          	j	11b80 <_vfprintf_r+0x7b8>
   124a6:	00470793          	addi	a5,a4,4
   124aa:	000d4883          	lbu	a7,0(s10)
   124ae:	c83e                	sw	a5,16(sp)
   124b0:	84cff06f          	j	114fc <_vfprintf_r+0x134>
   124b4:	876e                	mv	a4,s11
   124b6:	4d81                	li	s11,0
   124b8:	8baff06f          	j	11572 <_vfprintf_r+0x1aa>
   124bc:	8c66                	mv	s8,s9
   124be:	c602                	sw	zero,12(sp)
   124c0:	d002                	sw	zero,32(sp)
   124c2:	ce02                	sw	zero,28(sp)
   124c4:	4301                	li	t1,0
   124c6:	896ff06f          	j	1155c <_vfprintf_r+0x194>
   124ca:	47c2                	lw	a5,16(sp)
   124cc:	0791                	addi	a5,a5,4
   124ce:	4742                	lw	a4,16(sp)
   124d0:	4601                	li	a2,0
   124d2:	c83e                	sw	a5,16(sp)
   124d4:	4318                	lw	a4,0(a4)
   124d6:	b205                	j	11df6 <_vfprintf_r+0xa2e>
   124d8:	4622                	lw	a2,8(sp)
   124da:	429c                	lw	a5,0(a3)
   124dc:	c83a                	sw	a4,16(sp)
   124de:	41f65693          	srai	a3,a2,0x1f
   124e2:	c390                	sw	a2,0(a5)
   124e4:	c3d4                	sw	a3,4(a5)
   124e6:	faffe06f          	j	11494 <_vfprintf_r+0xcc>
   124ea:	1579                	addi	a0,a0,-2
   124ec:	03000713          	li	a4,48
   124f0:	0314                	addi	a3,sp,384
   124f2:	40a68cb3          	sub	s9,a3,a0
   124f6:	fee78fa3          	sb	a4,-1(a5)
   124fa:	8c56                	mv	s8,s5
   124fc:	019ad363          	bge	s5,s9,12502 <_vfprintf_r+0x113a>
   12500:	8c66                	mv	s8,s9
   12502:	87aa                	mv	a5,a0
   12504:	c602                	sw	zero,12(sp)
   12506:	d002                	sw	zero,32(sp)
   12508:	ce02                	sw	zero,28(sp)
   1250a:	4301                	li	t1,0
   1250c:	850ff06f          	j	1155c <_vfprintf_r+0x194>
   12510:	47c2                	lw	a5,16(sp)
   12512:	0791                	addi	a5,a5,4
   12514:	4742                	lw	a4,16(sp)
   12516:	8bf2                	mv	s7,t3
   12518:	c83e                	sw	a5,16(sp)
   1251a:	00072c03          	lw	s8,0(a4)
   1251e:	41fc5e93          	srai	t4,s8,0x1f
   12522:	8776                	mv	a4,t4
   12524:	ef8ff06f          	j	11c1c <_vfprintf_r+0x854>
   12528:	4742                	lw	a4,16(sp)
   1252a:	431c                	lw	a5,0(a4)
   1252c:	0711                	addi	a4,a4,4
   1252e:	c83a                	sw	a4,16(sp)
   12530:	4390                	lw	a2,0(a5)
   12532:	43d4                	lw	a3,4(a5)
   12534:	4798                	lw	a4,8(a5)
   12536:	47dc                	lw	a5,12(a5)
   12538:	95eff06f          	j	11696 <_vfprintf_r+0x2ce>
   1253c:	86de                	mv	a3,s7
   1253e:	b065                	j	11de6 <_vfprintf_r+0xa1e>
   12540:	09314e83          	lbu	t4,147(sp)
   12544:	4c05                	li	s8,1
   12546:	4301                	li	t1,0
   12548:	4c85                	li	s9,1
   1254a:	17f10793          	addi	a5,sp,383
   1254e:	fa2ff06f          	j	11cf0 <_vfprintf_r+0x928>
   12552:	65ed                	lui	a1,0x1b
   12554:	002beb93          	ori	s7,s7,2
   12558:	c83e                	sw	a5,16(sp)
   1255a:	96458593          	addi	a1,a1,-1692 # 1a964 <__clzsi2+0x52>
   1255e:	4309                	li	t1,2
   12560:	4e81                	li	t4,0
   12562:	07800893          	li	a7,120
   12566:	031c                	addi	a5,sp,384
   12568:	00f77693          	andi	a3,a4,15
   1256c:	96ae                	add	a3,a3,a1
   1256e:	0006c683          	lbu	a3,0(a3)
   12572:	8311                	srli	a4,a4,0x4
   12574:	17fd                	addi	a5,a5,-1
   12576:	00d78023          	sb	a3,0(a5)
   1257a:	01c61693          	slli	a3,a2,0x1c
   1257e:	9736                	add	a4,a4,a3
   12580:	8211                	srli	a2,a2,0x4
   12582:	00c766b3          	or	a3,a4,a2
   12586:	f2ed                	bnez	a3,12568 <_vfprintf_r+0x11a0>
   12588:	0318                	addi	a4,sp,384
   1258a:	40f70cb3          	sub	s9,a4,a5
   1258e:	8c56                	mv	s8,s5
   12590:	f79ad063          	bge	s5,s9,11cf0 <_vfprintf_r+0x928>
   12594:	8c66                	mv	s8,s9
   12596:	c602                	sw	zero,12(sp)
   12598:	f5aff06f          	j	11cf2 <_vfprintf_r+0x92a>
   1259c:	8aba                	mv	s5,a4
   1259e:	d15049e3          	bgtz	s5,122b0 <_vfprintf_r+0xee8>
   125a2:	b325                	j	122ca <_vfprintf_r+0xf02>
   125a4:	8bf2                	mv	s7,t3
   125a6:	f26ff06f          	j	11ccc <_vfprintf_r+0x904>
   125aa:	5afd                	li	s5,-1
   125ac:	8d36                	mv	s10,a3
   125ae:	f51fe06f          	j	114fe <_vfprintf_r+0x136>
   125b2:	4582                	lw	a1,0(sp)
   125b4:	1950                	addi	a2,sp,180
   125b6:	854a                	mv	a0,s2
   125b8:	7af000ef          	jal	13566 <__sprint_r>
   125bc:	b80519e3          	bnez	a0,1214e <_vfprintf_r+0xd86>
   125c0:	567a                	lw	a2,188(sp)
   125c2:	8b4e                	mv	s6,s3
   125c4:	ddaff06f          	j	11b9e <_vfprintf_r+0x7d6>
   125c8:	001d4883          	lbu	a7,1(s10)
   125cc:	020beb93          	ori	s7,s7,32
   125d0:	0d05                	addi	s10,s10,1
   125d2:	f2bfe06f          	j	114fc <_vfprintf_r+0x134>
   125d6:	001d4883          	lbu	a7,1(s10)
   125da:	200beb93          	ori	s7,s7,512
   125de:	0d05                	addi	s10,s10,1
   125e0:	f1dfe06f          	j	114fc <_vfprintf_r+0x134>
   125e4:	65ed                	lui	a1,0x1b
   125e6:	97858593          	addi	a1,a1,-1672 # 1a978 <__clzsi2+0x66>
   125ea:	020bf793          	andi	a5,s7,32
   125ee:	10078663          	beqz	a5,126fa <_vfprintf_r+0x1332>
   125f2:	47c2                	lw	a5,16(sp)
   125f4:	079d                	addi	a5,a5,7
   125f6:	9be1                	andi	a5,a5,-8
   125f8:	00878713          	addi	a4,a5,8
   125fc:	c83a                	sw	a4,16(sp)
   125fe:	43d0                	lw	a2,4(a5)
   12600:	4398                	lw	a4,0(a5)
   12602:	001bf793          	andi	a5,s7,1
   12606:	00c766b3          	or	a3,a4,a2
   1260a:	c399                	beqz	a5,12610 <_vfprintf_r+0x1248>
   1260c:	1e069a63          	bnez	a3,12800 <_vfprintf_r+0x1438>
   12610:	080109a3          	sb	zero,147(sp)
   12614:	140ac363          	bltz	s5,1275a <_vfprintf_r+0x1392>
   12618:	b7fbfb93          	andi	s7,s7,-1153
   1261c:	4301                	li	t1,0
   1261e:	000a9463          	bnez	s5,12626 <_vfprintf_r+0x125e>
   12622:	9c0682e3          	beqz	a3,11fe6 <_vfprintf_r+0xc1e>
   12626:	09314e83          	lbu	t4,147(sp)
   1262a:	bf35                	j	12566 <_vfprintf_r+0x119e>
   1262c:	65ed                	lui	a1,0x1b
   1262e:	96458593          	addi	a1,a1,-1692 # 1a964 <__clzsi2+0x52>
   12632:	bf65                	j	125ea <_vfprintf_r+0x1222>
   12634:	4799                	li	a5,6
   12636:	8c56                	mv	s8,s5
   12638:	5757e163          	bltu	a5,s5,12b9a <_vfprintf_r+0x17d2>
   1263c:	67ed                	lui	a5,0x1b
   1263e:	c826                	sw	s1,16(sp)
   12640:	98c78793          	addi	a5,a5,-1652 # 1a98c <__clzsi2+0x7a>
   12644:	c602                	sw	zero,12(sp)
   12646:	8ce2                	mv	s9,s8
   12648:	4a81                	li	s5,0
   1264a:	d002                	sw	zero,32(sp)
   1264c:	ce02                	sw	zero,28(sp)
   1264e:	4301                	li	t1,0
   12650:	f0dfe06f          	j	1155c <_vfprintf_r+0x194>
   12654:	48c1                	li	a7,16
   12656:	576a                	lw	a4,184(sp)
   12658:	686d                	lui	a6,0x1b
   1265a:	6158d8e3          	bge	a7,s5,1346a <_vfprintf_r+0x20a2>
   1265e:	84d6                	mv	s1,s5
   12660:	4c9d                	li	s9,7
   12662:	8dbe                	mv	s11,a5
   12664:	d81a                	sw	t1,48(sp)
   12666:	c3880a93          	addi	s5,a6,-968 # 1ac38 <zeroes.0>
   1266a:	a021                	j	12672 <_vfprintf_r+0x12aa>
   1266c:	14c1                	addi	s1,s1,-16
   1266e:	4e98d763          	bge	a7,s1,12b5c <_vfprintf_r+0x1794>
   12672:	0641                	addi	a2,a2,16
   12674:	0705                	addi	a4,a4,1
   12676:	015b2023          	sw	s5,0(s6)
   1267a:	011b2223          	sw	a7,4(s6)
   1267e:	df32                	sw	a2,188(sp)
   12680:	dd3a                	sw	a4,184(sp)
   12682:	0b21                	addi	s6,s6,8
   12684:	feecd4e3          	bge	s9,a4,1266c <_vfprintf_r+0x12a4>
   12688:	4582                	lw	a1,0(sp)
   1268a:	1950                	addi	a2,sp,180
   1268c:	854a                	mv	a0,s2
   1268e:	6d9000ef          	jal	13566 <__sprint_r>
   12692:	aa051ee3          	bnez	a0,1214e <_vfprintf_r+0xd86>
   12696:	567a                	lw	a2,188(sp)
   12698:	576a                	lw	a4,184(sp)
   1269a:	8b4e                	mv	s6,s3
   1269c:	48c1                	li	a7,16
   1269e:	b7f9                	j	1266c <_vfprintf_r+0x12a4>
   126a0:	4582                	lw	a1,0(sp)
   126a2:	1950                	addi	a2,sp,180
   126a4:	854a                	mv	a0,s2
   126a6:	6c1000ef          	jal	13566 <__sprint_r>
   126aa:	aa0512e3          	bnez	a0,1214e <_vfprintf_r+0xd86>
   126ae:	567a                	lw	a2,188(sp)
   126b0:	57ea                	lw	a5,184(sp)
   126b2:	8b4e                	mv	s6,s3
   126b4:	1ac1                	addi	s5,s5,-16
   126b6:	1b5cdd63          	bge	s9,s5,12870 <_vfprintf_r+0x14a8>
   126ba:	0641                	addi	a2,a2,16
   126bc:	0785                	addi	a5,a5,1
   126be:	009b2023          	sw	s1,0(s6)
   126c2:	019b2223          	sw	s9,4(s6)
   126c6:	df32                	sw	a2,188(sp)
   126c8:	dd3e                	sw	a5,184(sp)
   126ca:	0b21                	addi	s6,s6,8
   126cc:	fefdd4e3          	bge	s11,a5,126b4 <_vfprintf_r+0x12ec>
   126d0:	bfc1                	j	126a0 <_vfprintf_r+0x12d8>
   126d2:	853e                	mv	a0,a5
   126d4:	c846                	sw	a7,16(sp)
   126d6:	c63e                	sw	a5,12(sp)
   126d8:	4bb010ef          	jal	14392 <strlen>
   126dc:	09314703          	lbu	a4,147(sp)
   126e0:	fff54693          	not	a3,a0
   126e4:	86fd                	srai	a3,a3,0x1f
   126e6:	47b2                	lw	a5,12(sp)
   126e8:	48c2                	lw	a7,16(sp)
   126ea:	8caa                	mv	s9,a0
   126ec:	00d57c33          	and	s8,a0,a3
   126f0:	b6070163          	beqz	a4,11a52 <_vfprintf_r+0x68a>
   126f4:	0c05                	addi	s8,s8,1
   126f6:	b5cff06f          	j	11a52 <_vfprintf_r+0x68a>
   126fa:	46c2                	lw	a3,16(sp)
   126fc:	010bf793          	andi	a5,s7,16
   12700:	4298                	lw	a4,0(a3)
   12702:	0691                	addi	a3,a3,4
   12704:	c836                	sw	a3,16(sp)
   12706:	eba1                	bnez	a5,12756 <_vfprintf_r+0x138e>
   12708:	040bf793          	andi	a5,s7,64
   1270c:	c3a9                	beqz	a5,1274e <_vfprintf_r+0x1386>
   1270e:	0742                	slli	a4,a4,0x10
   12710:	8341                	srli	a4,a4,0x10
   12712:	4601                	li	a2,0
   12714:	b5fd                	j	12602 <_vfprintf_r+0x123a>
   12716:	4582                	lw	a1,0(sp)
   12718:	1950                	addi	a2,sp,180
   1271a:	854a                	mv	a0,s2
   1271c:	ce3e                	sw	a5,28(sp)
   1271e:	649000ef          	jal	13566 <__sprint_r>
   12722:	a20516e3          	bnez	a0,1214e <_vfprintf_r+0xd86>
   12726:	567a                	lw	a2,188(sp)
   12728:	5aea                	lw	s5,184(sp)
   1272a:	47f2                	lw	a5,28(sp)
   1272c:	8dce                	mv	s11,s3
   1272e:	a60ff06f          	j	1198e <_vfprintf_r+0x5c6>
   12732:	4582                	lw	a1,0(sp)
   12734:	1950                	addi	a2,sp,180
   12736:	854a                	mv	a0,s2
   12738:	ce3e                	sw	a5,28(sp)
   1273a:	62d000ef          	jal	13566 <__sprint_r>
   1273e:	a00518e3          	bnez	a0,1214e <_vfprintf_r+0xd86>
   12742:	567a                	lw	a2,188(sp)
   12744:	5aea                	lw	s5,184(sp)
   12746:	47f2                	lw	a5,28(sp)
   12748:	8dce                	mv	s11,s3
   1274a:	a28ff06f          	j	11972 <_vfprintf_r+0x5aa>
   1274e:	200bf793          	andi	a5,s7,512
   12752:	4e079863          	bnez	a5,12c42 <_vfprintf_r+0x187a>
   12756:	4601                	li	a2,0
   12758:	b56d                	j	12602 <_vfprintf_r+0x123a>
   1275a:	bffbfb93          	andi	s7,s7,-1025
   1275e:	4301                	li	t1,0
   12760:	4e81                	li	t4,0
   12762:	b511                	j	12566 <_vfprintf_r+0x119e>
   12764:	4582                	lw	a1,0(sp)
   12766:	1950                	addi	a2,sp,180
   12768:	854a                	mv	a0,s2
   1276a:	c09a                	sw	t1,64(sp)
   1276c:	da3e                	sw	a5,52(sp)
   1276e:	d846                	sw	a7,48(sp)
   12770:	5f7000ef          	jal	13566 <__sprint_r>
   12774:	9c051de3          	bnez	a0,1214e <_vfprintf_r+0xd86>
   12778:	09314703          	lbu	a4,147(sp)
   1277c:	567a                	lw	a2,188(sp)
   1277e:	58c2                	lw	a7,48(sp)
   12780:	57d2                	lw	a5,52(sp)
   12782:	4306                	lw	t1,64(sp)
   12784:	18070663          	beqz	a4,12910 <_vfprintf_r+0x1548>
   12788:	876e                	mv	a4,s11
   1278a:	55ea                	lw	a1,184(sp)
   1278c:	4d81                	li	s11,0
   1278e:	8b4e                	mv	s6,s3
   12790:	de3fe06f          	j	11572 <_vfprintf_r+0x1aa>
   12794:	576a                	lw	a4,184(sp)
   12796:	65ed                	lui	a1,0x1b
   12798:	99458593          	addi	a1,a1,-1644 # 1a994 <__clzsi2+0x82>
   1279c:	00bb2023          	sw	a1,0(s6)
   127a0:	0605                	addi	a2,a2,1
   127a2:	4585                	li	a1,1
   127a4:	0705                	addi	a4,a4,1
   127a6:	00bb2223          	sw	a1,4(s6)
   127aa:	df32                	sw	a2,188(sp)
   127ac:	dd3a                	sw	a4,184(sp)
   127ae:	459d                	li	a1,7
   127b0:	0b21                	addi	s6,s6,8
   127b2:	06e5cbe3          	blt	a1,a4,13028 <_vfprintf_r+0x1c60>
   127b6:	4762                	lw	a4,24(sp)
   127b8:	8f49                	or	a4,a4,a0
   127ba:	40070163          	beqz	a4,12bbc <_vfprintf_r+0x17f4>
   127be:	576a                	lw	a4,184(sp)
   127c0:	5692                	lw	a3,36(sp)
   127c2:	55a2                	lw	a1,40(sp)
   127c4:	0705                	addi	a4,a4,1
   127c6:	9636                	add	a2,a2,a3
   127c8:	00bb2023          	sw	a1,0(s6)
   127cc:	00db2223          	sw	a3,4(s6)
   127d0:	df32                	sw	a2,188(sp)
   127d2:	dd3a                	sw	a4,184(sp)
   127d4:	459d                	li	a1,7
   127d6:	0b21                	addi	s6,s6,8
   127d8:	40e5c563          	blt	a1,a4,12be2 <_vfprintf_r+0x181a>
   127dc:	1a054ce3          	bltz	a0,13194 <_vfprintf_r+0x1dcc>
   127e0:	46e2                	lw	a3,24(sp)
   127e2:	0705                	addi	a4,a4,1
   127e4:	00fb2023          	sw	a5,0(s6)
   127e8:	9636                	add	a2,a2,a3
   127ea:	df32                	sw	a2,188(sp)
   127ec:	dd3a                	sw	a4,184(sp)
   127ee:	00db2223          	sw	a3,4(s6)
   127f2:	479d                	li	a5,7
   127f4:	00e7c463          	blt	a5,a4,127fc <_vfprintf_r+0x1434>
   127f8:	de9fe06f          	j	115e0 <_vfprintf_r+0x218>
   127fc:	9feff06f          	j	119fa <_vfprintf_r+0x632>
   12800:	03000793          	li	a5,48
   12804:	09110aa3          	sb	a7,149(sp)
   12808:	080109a3          	sb	zero,147(sp)
   1280c:	08f10a23          	sb	a5,148(sp)
   12810:	1e0aca63          	bltz	s5,12a04 <_vfprintf_r+0x163c>
   12814:	b7fbfe13          	andi	t3,s7,-1153
   12818:	09314e83          	lbu	t4,147(sp)
   1281c:	002e6b93          	ori	s7,t3,2
   12820:	4309                	li	t1,2
   12822:	b391                	j	12566 <_vfprintf_r+0x119e>
   12824:	854a                	mv	a0,s2
   12826:	c97fd0ef          	jal	104bc <__sinit>
   1282a:	bd9fe06f          	j	11402 <_vfprintf_r+0x3a>
   1282e:	4582                	lw	a1,0(sp)
   12830:	1950                	addi	a2,sp,180
   12832:	854a                	mv	a0,s2
   12834:	533000ef          	jal	13566 <__sprint_r>
   12838:	90051be3          	bnez	a0,1214e <_vfprintf_r+0xd86>
   1283c:	567a                	lw	a2,188(sp)
   1283e:	8b4e                	mv	s6,s3
   12840:	b38ff06f          	j	11b78 <_vfprintf_r+0x7b0>
   12844:	45b2                	lw	a1,12(sp)
   12846:	b231                	j	12152 <_vfprintf_r+0xd8a>
   12848:	420e9d63          	bnez	t4,12c82 <_vfprintf_r+0x18ba>
   1284c:	4725                	li	a4,9
   1284e:	43876a63          	bltu	a4,s8,12c82 <_vfprintf_r+0x18ba>
   12852:	0318                	addi	a4,sp,384
   12854:	cc2e                	sw	a1,24(sp)
   12856:	40f70cb3          	sub	s9,a4,a5
   1285a:	88a6                	mv	a7,s1
   1285c:	8c56                	mv	s8,s5
   1285e:	019ad363          	bge	s5,s9,12864 <_vfprintf_r+0x149c>
   12862:	8c66                	mv	s8,s9
   12864:	09314e83          	lbu	t4,147(sp)
   12868:	4301                	li	t1,0
   1286a:	c602                	sw	zero,12(sp)
   1286c:	c86ff06f          	j	11cf2 <_vfprintf_r+0x92a>
   12870:	8826                	mv	a6,s1
   12872:	9656                	add	a2,a2,s5
   12874:	0785                	addi	a5,a5,1
   12876:	df32                	sw	a2,188(sp)
   12878:	dd3e                	sw	a5,184(sp)
   1287a:	010b2023          	sw	a6,0(s6)
   1287e:	015b2223          	sw	s5,4(s6)
   12882:	471d                	li	a4,7
   12884:	00f74463          	blt	a4,a5,1288c <_vfprintf_r+0x14c4>
   12888:	d59fe06f          	j	115e0 <_vfprintf_r+0x218>
   1288c:	96eff06f          	j	119fa <_vfprintf_r+0x632>
   12890:	470e                	lw	a4,192(sp)
   12892:	479e                	lw	a5,196(sp)
   12894:	188c                	addi	a1,sp,112
   12896:	c13a                	sw	a4,128(sp)
   12898:	c33e                	sw	a5,132(sp)
   1289a:	472e                	lw	a4,200(sp)
   1289c:	47be                	lw	a5,204(sp)
   1289e:	0108                	addi	a0,sp,128
   128a0:	d882                	sw	zero,112(sp)
   128a2:	da82                	sw	zero,116(sp)
   128a4:	dc82                	sw	zero,120(sp)
   128a6:	de82                	sw	zero,124(sp)
   128a8:	c53a                	sw	a4,136(sp)
   128aa:	c73e                	sw	a5,140(sp)
   128ac:	743050ef          	jal	187ee <__letf2>
   128b0:	48b2                	lw	a7,12(sp)
   128b2:	f7fbfb93          	andi	s7,s7,-129
   128b6:	7c054763          	bltz	a0,13084 <_vfprintf_r+0x1cbc>
   128ba:	04700793          	li	a5,71
   128be:	09314703          	lbu	a4,147(sp)
   128c2:	3b17cc63          	blt	a5,a7,12c7a <_vfprintf_r+0x18b2>
   128c6:	67ed                	lui	a5,0x1b
   128c8:	95478793          	addi	a5,a5,-1708 # 1a954 <__clzsi2+0x42>
   128cc:	0e071c63          	bnez	a4,129c4 <_vfprintf_r+0x15fc>
   128d0:	4c8d                	li	s9,3
   128d2:	8c66                	mv	s8,s9
   128d4:	980ff06f          	j	11a54 <_vfprintf_r+0x68c>
   128d8:	47c2                	lw	a5,16(sp)
   128da:	46a2                	lw	a3,8(sp)
   128dc:	439c                	lw	a5,0(a5)
   128de:	c394                	sw	a3,0(a5)
   128e0:	c83a                	sw	a4,16(sp)
   128e2:	bb3fe06f          	j	11494 <_vfprintf_r+0xcc>
   128e6:	65ed                	lui	a1,0x1b
   128e8:	09314e83          	lbu	t4,147(sp)
   128ec:	c83e                	sw	a5,16(sp)
   128ee:	96458593          	addi	a1,a1,-1692 # 1a964 <__clzsi2+0x52>
   128f2:	4309                	li	t1,2
   128f4:	07800893          	li	a7,120
   128f8:	b1bd                	j	12566 <_vfprintf_r+0x119e>
   128fa:	57fa                	lw	a5,188(sp)
   128fc:	4482                	lw	s1,0(sp)
   128fe:	84078ee3          	beqz	a5,1215a <_vfprintf_r+0xd92>
   12902:	854a                	mv	a0,s2
   12904:	1950                	addi	a2,sp,180
   12906:	85a6                	mv	a1,s1
   12908:	45f000ef          	jal	13566 <__sprint_r>
   1290c:	84fff06f          	j	1215a <_vfprintf_r+0xd92>
   12910:	300d8163          	beqz	s11,12c12 <_vfprintf_r+0x184a>
   12914:	55ea                	lw	a1,184(sp)
   12916:	4d81                	li	s11,0
   12918:	8b4e                	mv	s6,s3
   1291a:	c7bfe06f          	j	11594 <_vfprintf_r+0x1cc>
   1291e:	8826                	mv	a6,s1
   12920:	965a                	add	a2,a2,s6
   12922:	0a85                	addi	s5,s5,1
   12924:	df32                	sw	a2,188(sp)
   12926:	dd56                	sw	s5,184(sp)
   12928:	010da023          	sw	a6,0(s11)
   1292c:	016da223          	sw	s6,4(s11)
   12930:	479d                	li	a5,7
   12932:	8b57d363          	bge	a5,s5,119d8 <_vfprintf_r+0x610>
   12936:	bced                	j	12430 <_vfprintf_r+0x1068>
   12938:	200bf693          	andi	a3,s7,512
   1293c:	30068763          	beqz	a3,12c4a <_vfprintf_r+0x1882>
   12940:	0ff77713          	zext.b	a4,a4
   12944:	c83e                	sw	a5,16(sp)
   12946:	86de                	mv	a3,s7
   12948:	4601                	li	a2,0
   1294a:	cacff06f          	j	11df6 <_vfprintf_r+0xa2e>
   1294e:	200bf313          	andi	t1,s7,512
   12952:	080109a3          	sb	zero,147(sp)
   12956:	2c031f63          	bnez	t1,12c34 <_vfprintf_r+0x186c>
   1295a:	4e81                	li	t4,0
   1295c:	b60aca63          	bltz	s5,11cd0 <_vfprintf_r+0x908>
   12960:	f7fbfb93          	andi	s7,s7,-129
   12964:	b60a9663          	bnez	s5,11cd0 <_vfprintf_r+0x908>
   12968:	e60c0f63          	beqz	s8,11fe6 <_vfprintf_r+0xc1e>
   1296c:	b64ff06f          	j	11cd0 <_vfprintf_r+0x908>
   12970:	200bf713          	andi	a4,s7,512
   12974:	2a070a63          	beqz	a4,12c28 <_vfprintf_r+0x1860>
   12978:	0c62                	slli	s8,s8,0x18
   1297a:	418c5c13          	srai	s8,s8,0x18
   1297e:	41fc5e93          	srai	t4,s8,0x1f
   12982:	c83e                	sw	a5,16(sp)
   12984:	8776                	mv	a4,t4
   12986:	a96ff06f          	j	11c1c <_vfprintf_r+0x854>
   1298a:	c602                	sw	zero,12(sp)
   1298c:	4c81                	li	s9,0
   1298e:	d002                	sw	zero,32(sp)
   12990:	ce02                	sw	zero,28(sp)
   12992:	4301                	li	t1,0
   12994:	031c                	addi	a5,sp,384
   12996:	4c01                	li	s8,0
   12998:	bc5fe06f          	j	1155c <_vfprintf_r+0x194>
   1299c:	4fbe                	lw	t6,204(sp)
   1299e:	800007b7          	lui	a5,0x80000
   129a2:	f7fbfb93          	andi	s7,s7,-129
   129a6:	00fff333          	and	t1,t6,a5
   129aa:	2a030563          	beqz	t1,12c54 <_vfprintf_r+0x188c>
   129ae:	02d00793          	li	a5,45
   129b2:	08f109a3          	sb	a5,147(sp)
   129b6:	04700793          	li	a5,71
   129ba:	1317d7e3          	bge	a5,a7,132e8 <_vfprintf_r+0x1f20>
   129be:	67ed                	lui	a5,0x1b
   129c0:	96078793          	addi	a5,a5,-1696 # 1a960 <__clzsi2+0x4e>
   129c4:	c602                	sw	zero,12(sp)
   129c6:	4c8d                	li	s9,3
   129c8:	4a81                	li	s5,0
   129ca:	d002                	sw	zero,32(sp)
   129cc:	ce02                	sw	zero,28(sp)
   129ce:	4301                	li	t1,0
   129d0:	4c11                	li	s8,4
   129d2:	b8bfe06f          	j	1155c <_vfprintf_r+0x194>
   129d6:	100be713          	ori	a4,s7,256
   129da:	57fd                	li	a5,-1
   129dc:	c63a                	sw	a4,12(sp)
   129de:	4e8e                	lw	t4,192(sp)
   129e0:	4f1e                	lw	t5,196(sp)
   129e2:	42ae                	lw	t0,200(sp)
   129e4:	4cbe                	lw	s9,204(sp)
   129e6:	3afa8163          	beq	s5,a5,12d88 <_vfprintf_r+0x19c0>
   129ea:	fb9c0793          	addi	a5,s8,-71
   129ee:	e399                	bnez	a5,129f4 <_vfprintf_r+0x162c>
   129f0:	460a8a63          	beqz	s5,12e64 <_vfprintf_r+0x1a9c>
   129f4:	020cc5e3          	bltz	s9,1321e <_vfprintf_r+0x1e56>
   129f8:	d802                	sw	zero,48(sp)
   129fa:	ae59                	j	12d90 <_vfprintf_r+0x19c8>
   129fc:	c83e                	sw	a5,16(sp)
   129fe:	8bf2                	mv	s7,t3
   12a00:	ad0ff06f          	j	11cd0 <_vfprintf_r+0x908>
   12a04:	bffbfe13          	andi	t3,s7,-1025
   12a08:	002e6b93          	ori	s7,t3,2
   12a0c:	4309                	li	t1,2
   12a0e:	4e81                	li	t4,0
   12a10:	be99                	j	12566 <_vfprintf_r+0x119e>
   12a12:	4af2                	lw	s5,28(sp)
   12a14:	5582                	lw	a1,32(sp)
   12a16:	00bae733          	or	a4,s5,a1
   12a1a:	260709e3          	beqz	a4,1348c <_vfprintf_r+0x20c4>
   12a1e:	4762                	lw	a4,24(sp)
   12a20:	c0e2                	sw	s8,64(sp)
   12a22:	c4ea                	sw	s10,72(sp)
   12a24:	4c16                	lw	s8,68(sp)
   12a26:	5d32                	lw	s10,44(sp)
   12a28:	68ed                	lui	a7,0x1b
   12a2a:	86da                	mv	a3,s6
   12a2c:	da5e                	sw	s7,52(sp)
   12a2e:	c3888893          	addi	a7,a7,-968 # 1ac38 <zeroes.0>
   12a32:	8bee                	mv	s7,s11
   12a34:	481d                	li	a6,7
   12a36:	4cc1                	li	s9,16
   12a38:	d83e                	sw	a5,48(sp)
   12a3a:	8dae                	mv	s11,a1
   12a3c:	00e78b33          	add	s6,a5,a4
   12a40:	07b04563          	bgtz	s11,12aaa <_vfprintf_r+0x16e2>
   12a44:	1d7d                	addi	s10,s10,-1
   12a46:	1afd                	addi	s5,s5,-1
   12a48:	57ea                	lw	a5,184(sp)
   12a4a:	5772                	lw	a4,60(sp)
   12a4c:	9662                	add	a2,a2,s8
   12a4e:	0785                	addi	a5,a5,1
   12a50:	c298                	sw	a4,0(a3)
   12a52:	0186a223          	sw	s8,4(a3)
   12a56:	df32                	sw	a2,188(sp)
   12a58:	dd3e                	sw	a5,184(sp)
   12a5a:	06a1                	addi	a3,a3,8
   12a5c:	0cf84063          	blt	a6,a5,12b1c <_vfprintf_r+0x1754>
   12a60:	000d4583          	lbu	a1,0(s10)
   12a64:	417b04b3          	sub	s1,s6,s7
   12a68:	875a                	mv	a4,s6
   12a6a:	0095d363          	bge	a1,s1,12a70 <_vfprintf_r+0x16a8>
   12a6e:	84ae                	mv	s1,a1
   12a70:	00905f63          	blez	s1,12a8e <_vfprintf_r+0x16c6>
   12a74:	55ea                	lw	a1,184(sp)
   12a76:	9626                	add	a2,a2,s1
   12a78:	df32                	sw	a2,188(sp)
   12a7a:	0585                	addi	a1,a1,1
   12a7c:	0176a023          	sw	s7,0(a3)
   12a80:	c2c4                	sw	s1,4(a3)
   12a82:	dd2e                	sw	a1,184(sp)
   12a84:	0ab84a63          	blt	a6,a1,12b38 <_vfprintf_r+0x1770>
   12a88:	000d4583          	lbu	a1,0(s10)
   12a8c:	06a1                	addi	a3,a3,8
   12a8e:	fff4c513          	not	a0,s1
   12a92:	857d                	srai	a0,a0,0x1f
   12a94:	00a4f7b3          	and	a5,s1,a0
   12a98:	40f584b3          	sub	s1,a1,a5
   12a9c:	00904963          	bgtz	s1,12aae <_vfprintf_r+0x16e6>
   12aa0:	9bae                	add	s7,s7,a1
   12aa2:	f9504fe3          	bgtz	s5,12a40 <_vfprintf_r+0x1678>
   12aa6:	3bb05363          	blez	s11,12e4c <_vfprintf_r+0x1a84>
   12aaa:	1dfd                	addi	s11,s11,-1
   12aac:	bf71                	j	12a48 <_vfprintf_r+0x1680>
   12aae:	62ed                	lui	t0,0x1b
   12ab0:	55ea                	lw	a1,184(sp)
   12ab2:	c3828293          	addi	t0,t0,-968 # 1ac38 <zeroes.0>
   12ab6:	049cd663          	bge	s9,s1,12b02 <_vfprintf_r+0x173a>
   12aba:	ce3a                	sw	a4,28(sp)
   12abc:	d046                	sw	a7,32(sp)
   12abe:	a021                	j	12ac6 <_vfprintf_r+0x16fe>
   12ac0:	14c1                	addi	s1,s1,-16
   12ac2:	029cde63          	bge	s9,s1,12afe <_vfprintf_r+0x1736>
   12ac6:	0641                	addi	a2,a2,16
   12ac8:	0585                	addi	a1,a1,1
   12aca:	0116a023          	sw	a7,0(a3)
   12ace:	0196a223          	sw	s9,4(a3)
   12ad2:	df32                	sw	a2,188(sp)
   12ad4:	dd2e                	sw	a1,184(sp)
   12ad6:	06a1                	addi	a3,a3,8
   12ad8:	feb854e3          	bge	a6,a1,12ac0 <_vfprintf_r+0x16f8>
   12adc:	4582                	lw	a1,0(sp)
   12ade:	1950                	addi	a2,sp,180
   12ae0:	854a                	mv	a0,s2
   12ae2:	285000ef          	jal	13566 <__sprint_r>
   12ae6:	e6051463          	bnez	a0,1214e <_vfprintf_r+0xd86>
   12aea:	67ed                	lui	a5,0x1b
   12aec:	14c1                	addi	s1,s1,-16
   12aee:	567a                	lw	a2,188(sp)
   12af0:	55ea                	lw	a1,184(sp)
   12af2:	86ce                	mv	a3,s3
   12af4:	c3878893          	addi	a7,a5,-968 # 1ac38 <zeroes.0>
   12af8:	481d                	li	a6,7
   12afa:	fc9cc6e3          	blt	s9,s1,12ac6 <_vfprintf_r+0x16fe>
   12afe:	4772                	lw	a4,28(sp)
   12b00:	5282                	lw	t0,32(sp)
   12b02:	9626                	add	a2,a2,s1
   12b04:	0585                	addi	a1,a1,1
   12b06:	df32                	sw	a2,188(sp)
   12b08:	dd2e                	sw	a1,184(sp)
   12b0a:	0056a023          	sw	t0,0(a3)
   12b0e:	c2c4                	sw	s1,4(a3)
   12b10:	52b84c63          	blt	a6,a1,13048 <_vfprintf_r+0x1c80>
   12b14:	000d4583          	lbu	a1,0(s10)
   12b18:	06a1                	addi	a3,a3,8
   12b1a:	b759                	j	12aa0 <_vfprintf_r+0x16d8>
   12b1c:	4582                	lw	a1,0(sp)
   12b1e:	1950                	addi	a2,sp,180
   12b20:	854a                	mv	a0,s2
   12b22:	245000ef          	jal	13566 <__sprint_r>
   12b26:	e2051463          	bnez	a0,1214e <_vfprintf_r+0xd86>
   12b2a:	67ed                	lui	a5,0x1b
   12b2c:	567a                	lw	a2,188(sp)
   12b2e:	86ce                	mv	a3,s3
   12b30:	c3878893          	addi	a7,a5,-968 # 1ac38 <zeroes.0>
   12b34:	481d                	li	a6,7
   12b36:	b72d                	j	12a60 <_vfprintf_r+0x1698>
   12b38:	4582                	lw	a1,0(sp)
   12b3a:	1950                	addi	a2,sp,180
   12b3c:	854a                	mv	a0,s2
   12b3e:	ce3a                	sw	a4,28(sp)
   12b40:	227000ef          	jal	13566 <__sprint_r>
   12b44:	e0051563          	bnez	a0,1214e <_vfprintf_r+0xd86>
   12b48:	67ed                	lui	a5,0x1b
   12b4a:	000d4583          	lbu	a1,0(s10)
   12b4e:	567a                	lw	a2,188(sp)
   12b50:	4772                	lw	a4,28(sp)
   12b52:	86ce                	mv	a3,s3
   12b54:	c3878893          	addi	a7,a5,-968 # 1ac38 <zeroes.0>
   12b58:	481d                	li	a6,7
   12b5a:	bf15                	j	12a8e <_vfprintf_r+0x16c6>
   12b5c:	5342                	lw	t1,48(sp)
   12b5e:	8856                	mv	a6,s5
   12b60:	87ee                	mv	a5,s11
   12b62:	8aa6                	mv	s5,s1
   12b64:	9656                	add	a2,a2,s5
   12b66:	0705                	addi	a4,a4,1
   12b68:	010b2023          	sw	a6,0(s6)
   12b6c:	015b2223          	sw	s5,4(s6)
   12b70:	df32                	sw	a2,188(sp)
   12b72:	dd3a                	sw	a4,184(sp)
   12b74:	459d                	li	a1,7
   12b76:	0b21                	addi	s6,s6,8
   12b78:	f6e5d263          	bge	a1,a4,122dc <_vfprintf_r+0xf14>
   12b7c:	4582                	lw	a1,0(sp)
   12b7e:	1950                	addi	a2,sp,180
   12b80:	854a                	mv	a0,s2
   12b82:	da1a                	sw	t1,52(sp)
   12b84:	d83e                	sw	a5,48(sp)
   12b86:	1e1000ef          	jal	13566 <__sprint_r>
   12b8a:	dc051263          	bnez	a0,1214e <_vfprintf_r+0xd86>
   12b8e:	567a                	lw	a2,188(sp)
   12b90:	5352                	lw	t1,52(sp)
   12b92:	57c2                	lw	a5,48(sp)
   12b94:	8b4e                	mv	s6,s3
   12b96:	f46ff06f          	j	122dc <_vfprintf_r+0xf14>
   12b9a:	8c3e                	mv	s8,a5
   12b9c:	b445                	j	1263c <_vfprintf_r+0x1274>
   12b9e:	4582                	lw	a1,0(sp)
   12ba0:	1950                	addi	a2,sp,180
   12ba2:	854a                	mv	a0,s2
   12ba4:	da1a                	sw	t1,52(sp)
   12ba6:	d83e                	sw	a5,48(sp)
   12ba8:	1bf000ef          	jal	13566 <__sprint_r>
   12bac:	da051163          	bnez	a0,1214e <_vfprintf_r+0xd86>
   12bb0:	567a                	lw	a2,188(sp)
   12bb2:	5352                	lw	t1,52(sp)
   12bb4:	57c2                	lw	a5,48(sp)
   12bb6:	8b4e                	mv	s6,s3
   12bb8:	f12ff06f          	j	122ca <_vfprintf_r+0xf02>
   12bbc:	001bf713          	andi	a4,s7,1
   12bc0:	e319                	bnez	a4,12bc6 <_vfprintf_r+0x17fe>
   12bc2:	a21fe06f          	j	115e2 <_vfprintf_r+0x21a>
   12bc6:	576a                	lw	a4,184(sp)
   12bc8:	5692                	lw	a3,36(sp)
   12bca:	55a2                	lw	a1,40(sp)
   12bcc:	0705                	addi	a4,a4,1
   12bce:	9636                	add	a2,a2,a3
   12bd0:	00bb2023          	sw	a1,0(s6)
   12bd4:	df32                	sw	a2,188(sp)
   12bd6:	00db2223          	sw	a3,4(s6)
   12bda:	dd3a                	sw	a4,184(sp)
   12bdc:	459d                	li	a1,7
   12bde:	46e5d263          	bge	a1,a4,13042 <_vfprintf_r+0x1c7a>
   12be2:	4582                	lw	a1,0(sp)
   12be4:	1950                	addi	a2,sp,180
   12be6:	854a                	mv	a0,s2
   12be8:	ce3e                	sw	a5,28(sp)
   12bea:	17d000ef          	jal	13566 <__sprint_r>
   12bee:	d6051063          	bnez	a0,1214e <_vfprintf_r+0xd86>
   12bf2:	456a                	lw	a0,152(sp)
   12bf4:	567a                	lw	a2,188(sp)
   12bf6:	576a                	lw	a4,184(sp)
   12bf8:	47f2                	lw	a5,28(sp)
   12bfa:	8b4e                	mv	s6,s3
   12bfc:	b6c5                	j	127dc <_vfprintf_r+0x1414>
   12bfe:	97b6                	add	a5,a5,a3
   12c00:	41b78cb3          	sub	s9,a5,s11
   12c04:	41568ab3          	sub	s5,a3,s5
   12c08:	f39adf63          	bge	s5,s9,12346 <_vfprintf_r+0xf7e>
   12c0c:	8cd6                	mv	s9,s5
   12c0e:	f38ff06f          	j	12346 <_vfprintf_r+0xf7e>
   12c12:	8b4e                	mv	s6,s3
   12c14:	9a5fe06f          	j	115b8 <_vfprintf_r+0x1f0>
   12c18:	47c2                	lw	a5,16(sp)
   12c1a:	46a2                	lw	a3,8(sp)
   12c1c:	c83a                	sw	a4,16(sp)
   12c1e:	439c                	lw	a5,0(a5)
   12c20:	00d79023          	sh	a3,0(a5)
   12c24:	871fe06f          	j	11494 <_vfprintf_r+0xcc>
   12c28:	41fc5e93          	srai	t4,s8,0x1f
   12c2c:	c83e                	sw	a5,16(sp)
   12c2e:	8776                	mv	a4,t4
   12c30:	fedfe06f          	j	11c1c <_vfprintf_r+0x854>
   12c34:	0ffc7c13          	zext.b	s8,s8
   12c38:	4e81                	li	t4,0
   12c3a:	a80ad663          	bgez	s5,11ec6 <_vfprintf_r+0xafe>
   12c3e:	88eff06f          	j	11ccc <_vfprintf_r+0x904>
   12c42:	0ff77713          	zext.b	a4,a4
   12c46:	4601                	li	a2,0
   12c48:	ba6d                	j	12602 <_vfprintf_r+0x123a>
   12c4a:	c83e                	sw	a5,16(sp)
   12c4c:	86de                	mv	a3,s7
   12c4e:	4601                	li	a2,0
   12c50:	9a6ff06f          	j	11df6 <_vfprintf_r+0xa2e>
   12c54:	04700793          	li	a5,71
   12c58:	09314703          	lbu	a4,147(sp)
   12c5c:	6517d063          	bge	a5,a7,1329c <_vfprintf_r+0x1ed4>
   12c60:	67ed                	lui	a5,0x1b
   12c62:	96078793          	addi	a5,a5,-1696 # 1a960 <__clzsi2+0x4e>
   12c66:	00071be3          	bnez	a4,1347c <_vfprintf_r+0x20b4>
   12c6a:	4c8d                	li	s9,3
   12c6c:	8c66                	mv	s8,s9
   12c6e:	4a81                	li	s5,0
   12c70:	d002                	sw	zero,32(sp)
   12c72:	ce02                	sw	zero,28(sp)
   12c74:	c602                	sw	zero,12(sp)
   12c76:	8e7fe06f          	j	1155c <_vfprintf_r+0x194>
   12c7a:	67ed                	lui	a5,0x1b
   12c7c:	95878793          	addi	a5,a5,-1704 # 1a958 <__clzsi2+0x46>
   12c80:	b1b1                	j	128cc <_vfprintf_r+0x1504>
   12c82:	4616                	lw	a2,68(sp)
   12c84:	55f2                	lw	a1,60(sp)
   12c86:	ce76                	sw	t4,28(sp)
   12c88:	40c786b3          	sub	a3,a5,a2
   12c8c:	8536                	mv	a0,a3
   12c8e:	cc42                	sw	a6,24(sp)
   12c90:	c636                	sw	a3,12(sp)
   12c92:	1ea010ef          	jal	13e7c <strncpy>
   12c96:	4ef2                	lw	t4,28(sp)
   12c98:	ccccd637          	lui	a2,0xccccd
   12c9c:	ccd60613          	addi	a2,a2,-819 # cccccccd <__BSS_END__+0xcccb0119>
   12ca0:	01dc0733          	add	a4,s8,t4
   12ca4:	018737b3          	sltu	a5,a4,s8
   12ca8:	973e                	add	a4,a4,a5
   12caa:	02c735b3          	mulhu	a1,a4,a2
   12cae:	ccccd537          	lui	a0,0xccccd
   12cb2:	ccc50513          	addi	a0,a0,-820 # cccccccc <__BSS_END__+0xcccb0118>
   12cb6:	56b2                	lw	a3,44(sp)
   12cb8:	4862                	lw	a6,24(sp)
   12cba:	0016c783          	lbu	a5,1(a3)
   12cbe:	00f037b3          	snez	a5,a5
   12cc2:	0025d893          	srli	a7,a1,0x2
   12cc6:	99f1                	andi	a1,a1,-4
   12cc8:	95c6                	add	a1,a1,a7
   12cca:	8f0d                	sub	a4,a4,a1
   12ccc:	40ec0733          	sub	a4,s8,a4
   12cd0:	00ec35b3          	sltu	a1,s8,a4
   12cd4:	40be85b3          	sub	a1,t4,a1
   12cd8:	02a70533          	mul	a0,a4,a0
   12cdc:	97b6                	add	a5,a5,a3
   12cde:	46b2                	lw	a3,12(sp)
   12ce0:	d63e                	sw	a5,44(sp)
   12ce2:	fff68793          	addi	a5,a3,-1
   12ce6:	02c585b3          	mul	a1,a1,a2
   12cea:	95aa                	add	a1,a1,a0
   12cec:	02c73533          	mulhu	a0,a4,a2
   12cf0:	02c70733          	mul	a4,a4,a2
   12cf4:	95aa                	add	a1,a1,a0
   12cf6:	01f59513          	slli	a0,a1,0x1f
   12cfa:	0015de93          	srli	t4,a1,0x1
   12cfe:	4585                	li	a1,1
   12d00:	8305                	srli	a4,a4,0x1
   12d02:	00e50c33          	add	s8,a0,a4
   12d06:	01dc0733          	add	a4,s8,t4
   12d0a:	01873533          	sltu	a0,a4,s8
   12d0e:	972a                	add	a4,a4,a0
   12d10:	02c73533          	mulhu	a0,a4,a2
   12d14:	00255893          	srli	a7,a0,0x2
   12d18:	9971                	andi	a0,a0,-4
   12d1a:	9546                	add	a0,a0,a7
   12d1c:	8f09                	sub	a4,a4,a0
   12d1e:	40ec0733          	sub	a4,s8,a4
   12d22:	00ec3533          	sltu	a0,s8,a4
   12d26:	40ae8533          	sub	a0,t4,a0
   12d2a:	02c738b3          	mulhu	a7,a4,a2
   12d2e:	02c50533          	mul	a0,a0,a2
   12d32:	02c70733          	mul	a4,a4,a2
   12d36:	01150633          	add	a2,a0,a7
   12d3a:	067e                	slli	a2,a2,0x1f
   12d3c:	8305                	srli	a4,a4,0x1
   12d3e:	9732                	add	a4,a4,a2
   12d40:	00271613          	slli	a2,a4,0x2
   12d44:	9732                	add	a4,a4,a2
   12d46:	0706                	slli	a4,a4,0x1
   12d48:	40ec0733          	sub	a4,s8,a4
   12d4c:	03070713          	addi	a4,a4,48
   12d50:	fee68fa3          	sb	a4,-1(a3)
   12d54:	99eff06f          	j	11ef2 <_vfprintf_r+0xb2a>
   12d58:	001a8593          	addi	a1,s5,1
   12d5c:	854a                	mv	a0,s2
   12d5e:	c646                	sw	a7,12(sp)
   12d60:	85cfe0ef          	jal	10dbc <_malloc_r>
   12d64:	48b2                	lw	a7,12(sp)
   12d66:	87aa                	mv	a5,a0
   12d68:	72050d63          	beqz	a0,134a2 <_vfprintf_r+0x20da>
   12d6c:	473e                	lw	a4,204(sp)
   12d6e:	c62a                	sw	a0,12(sp)
   12d70:	468e                	lw	a3,192(sp)
   12d72:	461e                	lw	a2,196(sp)
   12d74:	45ae                	lw	a1,200(sp)
   12d76:	4c074863          	bltz	a4,13246 <_vfprintf_r+0x1e7e>
   12d7a:	d802                	sw	zero,48(sp)
   12d7c:	991fe06f          	j	1170c <_vfprintf_r+0x344>
   12d80:	07800793          	li	a5,120
   12d84:	963fe06f          	j	116e6 <_vfprintf_r+0x31e>
   12d88:	480cca63          	bltz	s9,1321c <_vfprintf_r+0x1e54>
   12d8c:	d802                	sw	zero,48(sp)
   12d8e:	4a99                	li	s5,6
   12d90:	04600793          	li	a5,70
   12d94:	30fc1463          	bne	s8,a5,1309c <_vfprintf_r+0x1cd4>
   12d98:	097c                	addi	a5,sp,156
   12d9a:	0938                	addi	a4,sp,152
   12d9c:	86d6                	mv	a3,s5
   12d9e:	010c                	addi	a1,sp,128
   12da0:	0a010813          	addi	a6,sp,160
   12da4:	460d                	li	a2,3
   12da6:	854a                	mv	a0,s2
   12da8:	da46                	sw	a7,52(sp)
   12daa:	c176                	sw	t4,128(sp)
   12dac:	d076                	sw	t4,32(sp)
   12dae:	c37a                	sw	t5,132(sp)
   12db0:	ce7a                	sw	t5,28(sp)
   12db2:	c516                	sw	t0,136(sp)
   12db4:	cc16                	sw	t0,24(sp)
   12db6:	c766                	sw	s9,140(sp)
   12db8:	069010ef          	jal	14620 <_ldtoa_r>
   12dbc:	00054683          	lbu	a3,0(a0)
   12dc0:	03000713          	li	a4,48
   12dc4:	42e2                	lw	t0,24(sp)
   12dc6:	4f72                	lw	t5,28(sp)
   12dc8:	5e82                	lw	t4,32(sp)
   12dca:	58d2                	lw	a7,52(sp)
   12dcc:	87aa                	mv	a5,a0
   12dce:	015504b3          	add	s1,a0,s5
   12dd2:	56e68163          	beq	a3,a4,13334 <_vfprintf_r+0x1f6c>
   12dd6:	4dea                	lw	s11,152(sp)
   12dd8:	0108                	addi	a0,sp,128
   12dda:	188c                	addi	a1,sp,112
   12ddc:	ce3e                	sw	a5,28(sp)
   12dde:	c766                	sw	s9,140(sp)
   12de0:	cc46                	sw	a7,24(sp)
   12de2:	c176                	sw	t4,128(sp)
   12de4:	c37a                	sw	t5,132(sp)
   12de6:	c516                	sw	t0,136(sp)
   12de8:	d882                	sw	zero,112(sp)
   12dea:	da82                	sw	zero,116(sp)
   12dec:	dc82                	sw	zero,120(sp)
   12dee:	de82                	sw	zero,124(sp)
   12df0:	7f4050ef          	jal	185e4 <__eqtf2>
   12df4:	47f2                	lw	a5,28(sp)
   12df6:	01b48cb3          	add	s9,s1,s11
   12dfa:	836e                	mv	t1,s11
   12dfc:	52051563          	bnez	a0,13326 <_vfprintf_r+0x1f5e>
   12e00:	40fc8733          	sub	a4,s9,a5
   12e04:	cc3a                	sw	a4,24(sp)
   12e06:	001bf713          	andi	a4,s7,1
   12e0a:	01576733          	or	a4,a4,s5
   12e0e:	5a605e63          	blez	t1,133ca <_vfprintf_r+0x2002>
   12e12:	54071663          	bnez	a4,1335e <_vfprintf_r+0x1f96>
   12e16:	8c9a                	mv	s9,t1
   12e18:	06600893          	li	a7,102
   12e1c:	400bfe13          	andi	t3,s7,1024
   12e20:	480e1763          	bnez	t3,132ae <_vfprintf_r+0x1ee6>
   12e24:	fffcc693          	not	a3,s9
   12e28:	86fd                	srai	a3,a3,0x1f
   12e2a:	00dcfc33          	and	s8,s9,a3
   12e2e:	5742                	lw	a4,48(sp)
   12e30:	32070f63          	beqz	a4,1316e <_vfprintf_r+0x1da6>
   12e34:	02d00713          	li	a4,45
   12e38:	08e109a3          	sb	a4,147(sp)
   12e3c:	0c05                	addi	s8,s8,1
   12e3e:	4bb2                	lw	s7,12(sp)
   12e40:	4a81                	li	s5,0
   12e42:	c602                	sw	zero,12(sp)
   12e44:	d002                	sw	zero,32(sp)
   12e46:	ce02                	sw	zero,28(sp)
   12e48:	f14fe06f          	j	1155c <_vfprintf_r+0x194>
   12e4c:	8dde                	mv	s11,s7
   12e4e:	d66a                	sw	s10,44(sp)
   12e50:	57c2                	lw	a5,48(sp)
   12e52:	5bd2                	lw	s7,52(sp)
   12e54:	4c06                	lw	s8,64(sp)
   12e56:	4d26                	lw	s10,72(sp)
   12e58:	8b36                	mv	s6,a3
   12e5a:	c9b77763          	bgeu	a4,s11,122e8 <_vfprintf_r+0xf20>
   12e5e:	8dba                	mv	s11,a4
   12e60:	c88ff06f          	j	122e8 <_vfprintf_r+0xf20>
   12e64:	d802                	sw	zero,48(sp)
   12e66:	000cd963          	bgez	s9,12e78 <_vfprintf_r+0x1ab0>
   12e6a:	800007b7          	lui	a5,0x80000
   12e6e:	00fcccb3          	xor	s9,s9,a5
   12e72:	02d00793          	li	a5,45
   12e76:	d83e                	sw	a5,48(sp)
   12e78:	08010d93          	addi	s11,sp,128
   12e7c:	097c                	addi	a5,sp,156
   12e7e:	85ee                	mv	a1,s11
   12e80:	0a010813          	addi	a6,sp,160
   12e84:	0938                	addi	a4,sp,152
   12e86:	4685                	li	a3,1
   12e88:	4609                	li	a2,2
   12e8a:	854a                	mv	a0,s2
   12e8c:	c0c6                	sw	a7,64(sp)
   12e8e:	c176                	sw	t4,128(sp)
   12e90:	da76                	sw	t4,52(sp)
   12e92:	c37a                	sw	t5,132(sp)
   12e94:	d07a                	sw	t5,32(sp)
   12e96:	c516                	sw	t0,136(sp)
   12e98:	ce16                	sw	t0,28(sp)
   12e9a:	c766                	sw	s9,140(sp)
   12e9c:	784010ef          	jal	14620 <_ldtoa_r>
   12ea0:	42f2                	lw	t0,28(sp)
   12ea2:	5f02                	lw	t5,32(sp)
   12ea4:	5ed2                	lw	t4,52(sp)
   12ea6:	4886                	lw	a7,64(sp)
   12ea8:	4a85                	li	s5,1
   12eaa:	87aa                	mv	a5,a0
   12eac:	cc56                	sw	s5,24(sp)
   12eae:	001bf713          	andi	a4,s7,1
   12eb2:	12070863          	beqz	a4,12fe2 <_vfprintf_r+0x1c1a>
   12eb6:	856e                	mv	a0,s11
   12eb8:	188c                	addi	a1,sp,112
   12eba:	d03e                	sw	a5,32(sp)
   12ebc:	ce46                	sw	a7,28(sp)
   12ebe:	c176                	sw	t4,128(sp)
   12ec0:	c37a                	sw	t5,132(sp)
   12ec2:	c516                	sw	t0,136(sp)
   12ec4:	c766                	sw	s9,140(sp)
   12ec6:	d882                	sw	zero,112(sp)
   12ec8:	da82                	sw	zero,116(sp)
   12eca:	dc82                	sw	zero,120(sp)
   12ecc:	de82                	sw	zero,124(sp)
   12ece:	716050ef          	jal	185e4 <__eqtf2>
   12ed2:	48f2                	lw	a7,28(sp)
   12ed4:	5782                	lw	a5,32(sp)
   12ed6:	54050b63          	beqz	a0,1342c <_vfprintf_r+0x2064>
   12eda:	46e2                	lw	a3,24(sp)
   12edc:	570a                	lw	a4,160(sp)
   12ede:	00d78cb3          	add	s9,a5,a3
   12ee2:	5b977863          	bgeu	a4,s9,13492 <_vfprintf_r+0x20ca>
   12ee6:	03000613          	li	a2,48
   12eea:	00170693          	addi	a3,a4,1
   12eee:	d136                	sw	a3,160(sp)
   12ef0:	00c70023          	sb	a2,0(a4)
   12ef4:	570a                	lw	a4,160(sp)
   12ef6:	ff976ae3          	bltu	a4,s9,12eea <_vfprintf_r+0x1b22>
   12efa:	8f1d                	sub	a4,a4,a5
   12efc:	04700693          	li	a3,71
   12f00:	cc3a                	sw	a4,24(sp)
   12f02:	436a                	lw	t1,152(sp)
   12f04:	0edc0363          	beq	s8,a3,12fea <_vfprintf_r+0x1c22>
   12f08:	04600713          	li	a4,70
   12f0c:	eeec0de3          	beq	s8,a4,12e06 <_vfprintf_r+0x1a3e>
   12f10:	fff30713          	addi	a4,t1,-1
   12f14:	0b110223          	sb	a7,164(sp)
   12f18:	cd3a                	sw	a4,152(sp)
   12f1a:	48074463          	bltz	a4,133a2 <_vfprintf_r+0x1fda>
   12f1e:	02b00693          	li	a3,43
   12f22:	0ad102a3          	sb	a3,165(sp)
   12f26:	46a5                	li	a3,9
   12f28:	48e6d763          	bge	a3,a4,133b6 <_vfprintf_r+0x1fee>
   12f2c:	ce5e                	sw	s7,28(sp)
   12f2e:	c602                	sw	zero,12(sp)
   12f30:	0b310e93          	addi	t4,sp,179
   12f34:	ccccde37          	lui	t3,0xccccd
   12f38:	8576                	mv	a0,t4
   12f3a:	ccde0e13          	addi	t3,t3,-819 # cccccccd <__BSS_END__+0xcccb0119>
   12f3e:	06300f13          	li	t5,99
   12f42:	03c736b3          	mulhu	a3,a4,t3
   12f46:	883a                	mv	a6,a4
   12f48:	85aa                	mv	a1,a0
   12f4a:	157d                	addi	a0,a0,-1
   12f4c:	828d                	srli	a3,a3,0x3
   12f4e:	00269613          	slli	a2,a3,0x2
   12f52:	9636                	add	a2,a2,a3
   12f54:	0606                	slli	a2,a2,0x1
   12f56:	8f11                	sub	a4,a4,a2
   12f58:	03070713          	addi	a4,a4,48
   12f5c:	fee58fa3          	sb	a4,-1(a1)
   12f60:	8736                	mv	a4,a3
   12f62:	ff0f40e3          	blt	t5,a6,12f42 <_vfprintf_r+0x1b7a>
   12f66:	03068713          	addi	a4,a3,48
   12f6a:	fee50fa3          	sb	a4,-1(a0)
   12f6e:	ffe58713          	addi	a4,a1,-2
   12f72:	4fd77963          	bgeu	a4,t4,13464 <_vfprintf_r+0x209c>
   12f76:	0a610513          	addi	a0,sp,166
   12f7a:	86aa                	mv	a3,a0
   12f7c:	00074603          	lbu	a2,0(a4)
   12f80:	0705                	addi	a4,a4,1
   12f82:	0685                	addi	a3,a3,1
   12f84:	fec68fa3          	sb	a2,-1(a3)
   12f88:	ffd71ae3          	bne	a4,t4,12f7c <_vfprintf_r+0x1bb4>
   12f8c:	972a                	add	a4,a4,a0
   12f8e:	0709                	addi	a4,a4,2
   12f90:	8f0d                	sub	a4,a4,a1
   12f92:	1154                	addi	a3,sp,164
   12f94:	8f15                	sub	a4,a4,a3
   12f96:	dc3a                	sw	a4,56(sp)
   12f98:	46e2                	lw	a3,24(sp)
   12f9a:	5662                	lw	a2,56(sp)
   12f9c:	4705                	li	a4,1
   12f9e:	00c68cb3          	add	s9,a3,a2
   12fa2:	28d75b63          	bge	a4,a3,13238 <_vfprintf_r+0x1e70>
   12fa6:	5712                	lw	a4,36(sp)
   12fa8:	9cba                	add	s9,s9,a4
   12faa:	4772                	lw	a4,28(sp)
   12fac:	fffcc693          	not	a3,s9
   12fb0:	86fd                	srai	a3,a3,0x1f
   12fb2:	bff77e13          	andi	t3,a4,-1025
   12fb6:	00277313          	andi	t1,a4,2
   12fba:	5742                	lw	a4,48(sp)
   12fbc:	00dcfc33          	and	s8,s9,a3
   12fc0:	100e6b93          	ori	s7,t3,256
   12fc4:	22070f63          	beqz	a4,13202 <_vfprintf_r+0x1e3a>
   12fc8:	02d00e93          	li	t4,45
   12fcc:	09d109a3          	sb	t4,147(sp)
   12fd0:	4a81                	li	s5,0
   12fd2:	0c05                	addi	s8,s8,1
   12fd4:	c75fe06f          	j	11c48 <_vfprintf_r+0x880>
   12fd8:	46e2                	lw	a3,24(sp)
   12fda:	00a6c583          	lbu	a1,10(a3)
   12fde:	8fdfe06f          	j	118da <_vfprintf_r+0x512>
   12fe2:	570a                	lw	a4,160(sp)
   12fe4:	436a                	lw	t1,152(sp)
   12fe6:	8f1d                	sub	a4,a4,a5
   12fe8:	cc3a                	sw	a4,24(sp)
   12fea:	ffd32713          	slti	a4,t1,-3
   12fee:	e319                	bnez	a4,12ff4 <_vfprintf_r+0x1c2c>
   12ff0:	006ad463          	bge	s5,t1,12ff8 <_vfprintf_r+0x1c30>
   12ff4:	18f9                	addi	a7,a7,-2
   12ff6:	bf29                	j	12f10 <_vfprintf_r+0x1b48>
   12ff8:	4762                	lw	a4,24(sp)
   12ffa:	1ee34263          	blt	t1,a4,131de <_vfprintf_r+0x1e16>
   12ffe:	001bf713          	andi	a4,s7,1
   13002:	8c9a                	mv	s9,t1
   13004:	c701                	beqz	a4,1300c <_vfprintf_r+0x1c44>
   13006:	5712                	lw	a4,36(sp)
   13008:	00e30cb3          	add	s9,t1,a4
   1300c:	400bfe13          	andi	t3,s7,1024
   13010:	000e0463          	beqz	t3,13018 <_vfprintf_r+0x1c50>
   13014:	28604b63          	bgtz	t1,132aa <_vfprintf_r+0x1ee2>
   13018:	fffcc693          	not	a3,s9
   1301c:	86fd                	srai	a3,a3,0x1f
   1301e:	00dcfc33          	and	s8,s9,a3
   13022:	06700893          	li	a7,103
   13026:	b521                	j	12e2e <_vfprintf_r+0x1a66>
   13028:	4582                	lw	a1,0(sp)
   1302a:	1950                	addi	a2,sp,180
   1302c:	854a                	mv	a0,s2
   1302e:	ce3e                	sw	a5,28(sp)
   13030:	2b1d                	jal	13566 <__sprint_r>
   13032:	90051e63          	bnez	a0,1214e <_vfprintf_r+0xd86>
   13036:	456a                	lw	a0,152(sp)
   13038:	567a                	lw	a2,188(sp)
   1303a:	47f2                	lw	a5,28(sp)
   1303c:	8b4e                	mv	s6,s3
   1303e:	f78ff06f          	j	127b6 <_vfprintf_r+0x13ee>
   13042:	0b21                	addi	s6,s6,8
   13044:	f9cff06f          	j	127e0 <_vfprintf_r+0x1418>
   13048:	4582                	lw	a1,0(sp)
   1304a:	1950                	addi	a2,sp,180
   1304c:	854a                	mv	a0,s2
   1304e:	ce3a                	sw	a4,28(sp)
   13050:	2b19                	jal	13566 <__sprint_r>
   13052:	8e051e63          	bnez	a0,1214e <_vfprintf_r+0xd86>
   13056:	67ed                	lui	a5,0x1b
   13058:	000d4583          	lbu	a1,0(s10)
   1305c:	567a                	lw	a2,188(sp)
   1305e:	4772                	lw	a4,28(sp)
   13060:	86ce                	mv	a3,s3
   13062:	c3878893          	addi	a7,a5,-968 # 1ac38 <zeroes.0>
   13066:	481d                	li	a6,7
   13068:	bc25                	j	12aa0 <_vfprintf_r+0x16d8>
   1306a:	4582                	lw	a1,0(sp)
   1306c:	1950                	addi	a2,sp,180
   1306e:	854a                	mv	a0,s2
   13070:	ce3e                	sw	a5,28(sp)
   13072:	29d5                	jal	13566 <__sprint_r>
   13074:	8c051d63          	bnez	a0,1214e <_vfprintf_r+0xd86>
   13078:	4aea                	lw	s5,152(sp)
   1307a:	567a                	lw	a2,188(sp)
   1307c:	47f2                	lw	a5,28(sp)
   1307e:	8b4e                	mv	s6,s3
   13080:	a96ff06f          	j	12316 <_vfprintf_r+0xf4e>
   13084:	02d00793          	li	a5,45
   13088:	08f109a3          	sb	a5,147(sp)
   1308c:	04700793          	li	a5,71
   13090:	1917df63          	bge	a5,a7,1322e <_vfprintf_r+0x1e66>
   13094:	67ed                	lui	a5,0x1b
   13096:	95878793          	addi	a5,a5,-1704 # 1a958 <__clzsi2+0x46>
   1309a:	b22d                	j	129c4 <_vfprintf_r+0x15fc>
   1309c:	fbbc0793          	addi	a5,s8,-69
   130a0:	0017b793          	seqz	a5,a5
   130a4:	97d6                	add	a5,a5,s5
   130a6:	08010d93          	addi	s11,sp,128
   130aa:	cc3e                	sw	a5,24(sp)
   130ac:	86be                	mv	a3,a5
   130ae:	0938                	addi	a4,sp,152
   130b0:	097c                	addi	a5,sp,156
   130b2:	85ee                	mv	a1,s11
   130b4:	0a010813          	addi	a6,sp,160
   130b8:	4609                	li	a2,2
   130ba:	854a                	mv	a0,s2
   130bc:	c0c6                	sw	a7,64(sp)
   130be:	c176                	sw	t4,128(sp)
   130c0:	da76                	sw	t4,52(sp)
   130c2:	c37a                	sw	t5,132(sp)
   130c4:	d07a                	sw	t5,32(sp)
   130c6:	c516                	sw	t0,136(sp)
   130c8:	ce16                	sw	t0,28(sp)
   130ca:	c766                	sw	s9,140(sp)
   130cc:	554010ef          	jal	14620 <_ldtoa_r>
   130d0:	04700713          	li	a4,71
   130d4:	42f2                	lw	t0,28(sp)
   130d6:	5f02                	lw	t5,32(sp)
   130d8:	5ed2                	lw	t4,52(sp)
   130da:	4886                	lw	a7,64(sp)
   130dc:	87aa                	mv	a5,a0
   130de:	dcec08e3          	beq	s8,a4,12eae <_vfprintf_r+0x1ae6>
   130e2:	d02a                	sw	a0,32(sp)
   130e4:	188c                	addi	a1,sp,112
   130e6:	856e                	mv	a0,s11
   130e8:	ce46                	sw	a7,28(sp)
   130ea:	c176                	sw	t4,128(sp)
   130ec:	c37a                	sw	t5,132(sp)
   130ee:	c516                	sw	t0,136(sp)
   130f0:	c766                	sw	s9,140(sp)
   130f2:	d882                	sw	zero,112(sp)
   130f4:	da82                	sw	zero,116(sp)
   130f6:	dc82                	sw	zero,120(sp)
   130f8:	de82                	sw	zero,124(sp)
   130fa:	4ea050ef          	jal	185e4 <__eqtf2>
   130fe:	48f2                	lw	a7,28(sp)
   13100:	5782                	lw	a5,32(sp)
   13102:	3c050063          	beqz	a0,134c2 <_vfprintf_r+0x20fa>
   13106:	46e2                	lw	a3,24(sp)
   13108:	570a                	lw	a4,160(sp)
   1310a:	00d78cb3          	add	s9,a5,a3
   1310e:	dd976ce3          	bltu	a4,s9,12ee6 <_vfprintf_r+0x1b1e>
   13112:	8f1d                	sub	a4,a4,a5
   13114:	436a                	lw	t1,152(sp)
   13116:	cc3a                	sw	a4,24(sp)
   13118:	bbe5                	j	12f10 <_vfprintf_r+0x1b48>
   1311a:	57fd                	li	a5,-1
   1311c:	c43e                	sw	a5,8(sp)
   1311e:	86eff06f          	j	1218c <_vfprintf_r+0xdc4>
   13122:	4725                	li	a4,9
   13124:	00677463          	bgeu	a4,t1,1312c <_vfprintf_r+0x1d64>
   13128:	e2dfe06f          	j	11f54 <_vfprintf_r+0xb8c>
   1312c:	f26ff06f          	j	12852 <_vfprintf_r+0x148a>
   13130:	c826                	sw	s1,16(sp)
   13132:	14070d63          	beqz	a4,1328c <_vfprintf_r+0x1ec4>
   13136:	001a8c13          	addi	s8,s5,1
   1313a:	8cd6                	mv	s9,s5
   1313c:	d002                	sw	zero,32(sp)
   1313e:	4a81                	li	s5,0
   13140:	ce02                	sw	zero,28(sp)
   13142:	4301                	li	t1,0
   13144:	c18fe06f          	j	1155c <_vfprintf_r+0x194>
   13148:	c4880813          	addi	a6,a6,-952
   1314c:	a8cff06f          	j	123d8 <_vfprintf_r+0x1010>
   13150:	4582                	lw	a1,0(sp)
   13152:	1950                	addi	a2,sp,180
   13154:	854a                	mv	a0,s2
   13156:	2901                	jal	13566 <__sprint_r>
   13158:	c119                	beqz	a0,1315e <_vfprintf_r+0x1d96>
   1315a:	ff5fe06f          	j	1214e <_vfprintf_r+0xd86>
   1315e:	4aea                	lw	s5,152(sp)
   13160:	47e2                	lw	a5,24(sp)
   13162:	567a                	lw	a2,188(sp)
   13164:	8b4e                	mv	s6,s3
   13166:	41578ab3          	sub	s5,a5,s5
   1316a:	9dcff06f          	j	12346 <_vfprintf_r+0xf7e>
   1316e:	09314703          	lbu	a4,147(sp)
   13172:	cc0706e3          	beqz	a4,12e3e <_vfprintf_r+0x1a76>
   13176:	0c05                	addi	s8,s8,1
   13178:	b1d9                	j	12e3e <_vfprintf_r+0x1a76>
   1317a:	86de                	mv	a3,s7
   1317c:	b52ff06f          	j	124ce <_vfprintf_r+0x1106>
   13180:	c4880813          	addi	a6,a6,-952
   13184:	8a8ff06f          	j	1222c <_vfprintf_r+0xe64>
   13188:	8e5e                	mv	t3,s7
   1318a:	ea5fe06f          	j	1202e <_vfprintf_r+0xc66>
   1318e:	8e5e                	mv	t3,s7
   13190:	b84ff06f          	j	12514 <_vfprintf_r+0x114c>
   13194:	55c1                	li	a1,-16
   13196:	40a00ab3          	neg	s5,a0
   1319a:	686d                	lui	a6,0x1b
   1319c:	30b55c63          	bge	a0,a1,134b4 <_vfprintf_r+0x20ec>
   131a0:	4cc1                	li	s9,16
   131a2:	4d9d                	li	s11,7
   131a4:	ce3e                	sw	a5,28(sp)
   131a6:	c3880493          	addi	s1,a6,-968 # 1ac38 <zeroes.0>
   131aa:	a021                	j	131b2 <_vfprintf_r+0x1dea>
   131ac:	1ac1                	addi	s5,s5,-16
   131ae:	0b5cd463          	bge	s9,s5,13256 <_vfprintf_r+0x1e8e>
   131b2:	0641                	addi	a2,a2,16
   131b4:	0705                	addi	a4,a4,1
   131b6:	009b2023          	sw	s1,0(s6)
   131ba:	019b2223          	sw	s9,4(s6)
   131be:	df32                	sw	a2,188(sp)
   131c0:	dd3a                	sw	a4,184(sp)
   131c2:	0b21                	addi	s6,s6,8
   131c4:	feedd4e3          	bge	s11,a4,131ac <_vfprintf_r+0x1de4>
   131c8:	4582                	lw	a1,0(sp)
   131ca:	1950                	addi	a2,sp,180
   131cc:	854a                	mv	a0,s2
   131ce:	2e61                	jal	13566 <__sprint_r>
   131d0:	c119                	beqz	a0,131d6 <_vfprintf_r+0x1e0e>
   131d2:	f7dfe06f          	j	1214e <_vfprintf_r+0xd86>
   131d6:	567a                	lw	a2,188(sp)
   131d8:	576a                	lw	a4,184(sp)
   131da:	8b4e                	mv	s6,s3
   131dc:	bfc1                	j	131ac <_vfprintf_r+0x1de4>
   131de:	4762                	lw	a4,24(sp)
   131e0:	5692                	lw	a3,36(sp)
   131e2:	06700893          	li	a7,103
   131e6:	00d70cb3          	add	s9,a4,a3
   131ea:	c26049e3          	bgtz	t1,12e1c <_vfprintf_r+0x1a54>
   131ee:	406c8f33          	sub	t5,s9,t1
   131f2:	001f0c93          	addi	s9,t5,1
   131f6:	fffcc693          	not	a3,s9
   131fa:	86fd                	srai	a3,a3,0x1f
   131fc:	00dcfc33          	and	s8,s9,a3
   13200:	b13d                	j	12e2e <_vfprintf_r+0x1a66>
   13202:	09314e83          	lbu	t4,147(sp)
   13206:	4a81                	li	s5,0
   13208:	000e8463          	beqz	t4,13210 <_vfprintf_r+0x1e48>
   1320c:	aebfe06f          	j	11cf6 <_vfprintf_r+0x92e>
   13210:	a39fe06f          	j	11c48 <_vfprintf_r+0x880>
   13214:	c3880813          	addi	a6,a6,-968
   13218:	ef1fe06f          	j	12108 <_vfprintf_r+0xd40>
   1321c:	4a99                	li	s5,6
   1321e:	800007b7          	lui	a5,0x80000
   13222:	00fcccb3          	xor	s9,s9,a5
   13226:	02d00793          	li	a5,45
   1322a:	d83e                	sw	a5,48(sp)
   1322c:	b695                	j	12d90 <_vfprintf_r+0x19c8>
   1322e:	67ed                	lui	a5,0x1b
   13230:	95478793          	addi	a5,a5,-1708 # 1a954 <__clzsi2+0x42>
   13234:	f90ff06f          	j	129c4 <_vfprintf_r+0x15fc>
   13238:	4772                	lw	a4,28(sp)
   1323a:	8b05                	andi	a4,a4,1
   1323c:	d60707e3          	beqz	a4,12faa <_vfprintf_r+0x1be2>
   13240:	b39d                	j	12fa6 <_vfprintf_r+0x1bde>
   13242:	c602                	sw	zero,12(sp)
   13244:	0a7c                	addi	a5,sp,284
   13246:	80000537          	lui	a0,0x80000
   1324a:	8f29                	xor	a4,a4,a0
   1324c:	02d00513          	li	a0,45
   13250:	d82a                	sw	a0,48(sp)
   13252:	cbafe06f          	j	1170c <_vfprintf_r+0x344>
   13256:	47f2                	lw	a5,28(sp)
   13258:	8826                	mv	a6,s1
   1325a:	9656                	add	a2,a2,s5
   1325c:	0705                	addi	a4,a4,1
   1325e:	df32                	sw	a2,188(sp)
   13260:	dd3a                	sw	a4,184(sp)
   13262:	010b2023          	sw	a6,0(s6)
   13266:	015b2223          	sw	s5,4(s6)
   1326a:	459d                	li	a1,7
   1326c:	dce5dbe3          	bge	a1,a4,13042 <_vfprintf_r+0x1c7a>
   13270:	4582                	lw	a1,0(sp)
   13272:	1950                	addi	a2,sp,180
   13274:	854a                	mv	a0,s2
   13276:	ce3e                	sw	a5,28(sp)
   13278:	24fd                	jal	13566 <__sprint_r>
   1327a:	c119                	beqz	a0,13280 <_vfprintf_r+0x1eb8>
   1327c:	ed3fe06f          	j	1214e <_vfprintf_r+0xd86>
   13280:	567a                	lw	a2,188(sp)
   13282:	576a                	lw	a4,184(sp)
   13284:	47f2                	lw	a5,28(sp)
   13286:	8b4e                	mv	s6,s3
   13288:	d58ff06f          	j	127e0 <_vfprintf_r+0x1418>
   1328c:	8cd6                	mv	s9,s5
   1328e:	8c56                	mv	s8,s5
   13290:	d002                	sw	zero,32(sp)
   13292:	4a81                	li	s5,0
   13294:	ce02                	sw	zero,28(sp)
   13296:	4301                	li	t1,0
   13298:	ac4fe06f          	j	1155c <_vfprintf_r+0x194>
   1329c:	67ed                	lui	a5,0x1b
   1329e:	95c78793          	addi	a5,a5,-1700 # 1a95c <__clzsi2+0x4a>
   132a2:	b2d1                	j	12c66 <_vfprintf_r+0x189e>
   132a4:	4482                	lw	s1,0(sp)
   132a6:	eb5fe06f          	j	1215a <_vfprintf_r+0xd92>
   132aa:	06700893          	li	a7,103
   132ae:	5632                	lw	a2,44(sp)
   132b0:	00064703          	lbu	a4,0(a2)
   132b4:	f0170693          	addi	a3,a4,-255
   132b8:	1e068163          	beqz	a3,1349a <_vfprintf_r+0x20d2>
   132bc:	1c675f63          	bge	a4,t1,1349a <_vfprintf_r+0x20d2>
   132c0:	4501                	li	a0,0
   132c2:	4581                	li	a1,0
   132c4:	86b2                	mv	a3,a2
   132c6:	a801                	j	132d6 <_vfprintf_r+0x1f0e>
   132c8:	0585                	addi	a1,a1,1
   132ca:	0685                	addi	a3,a3,1
   132cc:	f0170613          	addi	a2,a4,-255
   132d0:	ce59                	beqz	a2,1336e <_vfprintf_r+0x1fa6>
   132d2:	08675e63          	bge	a4,t1,1336e <_vfprintf_r+0x1fa6>
   132d6:	40e30333          	sub	t1,t1,a4
   132da:	0016c703          	lbu	a4,1(a3)
   132de:	f76d                	bnez	a4,132c8 <_vfprintf_r+0x1f00>
   132e0:	0006c703          	lbu	a4,0(a3)
   132e4:	0505                	addi	a0,a0,1 # 80000001 <__BSS_END__+0x7ffe344d>
   132e6:	b7dd                	j	132cc <_vfprintf_r+0x1f04>
   132e8:	67ed                	lui	a5,0x1b
   132ea:	95c78793          	addi	a5,a5,-1700 # 1a95c <__clzsi2+0x4a>
   132ee:	ed6ff06f          	j	129c4 <_vfprintf_r+0x15fc>
   132f2:	fffa8c93          	addi	s9,s5,-1
   132f6:	5b02                	lw	s6,32(sp)
   132f8:	58d2                	lw	a7,52(sp)
   132fa:	57e2                	lw	a5,56(sp)
   132fc:	4d06                	lw	s10,64(sp)
   132fe:	4926                	lw	s2,72(sp)
   13300:	9ae2                	add	s5,s5,s8
   13302:	8762                	mv	a4,s8
   13304:	03000613          	li	a2,48
   13308:	000cd463          	bgez	s9,13310 <_vfprintf_r+0x1f48>
   1330c:	dd2fe06f          	j	118de <_vfprintf_r+0x516>
   13310:	0705                	addi	a4,a4,1
   13312:	fec70fa3          	sb	a2,-1(a4)
   13316:	feea9de3          	bne	s5,a4,13310 <_vfprintf_r+0x1f48>
   1331a:	019c0733          	add	a4,s8,s9
   1331e:	00170c13          	addi	s8,a4,1
   13322:	dbcfe06f          	j	118de <_vfprintf_r+0x516>
   13326:	570a                	lw	a4,160(sp)
   13328:	48e2                	lw	a7,24(sp)
   1332a:	bb976ee3          	bltu	a4,s9,12ee6 <_vfprintf_r+0x1b1e>
   1332e:	8f1d                	sub	a4,a4,a5
   13330:	cc3a                	sw	a4,24(sp)
   13332:	bed9                	j	12f08 <_vfprintf_r+0x1b40>
   13334:	0108                	addi	a0,sp,128
   13336:	188c                	addi	a1,sp,112
   13338:	ce3e                	sw	a5,28(sp)
   1333a:	cc46                	sw	a7,24(sp)
   1333c:	c176                	sw	t4,128(sp)
   1333e:	c37a                	sw	t5,132(sp)
   13340:	c516                	sw	t0,136(sp)
   13342:	c766                	sw	s9,140(sp)
   13344:	d882                	sw	zero,112(sp)
   13346:	da82                	sw	zero,116(sp)
   13348:	dc82                	sw	zero,120(sp)
   1334a:	de82                	sw	zero,124(sp)
   1334c:	298050ef          	jal	185e4 <__eqtf2>
   13350:	48e2                	lw	a7,24(sp)
   13352:	47f2                	lw	a5,28(sp)
   13354:	e149                	bnez	a0,133d6 <_vfprintf_r+0x200e>
   13356:	436a                	lw	t1,152(sp)
   13358:	00648cb3          	add	s9,s1,t1
   1335c:	b455                	j	12e00 <_vfprintf_r+0x1a38>
   1335e:	5712                	lw	a4,36(sp)
   13360:	006a8f33          	add	t5,s5,t1
   13364:	06600893          	li	a7,102
   13368:	00ef0cb3          	add	s9,t5,a4
   1336c:	bc45                	j	12e1c <_vfprintf_r+0x1a54>
   1336e:	d636                	sw	a3,44(sp)
   13370:	4696                	lw	a3,68(sp)
   13372:	00b50733          	add	a4,a0,a1
   13376:	ce2e                	sw	a1,28(sp)
   13378:	02d70733          	mul	a4,a4,a3
   1337c:	d02a                	sw	a0,32(sp)
   1337e:	9cba                	add	s9,s9,a4
   13380:	5742                	lw	a4,48(sp)
   13382:	fffcc693          	not	a3,s9
   13386:	86fd                	srai	a3,a3,0x1f
   13388:	00dcfc33          	and	s8,s9,a3
   1338c:	c379                	beqz	a4,13452 <_vfprintf_r+0x208a>
   1338e:	02d00713          	li	a4,45
   13392:	4bb2                	lw	s7,12(sp)
   13394:	08e109a3          	sb	a4,147(sp)
   13398:	0c05                	addi	s8,s8,1
   1339a:	c602                	sw	zero,12(sp)
   1339c:	4a81                	li	s5,0
   1339e:	9befe06f          	j	1155c <_vfprintf_r+0x194>
   133a2:	02d00713          	li	a4,45
   133a6:	0ae102a3          	sb	a4,165(sp)
   133aa:	56e1                	li	a3,-8
   133ac:	4705                	li	a4,1
   133ae:	40670733          	sub	a4,a4,t1
   133b2:	b6d34de3          	blt	t1,a3,12f2c <_vfprintf_r+0x1b64>
   133b6:	03000693          	li	a3,48
   133ba:	0ad10323          	sb	a3,166(sp)
   133be:	ce5e                	sw	s7,28(sp)
   133c0:	c602                	sw	zero,12(sp)
   133c2:	0a710693          	addi	a3,sp,167
   133c6:	d4cfe06f          	j	11912 <_vfprintf_r+0x54a>
   133ca:	e31d                	bnez	a4,133f0 <_vfprintf_r+0x2028>
   133cc:	4c05                	li	s8,1
   133ce:	8ce2                	mv	s9,s8
   133d0:	06600893          	li	a7,102
   133d4:	bca9                	j	12e2e <_vfprintf_r+0x1a66>
   133d6:	4f85                	li	t6,1
   133d8:	570a                	lw	a4,160(sp)
   133da:	415f8fb3          	sub	t6,t6,s5
   133de:	cd7e                	sw	t6,152(sp)
   133e0:	00178c93          	addi	s9,a5,1
   133e4:	b19761e3          	bltu	a4,s9,12ee6 <_vfprintf_r+0x1b1e>
   133e8:	8f1d                	sub	a4,a4,a5
   133ea:	837e                	mv	t1,t6
   133ec:	cc3a                	sw	a4,24(sp)
   133ee:	bc21                	j	12e06 <_vfprintf_r+0x1a3e>
   133f0:	5712                	lw	a4,36(sp)
   133f2:	06600893          	li	a7,102
   133f6:	00170f13          	addi	t5,a4,1
   133fa:	015f0cb3          	add	s9,t5,s5
   133fe:	fffcc693          	not	a3,s9
   13402:	86fd                	srai	a3,a3,0x1f
   13404:	00dcfc33          	and	s8,s9,a3
   13408:	b41d                	j	12e2e <_vfprintf_r+0x1a66>
   1340a:	47c2                	lw	a5,16(sp)
   1340c:	0007aa83          	lw	s5,0(a5)
   13410:	0791                	addi	a5,a5,4
   13412:	000ad363          	bgez	s5,13418 <_vfprintf_r+0x2050>
   13416:	5afd                	li	s5,-1
   13418:	001d4883          	lbu	a7,1(s10)
   1341c:	c83e                	sw	a5,16(sp)
   1341e:	8d36                	mv	s10,a3
   13420:	8dcfe06f          	j	114fc <_vfprintf_r+0x134>
   13424:	c3880813          	addi	a6,a6,-968
   13428:	cf8ff06f          	j	12920 <_vfprintf_r+0x1558>
   1342c:	436a                	lw	t1,152(sp)
   1342e:	be75                	j	12fea <_vfprintf_r+0x1c22>
   13430:	66ed                	lui	a3,0x1b
   13432:	96468713          	addi	a4,a3,-1692 # 1a964 <__clzsi2+0x52>
   13436:	cc3a                	sw	a4,24(sp)
   13438:	b5cfe06f          	j	11794 <_vfprintf_r+0x3cc>
   1343c:	02d00713          	li	a4,45
   13440:	0ae102a3          	sb	a4,165(sp)
   13444:	56e1                	li	a3,-8
   13446:	4705                	li	a4,1
   13448:	8f11                	sub	a4,a4,a2
   1344a:	aed643e3          	blt	a2,a3,12f30 <_vfprintf_r+0x1b68>
   1344e:	cc0fe06f          	j	1190e <_vfprintf_r+0x546>
   13452:	09314703          	lbu	a4,147(sp)
   13456:	cf11                	beqz	a4,13472 <_vfprintf_r+0x20aa>
   13458:	4bb2                	lw	s7,12(sp)
   1345a:	0c05                	addi	s8,s8,1
   1345c:	c602                	sw	zero,12(sp)
   1345e:	4a81                	li	s5,0
   13460:	8fcfe06f          	j	1155c <_vfprintf_r+0x194>
   13464:	4709                	li	a4,2
   13466:	dc3a                	sw	a4,56(sp)
   13468:	be05                	j	12f98 <_vfprintf_r+0x1bd0>
   1346a:	c3880813          	addi	a6,a6,-968
   1346e:	ef6ff06f          	j	12b64 <_vfprintf_r+0x179c>
   13472:	4bb2                	lw	s7,12(sp)
   13474:	4a81                	li	s5,0
   13476:	c602                	sw	zero,12(sp)
   13478:	8e4fe06f          	j	1155c <_vfprintf_r+0x194>
   1347c:	4a81                	li	s5,0
   1347e:	d002                	sw	zero,32(sp)
   13480:	ce02                	sw	zero,28(sp)
   13482:	c602                	sw	zero,12(sp)
   13484:	4c8d                	li	s9,3
   13486:	4c11                	li	s8,4
   13488:	8d4fe06f          	j	1155c <_vfprintf_r+0x194>
   1348c:	4762                	lw	a4,24(sp)
   1348e:	973e                	add	a4,a4,a5
   13490:	b2e9                	j	12e5a <_vfprintf_r+0x1a92>
   13492:	8f1d                	sub	a4,a4,a5
   13494:	436a                	lw	t1,152(sp)
   13496:	cc3a                	sw	a4,24(sp)
   13498:	be89                	j	12fea <_vfprintf_r+0x1c22>
   1349a:	4701                	li	a4,0
   1349c:	d002                	sw	zero,32(sp)
   1349e:	ce02                	sw	zero,28(sp)
   134a0:	bdf9                	j	1337e <_vfprintf_r+0x1fb6>
   134a2:	4482                	lw	s1,0(sp)
   134a4:	00c4d783          	lhu	a5,12(s1)
   134a8:	0407e793          	ori	a5,a5,64
   134ac:	00f49623          	sh	a5,12(s1)
   134b0:	cabfe06f          	j	1215a <_vfprintf_r+0xd92>
   134b4:	c3880813          	addi	a6,a6,-968
   134b8:	b34d                	j	1325a <_vfprintf_r+0x1e92>
   134ba:	d002                	sw	zero,32(sp)
   134bc:	ce02                	sw	zero,28(sp)
   134be:	89efe06f          	j	1155c <_vfprintf_r+0x194>
   134c2:	436a                	lw	t1,152(sp)
   134c4:	b4b1                	j	12f10 <_vfprintf_r+0x1b48>

000134c6 <vfprintf>:
   134c6:	872a                	mv	a4,a0
   134c8:	f3c1a503          	lw	a0,-196(gp) # 1c86c <_impure_ptr>
   134cc:	86b2                	mv	a3,a2
   134ce:	862e                	mv	a2,a1
   134d0:	85ba                	mv	a1,a4
   134d2:	ef7fd06f          	j	113c8 <_vfprintf_r>

000134d6 <__sbprintf>:
   134d6:	00c5d783          	lhu	a5,12(a1)
   134da:	0645ae83          	lw	t4,100(a1)
   134de:	00e5de03          	lhu	t3,14(a1)
   134e2:	01c5a303          	lw	t1,28(a1)
   134e6:	0245a883          	lw	a7,36(a1)
   134ea:	b7010113          	addi	sp,sp,-1168
   134ee:	9bf5                	andi	a5,a5,-3
   134f0:	08010813          	addi	a6,sp,128
   134f4:	40000713          	li	a4,1024
   134f8:	48812423          	sw	s0,1160(sp)
   134fc:	842e                	mv	s0,a1
   134fe:	082c                	addi	a1,sp,24
   13500:	48912223          	sw	s1,1156(sp)
   13504:	02f11223          	sh	a5,36(sp)
   13508:	48112623          	sw	ra,1164(sp)
   1350c:	d802                	sw	zero,48(sp)
   1350e:	def6                	sw	t4,124(sp)
   13510:	03c11323          	sh	t3,38(sp)
   13514:	da1a                	sw	t1,52(sp)
   13516:	de46                	sw	a7,60(sp)
   13518:	cc42                	sw	a6,24(sp)
   1351a:	d442                	sw	a6,40(sp)
   1351c:	d03a                	sw	a4,32(sp)
   1351e:	d63a                	sw	a4,44(sp)
   13520:	84aa                	mv	s1,a0
   13522:	ea7fd0ef          	jal	113c8 <_vfprintf_r>
   13526:	87aa                	mv	a5,a0
   13528:	02055763          	bgez	a0,13556 <__sbprintf+0x80>
   1352c:	02415703          	lhu	a4,36(sp)
   13530:	04077713          	andi	a4,a4,64
   13534:	c719                	beqz	a4,13542 <__sbprintf+0x6c>
   13536:	00c45703          	lhu	a4,12(s0)
   1353a:	04076713          	ori	a4,a4,64
   1353e:	00e41623          	sh	a4,12(s0)
   13542:	48c12083          	lw	ra,1164(sp)
   13546:	48812403          	lw	s0,1160(sp)
   1354a:	48412483          	lw	s1,1156(sp)
   1354e:	853e                	mv	a0,a5
   13550:	49010113          	addi	sp,sp,1168
   13554:	8082                	ret
   13556:	c62a                	sw	a0,12(sp)
   13558:	082c                	addi	a1,sp,24
   1355a:	8526                	mv	a0,s1
   1355c:	2441                	jal	137dc <_fflush_r>
   1355e:	47b2                	lw	a5,12(sp)
   13560:	d571                	beqz	a0,1352c <__sbprintf+0x56>
   13562:	57fd                	li	a5,-1
   13564:	b7e1                	j	1352c <__sbprintf+0x56>

00013566 <__sprint_r>:
   13566:	4618                	lw	a4,8(a2)
   13568:	e709                	bnez	a4,13572 <__sprint_r+0xc>
   1356a:	4501                	li	a0,0
   1356c:	00062223          	sw	zero,4(a2)
   13570:	8082                	ret
   13572:	1101                	addi	sp,sp,-32
   13574:	ce06                	sw	ra,28(sp)
   13576:	c632                	sw	a2,12(sp)
   13578:	2ccd                	jal	1386a <__sfvwrite_r>
   1357a:	47b2                	lw	a5,12(sp)
   1357c:	40f2                	lw	ra,28(sp)
   1357e:	0007a423          	sw	zero,8(a5)
   13582:	0007a223          	sw	zero,4(a5)
   13586:	6105                	addi	sp,sp,32
   13588:	8082                	ret

0001358a <_fclose_r>:
   1358a:	1141                	addi	sp,sp,-16
   1358c:	c606                	sw	ra,12(sp)
   1358e:	c04a                	sw	s2,0(sp)
   13590:	cdb5                	beqz	a1,1360c <_fclose_r+0x82>
   13592:	c422                	sw	s0,8(sp)
   13594:	c226                	sw	s1,4(sp)
   13596:	842e                	mv	s0,a1
   13598:	84aa                	mv	s1,a0
   1359a:	c119                	beqz	a0,135a0 <_fclose_r+0x16>
   1359c:	595c                	lw	a5,52(a0)
   1359e:	cbd9                	beqz	a5,13634 <_fclose_r+0xaa>
   135a0:	f33fc0ef          	jal	104d2 <__sfp_lock_acquire>
   135a4:	00c41783          	lh	a5,12(s0)
   135a8:	cfb1                	beqz	a5,13604 <_fclose_r+0x7a>
   135aa:	85a2                	mv	a1,s0
   135ac:	8526                	mv	a0,s1
   135ae:	2851                	jal	13642 <__sflush_r>
   135b0:	545c                	lw	a5,44(s0)
   135b2:	892a                	mv	s2,a0
   135b4:	c791                	beqz	a5,135c0 <_fclose_r+0x36>
   135b6:	4c4c                	lw	a1,28(s0)
   135b8:	8526                	mv	a0,s1
   135ba:	9782                	jalr	a5
   135bc:	06054563          	bltz	a0,13626 <_fclose_r+0x9c>
   135c0:	00c45783          	lhu	a5,12(s0)
   135c4:	0807f793          	andi	a5,a5,128
   135c8:	eba1                	bnez	a5,13618 <_fclose_r+0x8e>
   135ca:	580c                	lw	a1,48(s0)
   135cc:	c991                	beqz	a1,135e0 <_fclose_r+0x56>
   135ce:	04040793          	addi	a5,s0,64
   135d2:	00f58563          	beq	a1,a5,135dc <_fclose_r+0x52>
   135d6:	8526                	mv	a0,s1
   135d8:	dc8fd0ef          	jal	10ba0 <_free_r>
   135dc:	02042823          	sw	zero,48(s0)
   135e0:	406c                	lw	a1,68(s0)
   135e2:	c591                	beqz	a1,135ee <_fclose_r+0x64>
   135e4:	8526                	mv	a0,s1
   135e6:	dbafd0ef          	jal	10ba0 <_free_r>
   135ea:	04042223          	sw	zero,68(s0)
   135ee:	00041623          	sh	zero,12(s0)
   135f2:	ee3fc0ef          	jal	104d4 <__sfp_lock_release>
   135f6:	40b2                	lw	ra,12(sp)
   135f8:	4422                	lw	s0,8(sp)
   135fa:	4492                	lw	s1,4(sp)
   135fc:	854a                	mv	a0,s2
   135fe:	4902                	lw	s2,0(sp)
   13600:	0141                	addi	sp,sp,16
   13602:	8082                	ret
   13604:	ed1fc0ef          	jal	104d4 <__sfp_lock_release>
   13608:	4422                	lw	s0,8(sp)
   1360a:	4492                	lw	s1,4(sp)
   1360c:	40b2                	lw	ra,12(sp)
   1360e:	4901                	li	s2,0
   13610:	854a                	mv	a0,s2
   13612:	4902                	lw	s2,0(sp)
   13614:	0141                	addi	sp,sp,16
   13616:	8082                	ret
   13618:	480c                	lw	a1,16(s0)
   1361a:	8526                	mv	a0,s1
   1361c:	d84fd0ef          	jal	10ba0 <_free_r>
   13620:	580c                	lw	a1,48(s0)
   13622:	f5d5                	bnez	a1,135ce <_fclose_r+0x44>
   13624:	bf75                	j	135e0 <_fclose_r+0x56>
   13626:	00c45783          	lhu	a5,12(s0)
   1362a:	597d                	li	s2,-1
   1362c:	0807f793          	andi	a5,a5,128
   13630:	dfc9                	beqz	a5,135ca <_fclose_r+0x40>
   13632:	b7dd                	j	13618 <_fclose_r+0x8e>
   13634:	e89fc0ef          	jal	104bc <__sinit>
   13638:	b7a5                	j	135a0 <_fclose_r+0x16>

0001363a <fclose>:
   1363a:	85aa                	mv	a1,a0
   1363c:	f3c1a503          	lw	a0,-196(gp) # 1c86c <_impure_ptr>
   13640:	b7a9                	j	1358a <_fclose_r>

00013642 <__sflush_r>:
   13642:	00c59703          	lh	a4,12(a1)
   13646:	1101                	addi	sp,sp,-32
   13648:	cc22                	sw	s0,24(sp)
   1364a:	c64e                	sw	s3,12(sp)
   1364c:	ce06                	sw	ra,28(sp)
   1364e:	00877793          	andi	a5,a4,8
   13652:	842e                	mv	s0,a1
   13654:	89aa                	mv	s3,a0
   13656:	e7f1                	bnez	a5,13722 <__sflush_r+0xe0>
   13658:	6785                	lui	a5,0x1
   1365a:	80078793          	addi	a5,a5,-2048 # 800 <exit-0xf8b4>
   1365e:	41d4                	lw	a3,4(a1)
   13660:	8fd9                	or	a5,a5,a4
   13662:	00f59623          	sh	a5,12(a1)
   13666:	10d05b63          	blez	a3,1377c <__sflush_r+0x13a>
   1366a:	02842803          	lw	a6,40(s0)
   1366e:	0a080463          	beqz	a6,13716 <__sflush_r+0xd4>
   13672:	ca26                	sw	s1,20(sp)
   13674:	01371693          	slli	a3,a4,0x13
   13678:	0009a483          	lw	s1,0(s3)
   1367c:	0009a023          	sw	zero,0(s3)
   13680:	1006c563          	bltz	a3,1378a <__sflush_r+0x148>
   13684:	4c4c                	lw	a1,28(s0)
   13686:	4601                	li	a2,0
   13688:	4685                	li	a3,1
   1368a:	854e                	mv	a0,s3
   1368c:	9802                	jalr	a6
   1368e:	57fd                	li	a5,-1
   13690:	862a                	mv	a2,a0
   13692:	12f50363          	beq	a0,a5,137b8 <__sflush_r+0x176>
   13696:	00c41783          	lh	a5,12(s0)
   1369a:	02842803          	lw	a6,40(s0)
   1369e:	8b91                	andi	a5,a5,4
   136a0:	c799                	beqz	a5,136ae <__sflush_r+0x6c>
   136a2:	4058                	lw	a4,4(s0)
   136a4:	581c                	lw	a5,48(s0)
   136a6:	8e19                	sub	a2,a2,a4
   136a8:	c399                	beqz	a5,136ae <__sflush_r+0x6c>
   136aa:	5c5c                	lw	a5,60(s0)
   136ac:	8e1d                	sub	a2,a2,a5
   136ae:	4c4c                	lw	a1,28(s0)
   136b0:	4681                	li	a3,0
   136b2:	854e                	mv	a0,s3
   136b4:	9802                	jalr	a6
   136b6:	577d                	li	a4,-1
   136b8:	00c41783          	lh	a5,12(s0)
   136bc:	0ce51963          	bne	a0,a4,1378e <__sflush_r+0x14c>
   136c0:	0009a683          	lw	a3,0(s3)
   136c4:	4775                	li	a4,29
   136c6:	10d76463          	bltu	a4,a3,137ce <__sflush_r+0x18c>
   136ca:	20400737          	lui	a4,0x20400
   136ce:	0705                	addi	a4,a4,1 # 20400001 <__BSS_END__+0x203e344d>
   136d0:	00d75733          	srl	a4,a4,a3
   136d4:	8b05                	andi	a4,a4,1
   136d6:	cf65                	beqz	a4,137ce <__sflush_r+0x18c>
   136d8:	4814                	lw	a3,16(s0)
   136da:	777d                	lui	a4,0xfffff
   136dc:	7ff70713          	addi	a4,a4,2047 # fffff7ff <__BSS_END__+0xfffe2c4b>
   136e0:	8f7d                	and	a4,a4,a5
   136e2:	00e41623          	sh	a4,12(s0)
   136e6:	00042223          	sw	zero,4(s0)
   136ea:	c014                	sw	a3,0(s0)
   136ec:	01379713          	slli	a4,a5,0x13
   136f0:	00075563          	bgez	a4,136fa <__sflush_r+0xb8>
   136f4:	0009a783          	lw	a5,0(s3)
   136f8:	cbcd                	beqz	a5,137aa <__sflush_r+0x168>
   136fa:	580c                	lw	a1,48(s0)
   136fc:	0099a023          	sw	s1,0(s3)
   13700:	c9d5                	beqz	a1,137b4 <__sflush_r+0x172>
   13702:	04040793          	addi	a5,s0,64
   13706:	00f58563          	beq	a1,a5,13710 <__sflush_r+0xce>
   1370a:	854e                	mv	a0,s3
   1370c:	c94fd0ef          	jal	10ba0 <_free_r>
   13710:	44d2                	lw	s1,20(sp)
   13712:	02042823          	sw	zero,48(s0)
   13716:	40f2                	lw	ra,28(sp)
   13718:	4462                	lw	s0,24(sp)
   1371a:	49b2                	lw	s3,12(sp)
   1371c:	4501                	li	a0,0
   1371e:	6105                	addi	sp,sp,32
   13720:	8082                	ret
   13722:	c84a                	sw	s2,16(sp)
   13724:	0105a903          	lw	s2,16(a1)
   13728:	04090f63          	beqz	s2,13786 <__sflush_r+0x144>
   1372c:	ca26                	sw	s1,20(sp)
   1372e:	4184                	lw	s1,0(a1)
   13730:	8b0d                	andi	a4,a4,3
   13732:	0125a023          	sw	s2,0(a1)
   13736:	412484b3          	sub	s1,s1,s2
   1373a:	4781                	li	a5,0
   1373c:	e311                	bnez	a4,13740 <__sflush_r+0xfe>
   1373e:	49dc                	lw	a5,20(a1)
   13740:	c41c                	sw	a5,8(s0)
   13742:	00904663          	bgtz	s1,1374e <__sflush_r+0x10c>
   13746:	a83d                	j	13784 <__sflush_r+0x142>
   13748:	992a                	add	s2,s2,a0
   1374a:	02905d63          	blez	s1,13784 <__sflush_r+0x142>
   1374e:	505c                	lw	a5,36(s0)
   13750:	4c4c                	lw	a1,28(s0)
   13752:	86a6                	mv	a3,s1
   13754:	864a                	mv	a2,s2
   13756:	854e                	mv	a0,s3
   13758:	9782                	jalr	a5
   1375a:	8c89                	sub	s1,s1,a0
   1375c:	fea046e3          	bgtz	a0,13748 <__sflush_r+0x106>
   13760:	00c45783          	lhu	a5,12(s0)
   13764:	4942                	lw	s2,16(sp)
   13766:	0407e793          	ori	a5,a5,64
   1376a:	40f2                	lw	ra,28(sp)
   1376c:	00f41623          	sh	a5,12(s0)
   13770:	4462                	lw	s0,24(sp)
   13772:	44d2                	lw	s1,20(sp)
   13774:	49b2                	lw	s3,12(sp)
   13776:	557d                	li	a0,-1
   13778:	6105                	addi	sp,sp,32
   1377a:	8082                	ret
   1377c:	5dd4                	lw	a3,60(a1)
   1377e:	eed046e3          	bgtz	a3,1366a <__sflush_r+0x28>
   13782:	bf51                	j	13716 <__sflush_r+0xd4>
   13784:	44d2                	lw	s1,20(sp)
   13786:	4942                	lw	s2,16(sp)
   13788:	b779                	j	13716 <__sflush_r+0xd4>
   1378a:	4830                	lw	a2,80(s0)
   1378c:	bf09                	j	1369e <__sflush_r+0x5c>
   1378e:	4814                	lw	a3,16(s0)
   13790:	777d                	lui	a4,0xfffff
   13792:	7ff70713          	addi	a4,a4,2047 # fffff7ff <__BSS_END__+0xfffe2c4b>
   13796:	8f7d                	and	a4,a4,a5
   13798:	00e41623          	sh	a4,12(s0)
   1379c:	00042223          	sw	zero,4(s0)
   137a0:	c014                	sw	a3,0(s0)
   137a2:	01379713          	slli	a4,a5,0x13
   137a6:	f4075ae3          	bgez	a4,136fa <__sflush_r+0xb8>
   137aa:	580c                	lw	a1,48(s0)
   137ac:	c828                	sw	a0,80(s0)
   137ae:	0099a023          	sw	s1,0(s3)
   137b2:	f9a1                	bnez	a1,13702 <__sflush_r+0xc0>
   137b4:	44d2                	lw	s1,20(sp)
   137b6:	b785                	j	13716 <__sflush_r+0xd4>
   137b8:	0009a783          	lw	a5,0(s3)
   137bc:	ec078de3          	beqz	a5,13696 <__sflush_r+0x54>
   137c0:	fe378713          	addi	a4,a5,-29
   137c4:	cb01                	beqz	a4,137d4 <__sflush_r+0x192>
   137c6:	17a9                	addi	a5,a5,-22
   137c8:	c791                	beqz	a5,137d4 <__sflush_r+0x192>
   137ca:	00c45783          	lhu	a5,12(s0)
   137ce:	0407e793          	ori	a5,a5,64
   137d2:	bf61                	j	1376a <__sflush_r+0x128>
   137d4:	0099a023          	sw	s1,0(s3)
   137d8:	44d2                	lw	s1,20(sp)
   137da:	bf35                	j	13716 <__sflush_r+0xd4>

000137dc <_fflush_r>:
   137dc:	87aa                	mv	a5,a0
   137de:	c119                	beqz	a0,137e4 <_fflush_r+0x8>
   137e0:	5958                	lw	a4,52(a0)
   137e2:	cb01                	beqz	a4,137f2 <_fflush_r+0x16>
   137e4:	00c59703          	lh	a4,12(a1)
   137e8:	e319                	bnez	a4,137ee <_fflush_r+0x12>
   137ea:	4501                	li	a0,0
   137ec:	8082                	ret
   137ee:	853e                	mv	a0,a5
   137f0:	bd89                	j	13642 <__sflush_r>
   137f2:	1101                	addi	sp,sp,-32
   137f4:	c62e                	sw	a1,12(sp)
   137f6:	ce06                	sw	ra,28(sp)
   137f8:	c42a                	sw	a0,8(sp)
   137fa:	cc3fc0ef          	jal	104bc <__sinit>
   137fe:	45b2                	lw	a1,12(sp)
   13800:	47a2                	lw	a5,8(sp)
   13802:	00c59703          	lh	a4,12(a1)
   13806:	c709                	beqz	a4,13810 <_fflush_r+0x34>
   13808:	40f2                	lw	ra,28(sp)
   1380a:	853e                	mv	a0,a5
   1380c:	6105                	addi	sp,sp,32
   1380e:	bd15                	j	13642 <__sflush_r>
   13810:	40f2                	lw	ra,28(sp)
   13812:	4501                	li	a0,0
   13814:	6105                	addi	sp,sp,32
   13816:	8082                	ret

00013818 <fflush>:
   13818:	cd05                	beqz	a0,13850 <fflush+0x38>
   1381a:	85aa                	mv	a1,a0
   1381c:	f3c1a503          	lw	a0,-196(gp) # 1c86c <_impure_ptr>
   13820:	c119                	beqz	a0,13826 <fflush+0xe>
   13822:	595c                	lw	a5,52(a0)
   13824:	c799                	beqz	a5,13832 <fflush+0x1a>
   13826:	00c59783          	lh	a5,12(a1)
   1382a:	e399                	bnez	a5,13830 <fflush+0x18>
   1382c:	4501                	li	a0,0
   1382e:	8082                	ret
   13830:	bd09                	j	13642 <__sflush_r>
   13832:	1101                	addi	sp,sp,-32
   13834:	c62e                	sw	a1,12(sp)
   13836:	c42a                	sw	a0,8(sp)
   13838:	ce06                	sw	ra,28(sp)
   1383a:	c83fc0ef          	jal	104bc <__sinit>
   1383e:	45b2                	lw	a1,12(sp)
   13840:	4522                	lw	a0,8(sp)
   13842:	00c59783          	lh	a5,12(a1)
   13846:	ef99                	bnez	a5,13864 <fflush+0x4c>
   13848:	40f2                	lw	ra,28(sp)
   1384a:	4501                	li	a0,0
   1384c:	6105                	addi	sp,sp,32
   1384e:	8082                	ret
   13850:	65cd                	lui	a1,0x13
   13852:	6571                	lui	a0,0x1c
   13854:	82018613          	addi	a2,gp,-2016 # 1c150 <__sglue>
   13858:	7dc58593          	addi	a1,a1,2012 # 137dc <_fflush_r>
   1385c:	16050513          	addi	a0,a0,352 # 1c160 <_impure_data>
   13860:	c93fc06f          	j	104f2 <_fwalk_sglue>
   13864:	40f2                	lw	ra,28(sp)
   13866:	6105                	addi	sp,sp,32
   13868:	bbe9                	j	13642 <__sflush_r>

0001386a <__sfvwrite_r>:
   1386a:	461c                	lw	a5,8(a2)
   1386c:	18078663          	beqz	a5,139f8 <__sfvwrite_r+0x18e>
   13870:	00c59683          	lh	a3,12(a1)
   13874:	7139                	addi	sp,sp,-64
   13876:	dc22                	sw	s0,56(sp)
   13878:	d452                	sw	s4,40(sp)
   1387a:	d256                	sw	s5,36(sp)
   1387c:	de06                	sw	ra,60(sp)
   1387e:	0086f793          	andi	a5,a3,8
   13882:	842e                	mv	s0,a1
   13884:	8aaa                	mv	s5,a0
   13886:	8a32                	mv	s4,a2
   13888:	c7b5                	beqz	a5,138f4 <__sfvwrite_r+0x8a>
   1388a:	499c                	lw	a5,16(a1)
   1388c:	c7a5                	beqz	a5,138f4 <__sfvwrite_r+0x8a>
   1388e:	da26                	sw	s1,52(sp)
   13890:	d84a                	sw	s2,48(sp)
   13892:	d64e                	sw	s3,44(sp)
   13894:	d05a                	sw	s6,32(sp)
   13896:	0026f793          	andi	a5,a3,2
   1389a:	000a2483          	lw	s1,0(s4)
   1389e:	cbbd                	beqz	a5,13914 <__sfvwrite_r+0xaa>
   138a0:	80000b37          	lui	s6,0x80000
   138a4:	c00b0b13          	addi	s6,s6,-1024 # 7ffffc00 <__BSS_END__+0x7ffe304c>
   138a8:	4981                	li	s3,0
   138aa:	4901                	li	s2,0
   138ac:	864e                	mv	a2,s3
   138ae:	8556                	mv	a0,s5
   138b0:	12090e63          	beqz	s2,139ec <__sfvwrite_r+0x182>
   138b4:	86ca                	mv	a3,s2
   138b6:	012b7663          	bgeu	s6,s2,138c2 <__sfvwrite_r+0x58>
   138ba:	800006b7          	lui	a3,0x80000
   138be:	c0068693          	addi	a3,a3,-1024 # 7ffffc00 <__BSS_END__+0x7ffe304c>
   138c2:	505c                	lw	a5,36(s0)
   138c4:	4c4c                	lw	a1,28(s0)
   138c6:	9782                	jalr	a5
   138c8:	2aa05e63          	blez	a0,13b84 <__sfvwrite_r+0x31a>
   138cc:	008a2783          	lw	a5,8(s4)
   138d0:	99aa                	add	s3,s3,a0
   138d2:	40a90933          	sub	s2,s2,a0
   138d6:	8f89                	sub	a5,a5,a0
   138d8:	00fa2423          	sw	a5,8(s4)
   138dc:	fbe1                	bnez	a5,138ac <__sfvwrite_r+0x42>
   138de:	54d2                	lw	s1,52(sp)
   138e0:	5942                	lw	s2,48(sp)
   138e2:	59b2                	lw	s3,44(sp)
   138e4:	5b02                	lw	s6,32(sp)
   138e6:	4501                	li	a0,0
   138e8:	50f2                	lw	ra,60(sp)
   138ea:	5462                	lw	s0,56(sp)
   138ec:	5a22                	lw	s4,40(sp)
   138ee:	5a92                	lw	s5,36(sp)
   138f0:	6121                	addi	sp,sp,64
   138f2:	8082                	ret
   138f4:	85a2                	mv	a1,s0
   138f6:	8556                	mv	a0,s5
   138f8:	2951                	jal	13d8c <__swsetup_r>
   138fa:	1a051c63          	bnez	a0,13ab2 <__sfvwrite_r+0x248>
   138fe:	00c41683          	lh	a3,12(s0)
   13902:	da26                	sw	s1,52(sp)
   13904:	d84a                	sw	s2,48(sp)
   13906:	d64e                	sw	s3,44(sp)
   13908:	d05a                	sw	s6,32(sp)
   1390a:	0026f793          	andi	a5,a3,2
   1390e:	000a2483          	lw	s1,0(s4)
   13912:	f7d9                	bnez	a5,138a0 <__sfvwrite_r+0x36>
   13914:	ce5e                	sw	s7,28(sp)
   13916:	cc62                	sw	s8,24(sp)
   13918:	0016f793          	andi	a5,a3,1
   1391c:	e3e5                	bnez	a5,139fc <__sfvwrite_r+0x192>
   1391e:	401c                	lw	a5,0(s0)
   13920:	80000737          	lui	a4,0x80000
   13924:	fff70c13          	addi	s8,a4,-1 # 7fffffff <__BSS_END__+0x7ffe344b>
   13928:	4b01                	li	s6,0
   1392a:	4981                	li	s3,0
   1392c:	0a098a63          	beqz	s3,139e0 <__sfvwrite_r+0x176>
   13930:	2006f713          	andi	a4,a3,512
   13934:	00842903          	lw	s2,8(s0)
   13938:	853e                	mv	a0,a5
   1393a:	16070e63          	beqz	a4,13ab6 <__sfvwrite_r+0x24c>
   1393e:	8bca                	mv	s7,s2
   13940:	1f29e263          	bltu	s3,s2,13b24 <__sfvwrite_r+0x2ba>
   13944:	4806f713          	andi	a4,a3,1152
   13948:	cb25                	beqz	a4,139b8 <__sfvwrite_r+0x14e>
   1394a:	4850                	lw	a2,20(s0)
   1394c:	480c                	lw	a1,16(s0)
   1394e:	00161713          	slli	a4,a2,0x1
   13952:	9732                	add	a4,a4,a2
   13954:	01f75913          	srli	s2,a4,0x1f
   13958:	40b78bb3          	sub	s7,a5,a1
   1395c:	993a                	add	s2,s2,a4
   1395e:	001b8793          	addi	a5,s7,1
   13962:	40195913          	srai	s2,s2,0x1
   13966:	97ce                	add	a5,a5,s3
   13968:	864a                	mv	a2,s2
   1396a:	00f97463          	bgeu	s2,a5,13972 <__sfvwrite_r+0x108>
   1396e:	893e                	mv	s2,a5
   13970:	863e                	mv	a2,a5
   13972:	4006f693          	andi	a3,a3,1024
   13976:	1c068c63          	beqz	a3,13b4e <__sfvwrite_r+0x2e4>
   1397a:	85b2                	mv	a1,a2
   1397c:	8556                	mv	a0,s5
   1397e:	c3efd0ef          	jal	10dbc <_malloc_r>
   13982:	20050463          	beqz	a0,13b8a <__sfvwrite_r+0x320>
   13986:	480c                	lw	a1,16(s0)
   13988:	865e                	mv	a2,s7
   1398a:	c62a                	sw	a0,12(sp)
   1398c:	099000ef          	jal	14224 <memcpy>
   13990:	00c45783          	lhu	a5,12(s0)
   13994:	4732                	lw	a4,12(sp)
   13996:	b7f7f793          	andi	a5,a5,-1153
   1399a:	0807e793          	ori	a5,a5,128
   1399e:	00f41623          	sh	a5,12(s0)
   139a2:	417907b3          	sub	a5,s2,s7
   139a6:	01770533          	add	a0,a4,s7
   139aa:	01242a23          	sw	s2,20(s0)
   139ae:	c818                	sw	a4,16(s0)
   139b0:	c008                	sw	a0,0(s0)
   139b2:	c41c                	sw	a5,8(s0)
   139b4:	894e                	mv	s2,s3
   139b6:	8bce                	mv	s7,s3
   139b8:	85da                	mv	a1,s6
   139ba:	865e                	mv	a2,s7
   139bc:	2375                	jal	13f68 <memmove>
   139be:	4418                	lw	a4,8(s0)
   139c0:	401c                	lw	a5,0(s0)
   139c2:	41270733          	sub	a4,a4,s2
   139c6:	c418                	sw	a4,8(s0)
   139c8:	008a2703          	lw	a4,8(s4)
   139cc:	97de                	add	a5,a5,s7
   139ce:	c01c                	sw	a5,0(s0)
   139d0:	41370733          	sub	a4,a4,s3
   139d4:	00ea2423          	sw	a4,8(s4)
   139d8:	1a070363          	beqz	a4,13b7e <__sfvwrite_r+0x314>
   139dc:	00c41683          	lh	a3,12(s0)
   139e0:	0004ab03          	lw	s6,0(s1)
   139e4:	0044a983          	lw	s3,4(s1)
   139e8:	04a1                	addi	s1,s1,8
   139ea:	b789                	j	1392c <__sfvwrite_r+0xc2>
   139ec:	0004a983          	lw	s3,0(s1)
   139f0:	0044a903          	lw	s2,4(s1)
   139f4:	04a1                	addi	s1,s1,8
   139f6:	bd5d                	j	138ac <__sfvwrite_r+0x42>
   139f8:	4501                	li	a0,0
   139fa:	8082                	ret
   139fc:	4b01                	li	s6,0
   139fe:	4b81                	li	s7,0
   13a00:	4501                	li	a0,0
   13a02:	4c01                	li	s8,0
   13a04:	040b0e63          	beqz	s6,13a60 <__sfvwrite_r+0x1f6>
   13a08:	c525                	beqz	a0,13a70 <__sfvwrite_r+0x206>
   13a0a:	87de                	mv	a5,s7
   13a0c:	89da                	mv	s3,s6
   13a0e:	0167f363          	bgeu	a5,s6,13a14 <__sfvwrite_r+0x1aa>
   13a12:	89be                	mv	s3,a5
   13a14:	4854                	lw	a3,20(s0)
   13a16:	00842903          	lw	s2,8(s0)
   13a1a:	4008                	lw	a0,0(s0)
   13a1c:	481c                	lw	a5,16(s0)
   13a1e:	9936                	add	s2,s2,a3
   13a20:	00a7f463          	bgeu	a5,a0,13a28 <__sfvwrite_r+0x1be>
   13a24:	07394163          	blt	s2,s3,13a86 <__sfvwrite_r+0x21c>
   13a28:	10d9c763          	blt	s3,a3,13b36 <__sfvwrite_r+0x2cc>
   13a2c:	505c                	lw	a5,36(s0)
   13a2e:	4c4c                	lw	a1,28(s0)
   13a30:	8662                	mv	a2,s8
   13a32:	8556                	mv	a0,s5
   13a34:	9782                	jalr	a5
   13a36:	892a                	mv	s2,a0
   13a38:	06a05163          	blez	a0,13a9a <__sfvwrite_r+0x230>
   13a3c:	412b8bb3          	sub	s7,s7,s2
   13a40:	4505                	li	a0,1
   13a42:	0e0b8463          	beqz	s7,13b2a <__sfvwrite_r+0x2c0>
   13a46:	008a2783          	lw	a5,8(s4)
   13a4a:	412787b3          	sub	a5,a5,s2
   13a4e:	00fa2423          	sw	a5,8(s4)
   13a52:	12078663          	beqz	a5,13b7e <__sfvwrite_r+0x314>
   13a56:	412b0b33          	sub	s6,s6,s2
   13a5a:	9c4a                	add	s8,s8,s2
   13a5c:	fa0b16e3          	bnez	s6,13a08 <__sfvwrite_r+0x19e>
   13a60:	0044ab03          	lw	s6,4(s1)
   13a64:	87a6                	mv	a5,s1
   13a66:	04a1                	addi	s1,s1,8
   13a68:	fe0b0ce3          	beqz	s6,13a60 <__sfvwrite_r+0x1f6>
   13a6c:	0007ac03          	lw	s8,0(a5)
   13a70:	865a                	mv	a2,s6
   13a72:	45a9                	li	a1,10
   13a74:	8562                	mv	a0,s8
   13a76:	181000ef          	jal	143f6 <memchr>
   13a7a:	0e050e63          	beqz	a0,13b76 <__sfvwrite_r+0x30c>
   13a7e:	0505                	addi	a0,a0,1
   13a80:	41850bb3          	sub	s7,a0,s8
   13a84:	b759                	j	13a0a <__sfvwrite_r+0x1a0>
   13a86:	85e2                	mv	a1,s8
   13a88:	864a                	mv	a2,s2
   13a8a:	29f9                	jal	13f68 <memmove>
   13a8c:	401c                	lw	a5,0(s0)
   13a8e:	85a2                	mv	a1,s0
   13a90:	8556                	mv	a0,s5
   13a92:	97ca                	add	a5,a5,s2
   13a94:	c01c                	sw	a5,0(s0)
   13a96:	3399                	jal	137dc <_fflush_r>
   13a98:	d155                	beqz	a0,13a3c <__sfvwrite_r+0x1d2>
   13a9a:	00c41783          	lh	a5,12(s0)
   13a9e:	4bf2                	lw	s7,28(sp)
   13aa0:	4c62                	lw	s8,24(sp)
   13aa2:	54d2                	lw	s1,52(sp)
   13aa4:	5942                	lw	s2,48(sp)
   13aa6:	59b2                	lw	s3,44(sp)
   13aa8:	5b02                	lw	s6,32(sp)
   13aaa:	0407e793          	ori	a5,a5,64
   13aae:	00f41623          	sh	a5,12(s0)
   13ab2:	557d                	li	a0,-1
   13ab4:	bd15                	j	138e8 <__sfvwrite_r+0x7e>
   13ab6:	4818                	lw	a4,16(s0)
   13ab8:	04f76263          	bltu	a4,a5,13afc <__sfvwrite_r+0x292>
   13abc:	4858                	lw	a4,20(s0)
   13abe:	02e9ef63          	bltu	s3,a4,13afc <__sfvwrite_r+0x292>
   13ac2:	86ce                	mv	a3,s3
   13ac4:	013c7363          	bgeu	s8,s3,13aca <__sfvwrite_r+0x260>
   13ac8:	86e2                	mv	a3,s8
   13aca:	02e6e733          	rem	a4,a3,a4
   13ace:	505c                	lw	a5,36(s0)
   13ad0:	4c4c                	lw	a1,28(s0)
   13ad2:	865a                	mv	a2,s6
   13ad4:	8556                	mv	a0,s5
   13ad6:	8e99                	sub	a3,a3,a4
   13ad8:	9782                	jalr	a5
   13ada:	fca050e3          	blez	a0,13a9a <__sfvwrite_r+0x230>
   13ade:	892a                	mv	s2,a0
   13ae0:	008a2783          	lw	a5,8(s4)
   13ae4:	412989b3          	sub	s3,s3,s2
   13ae8:	412787b3          	sub	a5,a5,s2
   13aec:	00fa2423          	sw	a5,8(s4)
   13af0:	c7d9                	beqz	a5,13b7e <__sfvwrite_r+0x314>
   13af2:	00c41683          	lh	a3,12(s0)
   13af6:	401c                	lw	a5,0(s0)
   13af8:	9b4a                	add	s6,s6,s2
   13afa:	bd0d                	j	1392c <__sfvwrite_r+0xc2>
   13afc:	0129f363          	bgeu	s3,s2,13b02 <__sfvwrite_r+0x298>
   13b00:	894e                	mv	s2,s3
   13b02:	853e                	mv	a0,a5
   13b04:	864a                	mv	a2,s2
   13b06:	85da                	mv	a1,s6
   13b08:	2185                	jal	13f68 <memmove>
   13b0a:	401c                	lw	a5,0(s0)
   13b0c:	4418                	lw	a4,8(s0)
   13b0e:	97ca                	add	a5,a5,s2
   13b10:	41270733          	sub	a4,a4,s2
   13b14:	c01c                	sw	a5,0(s0)
   13b16:	c418                	sw	a4,8(s0)
   13b18:	f761                	bnez	a4,13ae0 <__sfvwrite_r+0x276>
   13b1a:	85a2                	mv	a1,s0
   13b1c:	8556                	mv	a0,s5
   13b1e:	397d                	jal	137dc <_fflush_r>
   13b20:	d161                	beqz	a0,13ae0 <__sfvwrite_r+0x276>
   13b22:	bfa5                	j	13a9a <__sfvwrite_r+0x230>
   13b24:	894e                	mv	s2,s3
   13b26:	8bce                	mv	s7,s3
   13b28:	bd41                	j	139b8 <__sfvwrite_r+0x14e>
   13b2a:	85a2                	mv	a1,s0
   13b2c:	8556                	mv	a0,s5
   13b2e:	317d                	jal	137dc <_fflush_r>
   13b30:	f0050be3          	beqz	a0,13a46 <__sfvwrite_r+0x1dc>
   13b34:	b79d                	j	13a9a <__sfvwrite_r+0x230>
   13b36:	864e                	mv	a2,s3
   13b38:	85e2                	mv	a1,s8
   13b3a:	213d                	jal	13f68 <memmove>
   13b3c:	4418                	lw	a4,8(s0)
   13b3e:	401c                	lw	a5,0(s0)
   13b40:	894e                	mv	s2,s3
   13b42:	41370733          	sub	a4,a4,s3
   13b46:	97ce                	add	a5,a5,s3
   13b48:	c418                	sw	a4,8(s0)
   13b4a:	c01c                	sw	a5,0(s0)
   13b4c:	bdc5                	j	13a3c <__sfvwrite_r+0x1d2>
   13b4e:	8556                	mv	a0,s5
   13b50:	4c1020ef          	jal	16810 <_realloc_r>
   13b54:	872a                	mv	a4,a0
   13b56:	e40516e3          	bnez	a0,139a2 <__sfvwrite_r+0x138>
   13b5a:	480c                	lw	a1,16(s0)
   13b5c:	8556                	mv	a0,s5
   13b5e:	842fd0ef          	jal	10ba0 <_free_r>
   13b62:	00c45783          	lhu	a5,12(s0)
   13b66:	4731                	li	a4,12
   13b68:	4bf2                	lw	s7,28(sp)
   13b6a:	4c62                	lw	s8,24(sp)
   13b6c:	00eaa023          	sw	a4,0(s5)
   13b70:	f7f7f793          	andi	a5,a5,-129
   13b74:	b73d                	j	13aa2 <__sfvwrite_r+0x238>
   13b76:	001b0793          	addi	a5,s6,1
   13b7a:	8bbe                	mv	s7,a5
   13b7c:	bd41                	j	13a0c <__sfvwrite_r+0x1a2>
   13b7e:	4bf2                	lw	s7,28(sp)
   13b80:	4c62                	lw	s8,24(sp)
   13b82:	bbb1                	j	138de <__sfvwrite_r+0x74>
   13b84:	00c41783          	lh	a5,12(s0)
   13b88:	bf29                	j	13aa2 <__sfvwrite_r+0x238>
   13b8a:	47b1                	li	a5,12
   13b8c:	00faa023          	sw	a5,0(s5)
   13b90:	4bf2                	lw	s7,28(sp)
   13b92:	00c41783          	lh	a5,12(s0)
   13b96:	4c62                	lw	s8,24(sp)
   13b98:	b729                	j	13aa2 <__sfvwrite_r+0x238>

00013b9a <_putc_r>:
   13b9a:	872a                	mv	a4,a0
   13b9c:	c119                	beqz	a0,13ba2 <_putc_r+0x8>
   13b9e:	595c                	lw	a5,52(a0)
   13ba0:	cb8d                	beqz	a5,13bd2 <_putc_r+0x38>
   13ba2:	461c                	lw	a5,8(a2)
   13ba4:	0ff5f693          	zext.b	a3,a1
   13ba8:	17fd                	addi	a5,a5,-1
   13baa:	c61c                	sw	a5,8(a2)
   13bac:	0007d863          	bgez	a5,13bbc <_putc_r+0x22>
   13bb0:	4e08                	lw	a0,24(a2)
   13bb2:	00a7ce63          	blt	a5,a0,13bce <_putc_r+0x34>
   13bb6:	ff668793          	addi	a5,a3,-10
   13bba:	cb91                	beqz	a5,13bce <_putc_r+0x34>
   13bbc:	421c                	lw	a5,0(a2)
   13bbe:	0ff5f513          	zext.b	a0,a1
   13bc2:	00178713          	addi	a4,a5,1
   13bc6:	c218                	sw	a4,0(a2)
   13bc8:	00d78023          	sb	a3,0(a5)
   13bcc:	8082                	ret
   13bce:	853a                	mv	a0,a4
   13bd0:	a0c5                	j	13cb0 <__swbuf_r>
   13bd2:	1101                	addi	sp,sp,-32
   13bd4:	c632                	sw	a2,12(sp)
   13bd6:	c42e                	sw	a1,8(sp)
   13bd8:	ce06                	sw	ra,28(sp)
   13bda:	c22a                	sw	a0,4(sp)
   13bdc:	8e1fc0ef          	jal	104bc <__sinit>
   13be0:	4632                	lw	a2,12(sp)
   13be2:	45a2                	lw	a1,8(sp)
   13be4:	4712                	lw	a4,4(sp)
   13be6:	461c                	lw	a5,8(a2)
   13be8:	0ff5f693          	zext.b	a3,a1
   13bec:	17fd                	addi	a5,a5,-1
   13bee:	c61c                	sw	a5,8(a2)
   13bf0:	0007d863          	bgez	a5,13c00 <_putc_r+0x66>
   13bf4:	4e08                	lw	a0,24(a2)
   13bf6:	02a7c063          	blt	a5,a0,13c16 <_putc_r+0x7c>
   13bfa:	ff668793          	addi	a5,a3,-10
   13bfe:	cf81                	beqz	a5,13c16 <_putc_r+0x7c>
   13c00:	421c                	lw	a5,0(a2)
   13c02:	0ff5f513          	zext.b	a0,a1
   13c06:	00178713          	addi	a4,a5,1
   13c0a:	c218                	sw	a4,0(a2)
   13c0c:	00d78023          	sb	a3,0(a5)
   13c10:	40f2                	lw	ra,28(sp)
   13c12:	6105                	addi	sp,sp,32
   13c14:	8082                	ret
   13c16:	40f2                	lw	ra,28(sp)
   13c18:	853a                	mv	a0,a4
   13c1a:	6105                	addi	sp,sp,32
   13c1c:	a851                	j	13cb0 <__swbuf_r>

00013c1e <putc>:
   13c1e:	f3c1a683          	lw	a3,-196(gp) # 1c86c <_impure_ptr>
   13c22:	872a                	mv	a4,a0
   13c24:	c299                	beqz	a3,13c2a <putc+0xc>
   13c26:	5adc                	lw	a5,52(a3)
   13c28:	cb9d                	beqz	a5,13c5e <putc+0x40>
   13c2a:	459c                	lw	a5,8(a1)
   13c2c:	0ff77613          	zext.b	a2,a4
   13c30:	17fd                	addi	a5,a5,-1
   13c32:	c59c                	sw	a5,8(a1)
   13c34:	0007d863          	bgez	a5,13c44 <putc+0x26>
   13c38:	4d88                	lw	a0,24(a1)
   13c3a:	00a7ce63          	blt	a5,a0,13c56 <putc+0x38>
   13c3e:	ff660793          	addi	a5,a2,-10
   13c42:	cb91                	beqz	a5,13c56 <putc+0x38>
   13c44:	419c                	lw	a5,0(a1)
   13c46:	0ff77513          	zext.b	a0,a4
   13c4a:	00178713          	addi	a4,a5,1
   13c4e:	c198                	sw	a4,0(a1)
   13c50:	00c78023          	sb	a2,0(a5)
   13c54:	8082                	ret
   13c56:	862e                	mv	a2,a1
   13c58:	8536                	mv	a0,a3
   13c5a:	85ba                	mv	a1,a4
   13c5c:	a891                	j	13cb0 <__swbuf_r>
   13c5e:	1101                	addi	sp,sp,-32
   13c60:	c42a                	sw	a0,8(sp)
   13c62:	8536                	mv	a0,a3
   13c64:	c62e                	sw	a1,12(sp)
   13c66:	c236                	sw	a3,4(sp)
   13c68:	ce06                	sw	ra,28(sp)
   13c6a:	853fc0ef          	jal	104bc <__sinit>
   13c6e:	45b2                	lw	a1,12(sp)
   13c70:	4722                	lw	a4,8(sp)
   13c72:	4692                	lw	a3,4(sp)
   13c74:	459c                	lw	a5,8(a1)
   13c76:	0ff77613          	zext.b	a2,a4
   13c7a:	17fd                	addi	a5,a5,-1
   13c7c:	c59c                	sw	a5,8(a1)
   13c7e:	0007d863          	bgez	a5,13c8e <putc+0x70>
   13c82:	4d88                	lw	a0,24(a1)
   13c84:	02a7c063          	blt	a5,a0,13ca4 <putc+0x86>
   13c88:	ff660793          	addi	a5,a2,-10
   13c8c:	cf81                	beqz	a5,13ca4 <putc+0x86>
   13c8e:	419c                	lw	a5,0(a1)
   13c90:	0ff77513          	zext.b	a0,a4
   13c94:	00178713          	addi	a4,a5,1
   13c98:	c198                	sw	a4,0(a1)
   13c9a:	00c78023          	sb	a2,0(a5)
   13c9e:	40f2                	lw	ra,28(sp)
   13ca0:	6105                	addi	sp,sp,32
   13ca2:	8082                	ret
   13ca4:	40f2                	lw	ra,28(sp)
   13ca6:	862e                	mv	a2,a1
   13ca8:	85ba                	mv	a1,a4
   13caa:	8536                	mv	a0,a3
   13cac:	6105                	addi	sp,sp,32
   13cae:	a009                	j	13cb0 <__swbuf_r>

00013cb0 <__swbuf_r>:
   13cb0:	1101                	addi	sp,sp,-32
   13cb2:	cc22                	sw	s0,24(sp)
   13cb4:	ca26                	sw	s1,20(sp)
   13cb6:	ce06                	sw	ra,28(sp)
   13cb8:	84aa                	mv	s1,a0
   13cba:	842e                	mv	s0,a1
   13cbc:	c119                	beqz	a0,13cc2 <__swbuf_r+0x12>
   13cbe:	595c                	lw	a5,52(a0)
   13cc0:	cbdd                	beqz	a5,13d76 <__swbuf_r+0xc6>
   13cc2:	4e18                	lw	a4,24(a2)
   13cc4:	00c61783          	lh	a5,12(a2)
   13cc8:	c618                	sw	a4,8(a2)
   13cca:	0087f713          	andi	a4,a5,8
   13cce:	cf39                	beqz	a4,13d2c <__swbuf_r+0x7c>
   13cd0:	4a18                	lw	a4,16(a2)
   13cd2:	cf29                	beqz	a4,13d2c <__swbuf_r+0x7c>
   13cd4:	01279693          	slli	a3,a5,0x12
   13cd8:	5278                	lw	a4,100(a2)
   13cda:	6589                	lui	a1,0x2
   13cdc:	0606d663          	bgez	a3,13d48 <__swbuf_r+0x98>
   13ce0:	01271793          	slli	a5,a4,0x12
   13ce4:	0607ce63          	bltz	a5,13d60 <__swbuf_r+0xb0>
   13ce8:	4218                	lw	a4,0(a2)
   13cea:	4a1c                	lw	a5,16(a2)
   13cec:	4a54                	lw	a3,20(a2)
   13cee:	40f707b3          	sub	a5,a4,a5
   13cf2:	06d7d963          	bge	a5,a3,13d64 <__swbuf_r+0xb4>
   13cf6:	0785                	addi	a5,a5,1
   13cf8:	4614                	lw	a3,8(a2)
   13cfa:	00170593          	addi	a1,a4,1
   13cfe:	c20c                	sw	a1,0(a2)
   13d00:	16fd                	addi	a3,a3,-1
   13d02:	c614                	sw	a3,8(a2)
   13d04:	00870023          	sb	s0,0(a4)
   13d08:	4a58                	lw	a4,20(a2)
   13d0a:	0ff47413          	zext.b	s0,s0
   13d0e:	04f70563          	beq	a4,a5,13d58 <__swbuf_r+0xa8>
   13d12:	ff640793          	addi	a5,s0,-10
   13d16:	e789                	bnez	a5,13d20 <__swbuf_r+0x70>
   13d18:	00c65783          	lhu	a5,12(a2)
   13d1c:	8b85                	andi	a5,a5,1
   13d1e:	ef8d                	bnez	a5,13d58 <__swbuf_r+0xa8>
   13d20:	40f2                	lw	ra,28(sp)
   13d22:	8522                	mv	a0,s0
   13d24:	4462                	lw	s0,24(sp)
   13d26:	44d2                	lw	s1,20(sp)
   13d28:	6105                	addi	sp,sp,32
   13d2a:	8082                	ret
   13d2c:	85b2                	mv	a1,a2
   13d2e:	8526                	mv	a0,s1
   13d30:	c632                	sw	a2,12(sp)
   13d32:	28a9                	jal	13d8c <__swsetup_r>
   13d34:	e515                	bnez	a0,13d60 <__swbuf_r+0xb0>
   13d36:	4632                	lw	a2,12(sp)
   13d38:	6589                	lui	a1,0x2
   13d3a:	00c61783          	lh	a5,12(a2)
   13d3e:	5278                	lw	a4,100(a2)
   13d40:	01279693          	slli	a3,a5,0x12
   13d44:	f806cee3          	bltz	a3,13ce0 <__swbuf_r+0x30>
   13d48:	76f9                	lui	a3,0xffffe
   13d4a:	16fd                	addi	a3,a3,-1 # ffffdfff <__BSS_END__+0xfffe144b>
   13d4c:	8fcd                	or	a5,a5,a1
   13d4e:	8f75                	and	a4,a4,a3
   13d50:	00f61623          	sh	a5,12(a2)
   13d54:	d278                	sw	a4,100(a2)
   13d56:	b769                	j	13ce0 <__swbuf_r+0x30>
   13d58:	85b2                	mv	a1,a2
   13d5a:	8526                	mv	a0,s1
   13d5c:	3441                	jal	137dc <_fflush_r>
   13d5e:	d169                	beqz	a0,13d20 <__swbuf_r+0x70>
   13d60:	547d                	li	s0,-1
   13d62:	bf7d                	j	13d20 <__swbuf_r+0x70>
   13d64:	85b2                	mv	a1,a2
   13d66:	8526                	mv	a0,s1
   13d68:	c632                	sw	a2,12(sp)
   13d6a:	3c8d                	jal	137dc <_fflush_r>
   13d6c:	f975                	bnez	a0,13d60 <__swbuf_r+0xb0>
   13d6e:	4632                	lw	a2,12(sp)
   13d70:	4785                	li	a5,1
   13d72:	4218                	lw	a4,0(a2)
   13d74:	b751                	j	13cf8 <__swbuf_r+0x48>
   13d76:	c632                	sw	a2,12(sp)
   13d78:	f44fc0ef          	jal	104bc <__sinit>
   13d7c:	4632                	lw	a2,12(sp)
   13d7e:	b791                	j	13cc2 <__swbuf_r+0x12>

00013d80 <__swbuf>:
   13d80:	87aa                	mv	a5,a0
   13d82:	f3c1a503          	lw	a0,-196(gp) # 1c86c <_impure_ptr>
   13d86:	862e                	mv	a2,a1
   13d88:	85be                	mv	a1,a5
   13d8a:	b71d                	j	13cb0 <__swbuf_r>

00013d8c <__swsetup_r>:
   13d8c:	f3c1a703          	lw	a4,-196(gp) # 1c86c <_impure_ptr>
   13d90:	1101                	addi	sp,sp,-32
   13d92:	ce06                	sw	ra,28(sp)
   13d94:	862a                	mv	a2,a0
   13d96:	87ae                	mv	a5,a1
   13d98:	c319                	beqz	a4,13d9e <__swsetup_r+0x12>
   13d9a:	5b54                	lw	a3,52(a4)
   13d9c:	c2e1                	beqz	a3,13e5c <__swsetup_r+0xd0>
   13d9e:	00c79703          	lh	a4,12(a5)
   13da2:	00877693          	andi	a3,a4,8
   13da6:	c29d                	beqz	a3,13dcc <__swsetup_r+0x40>
   13da8:	4b94                	lw	a3,16(a5)
   13daa:	ce8d                	beqz	a3,13de4 <__swsetup_r+0x58>
   13dac:	00c79703          	lh	a4,12(a5)
   13db0:	00177613          	andi	a2,a4,1
   13db4:	ca39                	beqz	a2,13e0a <__swsetup_r+0x7e>
   13db6:	4bd0                	lw	a2,20(a5)
   13db8:	0007a423          	sw	zero,8(a5)
   13dbc:	4501                	li	a0,0
   13dbe:	40c00633          	neg	a2,a2
   13dc2:	cf90                	sw	a2,24(a5)
   13dc4:	cab9                	beqz	a3,13e1a <__swsetup_r+0x8e>
   13dc6:	40f2                	lw	ra,28(sp)
   13dc8:	6105                	addi	sp,sp,32
   13dca:	8082                	ret
   13dcc:	01077693          	andi	a3,a4,16
   13dd0:	ced1                	beqz	a3,13e6c <__swsetup_r+0xe0>
   13dd2:	00477693          	andi	a3,a4,4
   13dd6:	eab9                	bnez	a3,13e2c <__swsetup_r+0xa0>
   13dd8:	4b94                	lw	a3,16(a5)
   13dda:	00876713          	ori	a4,a4,8
   13dde:	00e79623          	sh	a4,12(a5)
   13de2:	f6e9                	bnez	a3,13dac <__swsetup_r+0x20>
   13de4:	47d8                	lw	a4,12(a5)
   13de6:	20000593          	li	a1,512
   13dea:	28077713          	andi	a4,a4,640
   13dee:	fab70fe3          	beq	a4,a1,13dac <__swsetup_r+0x20>
   13df2:	8532                	mv	a0,a2
   13df4:	85be                	mv	a1,a5
   13df6:	c43e                	sw	a5,8(sp)
   13df8:	669020ef          	jal	16c60 <__smakebuf_r>
   13dfc:	47a2                	lw	a5,8(sp)
   13dfe:	00c79703          	lh	a4,12(a5)
   13e02:	4b94                	lw	a3,16(a5)
   13e04:	00177613          	andi	a2,a4,1
   13e08:	f65d                	bnez	a2,13db6 <__swsetup_r+0x2a>
   13e0a:	00277613          	andi	a2,a4,2
   13e0e:	4581                	li	a1,0
   13e10:	e211                	bnez	a2,13e14 <__swsetup_r+0x88>
   13e12:	4bcc                	lw	a1,20(a5)
   13e14:	c78c                	sw	a1,8(a5)
   13e16:	4501                	li	a0,0
   13e18:	f6dd                	bnez	a3,13dc6 <__swsetup_r+0x3a>
   13e1a:	08077693          	andi	a3,a4,128
   13e1e:	d6c5                	beqz	a3,13dc6 <__swsetup_r+0x3a>
   13e20:	04076713          	ori	a4,a4,64
   13e24:	00e79623          	sh	a4,12(a5)
   13e28:	557d                	li	a0,-1
   13e2a:	bf71                	j	13dc6 <__swsetup_r+0x3a>
   13e2c:	5b8c                	lw	a1,48(a5)
   13e2e:	c185                	beqz	a1,13e4e <__swsetup_r+0xc2>
   13e30:	04078693          	addi	a3,a5,64
   13e34:	00d58b63          	beq	a1,a3,13e4a <__swsetup_r+0xbe>
   13e38:	8532                	mv	a0,a2
   13e3a:	c63e                	sw	a5,12(sp)
   13e3c:	c432                	sw	a2,8(sp)
   13e3e:	d63fc0ef          	jal	10ba0 <_free_r>
   13e42:	47b2                	lw	a5,12(sp)
   13e44:	4622                	lw	a2,8(sp)
   13e46:	00c79703          	lh	a4,12(a5)
   13e4a:	0207a823          	sw	zero,48(a5)
   13e4e:	4b94                	lw	a3,16(a5)
   13e50:	fdb77713          	andi	a4,a4,-37
   13e54:	0007a223          	sw	zero,4(a5)
   13e58:	c394                	sw	a3,0(a5)
   13e5a:	b741                	j	13dda <__swsetup_r+0x4e>
   13e5c:	c42a                	sw	a0,8(sp)
   13e5e:	853a                	mv	a0,a4
   13e60:	c62e                	sw	a1,12(sp)
   13e62:	e5afc0ef          	jal	104bc <__sinit>
   13e66:	47b2                	lw	a5,12(sp)
   13e68:	4622                	lw	a2,8(sp)
   13e6a:	bf15                	j	13d9e <__swsetup_r+0x12>
   13e6c:	46a5                	li	a3,9
   13e6e:	04076713          	ori	a4,a4,64
   13e72:	c214                	sw	a3,0(a2)
   13e74:	00e79623          	sh	a4,12(a5)
   13e78:	557d                	li	a0,-1
   13e7a:	b7b1                	j	13dc6 <__swsetup_r+0x3a>

00013e7c <strncpy>:
   13e7c:	488d                	li	a7,3
   13e7e:	872a                	mv	a4,a0
   13e80:	04c8f763          	bgeu	a7,a2,13ece <strncpy+0x52>
   13e84:	feff0e37          	lui	t3,0xfeff0
   13e88:	80808337          	lui	t1,0x80808
   13e8c:	effe0e13          	addi	t3,t3,-257 # fefefeff <__BSS_END__+0xfefd334b>
   13e90:	08030313          	addi	t1,t1,128 # 80808080 <__BSS_END__+0x807eb4cc>
   13e94:	4194                	lw	a3,0(a1)
   13e96:	01c687b3          	add	a5,a3,t3
   13e9a:	fff6c813          	not	a6,a3
   13e9e:	0107f7b3          	and	a5,a5,a6
   13ea2:	0067f7b3          	and	a5,a5,t1
   13ea6:	e785                	bnez	a5,13ece <strncpy+0x52>
   13ea8:	1671                	addi	a2,a2,-4
   13eaa:	c314                	sw	a3,0(a4)
   13eac:	0711                	addi	a4,a4,4
   13eae:	0591                	addi	a1,a1,4 # 2004 <exit-0xe0b0>
   13eb0:	fec8e2e3          	bltu	a7,a2,13e94 <strncpy+0x18>
   13eb4:	0585                	addi	a1,a1,1
   13eb6:	00170793          	addi	a5,a4,1
   13eba:	ce11                	beqz	a2,13ed6 <strncpy+0x5a>
   13ebc:	fff5c683          	lbu	a3,-1(a1)
   13ec0:	fff60813          	addi	a6,a2,-1
   13ec4:	fed78fa3          	sb	a3,-1(a5)
   13ec8:	ca81                	beqz	a3,13ed8 <strncpy+0x5c>
   13eca:	873e                	mv	a4,a5
   13ecc:	8642                	mv	a2,a6
   13ece:	0585                	addi	a1,a1,1
   13ed0:	00170793          	addi	a5,a4,1
   13ed4:	f665                	bnez	a2,13ebc <strncpy+0x40>
   13ed6:	8082                	ret
   13ed8:	9732                	add	a4,a4,a2
   13eda:	00080863          	beqz	a6,13eea <strncpy+0x6e>
   13ede:	0785                	addi	a5,a5,1
   13ee0:	fe078fa3          	sb	zero,-1(a5)
   13ee4:	fee79de3          	bne	a5,a4,13ede <strncpy+0x62>
   13ee8:	8082                	ret
   13eea:	8082                	ret

00013eec <__localeconv_l>:
   13eec:	0f050513          	addi	a0,a0,240
   13ef0:	8082                	ret

00013ef2 <_localeconv_r>:
   13ef2:	e4818513          	addi	a0,gp,-440 # 1c778 <__global_locale+0xf0>
   13ef6:	8082                	ret

00013ef8 <localeconv>:
   13ef8:	e4818513          	addi	a0,gp,-440 # 1c778 <__global_locale+0xf0>
   13efc:	8082                	ret

00013efe <_sbrk_r>:
   13efe:	1141                	addi	sp,sp,-16
   13f00:	c422                	sw	s0,8(sp)
   13f02:	c226                	sw	s1,4(sp)
   13f04:	84aa                	mv	s1,a0
   13f06:	852e                	mv	a0,a1
   13f08:	c606                	sw	ra,12(sp)
   13f0a:	f401a623          	sw	zero,-180(gp) # 1c87c <errno>
   13f0e:	5f2040ef          	jal	18500 <_sbrk>
   13f12:	57fd                	li	a5,-1
   13f14:	00f50763          	beq	a0,a5,13f22 <_sbrk_r+0x24>
   13f18:	40b2                	lw	ra,12(sp)
   13f1a:	4422                	lw	s0,8(sp)
   13f1c:	4492                	lw	s1,4(sp)
   13f1e:	0141                	addi	sp,sp,16
   13f20:	8082                	ret
   13f22:	f4c1a783          	lw	a5,-180(gp) # 1c87c <errno>
   13f26:	dbed                	beqz	a5,13f18 <_sbrk_r+0x1a>
   13f28:	40b2                	lw	ra,12(sp)
   13f2a:	4422                	lw	s0,8(sp)
   13f2c:	c09c                	sw	a5,0(s1)
   13f2e:	4492                	lw	s1,4(sp)
   13f30:	0141                	addi	sp,sp,16
   13f32:	8082                	ret

00013f34 <__libc_fini_array>:
   13f34:	1141                	addi	sp,sp,-16
   13f36:	c422                	sw	s0,8(sp)
   13f38:	67f1                	lui	a5,0x1c
   13f3a:	6471                	lui	s0,0x1c
   13f3c:	13078793          	addi	a5,a5,304 # 1c130 <Matrix_A>
   13f40:	12c40413          	addi	s0,s0,300 # 1c12c <__do_global_dtors_aux_fini_array_entry>
   13f44:	8f81                	sub	a5,a5,s0
   13f46:	c226                	sw	s1,4(sp)
   13f48:	c606                	sw	ra,12(sp)
   13f4a:	4027d493          	srai	s1,a5,0x2
   13f4e:	c881                	beqz	s1,13f5e <__libc_fini_array+0x2a>
   13f50:	1471                	addi	s0,s0,-4
   13f52:	943e                	add	s0,s0,a5
   13f54:	401c                	lw	a5,0(s0)
   13f56:	14fd                	addi	s1,s1,-1
   13f58:	1471                	addi	s0,s0,-4
   13f5a:	9782                	jalr	a5
   13f5c:	fce5                	bnez	s1,13f54 <__libc_fini_array+0x20>
   13f5e:	40b2                	lw	ra,12(sp)
   13f60:	4422                	lw	s0,8(sp)
   13f62:	4492                	lw	s1,4(sp)
   13f64:	0141                	addi	sp,sp,16
   13f66:	8082                	ret

00013f68 <memmove>:
   13f68:	02b56763          	bltu	a0,a1,13f96 <memmove+0x2e>
   13f6c:	00c58733          	add	a4,a1,a2
   13f70:	0ee56663          	bltu	a0,a4,1405c <memmove+0xf4>
   13f74:	4791                	li	a5,4
   13f76:	0ec7e263          	bltu	a5,a2,1405a <memmove+0xf2>
   13f7a:	00c586b3          	add	a3,a1,a2
   13f7e:	87aa                	mv	a5,a0
   13f80:	1c060463          	beqz	a2,14148 <memmove+0x1e0>
   13f84:	0005c703          	lbu	a4,0(a1)
   13f88:	0585                	addi	a1,a1,1
   13f8a:	0785                	addi	a5,a5,1
   13f8c:	fee78fa3          	sb	a4,-1(a5)
   13f90:	fed59ae3          	bne	a1,a3,13f84 <memmove+0x1c>
   13f94:	8082                	ret
   13f96:	00c507b3          	add	a5,a0,a2
   13f9a:	fcf5fde3          	bgeu	a1,a5,13f74 <memmove+0xc>
   13f9e:	470d                	li	a4,3
   13fa0:	18c77563          	bgeu	a4,a2,1412a <memmove+0x1c2>
   13fa4:	00a5e733          	or	a4,a1,a0
   13fa8:	8b0d                	andi	a4,a4,3
   13faa:	18071263          	bnez	a4,1412e <memmove+0x1c6>
   13fae:	02300293          	li	t0,35
   13fb2:	87aa                	mv	a5,a0
   13fb4:	04c2fd63          	bgeu	t0,a2,1400e <memmove+0xa6>
   13fb8:	0005af83          	lw	t6,0(a1)
   13fbc:	0045af03          	lw	t5,4(a1)
   13fc0:	0085ae83          	lw	t4,8(a1)
   13fc4:	00c5ae03          	lw	t3,12(a1)
   13fc8:	0105a303          	lw	t1,16(a1)
   13fcc:	0145a883          	lw	a7,20(a1)
   13fd0:	0185a803          	lw	a6,24(a1)
   13fd4:	4dd4                	lw	a3,28(a1)
   13fd6:	5198                	lw	a4,32(a1)
   13fd8:	fdc60613          	addi	a2,a2,-36
   13fdc:	01f7a023          	sw	t6,0(a5)
   13fe0:	01e7a223          	sw	t5,4(a5)
   13fe4:	01d7a423          	sw	t4,8(a5)
   13fe8:	01c7a623          	sw	t3,12(a5)
   13fec:	0067a823          	sw	t1,16(a5)
   13ff0:	0117aa23          	sw	a7,20(a5)
   13ff4:	0107ac23          	sw	a6,24(a5)
   13ff8:	cfd4                	sw	a3,28(a5)
   13ffa:	d398                	sw	a4,32(a5)
   13ffc:	02458593          	addi	a1,a1,36
   14000:	02478793          	addi	a5,a5,36
   14004:	fac2eae3          	bltu	t0,a2,13fb8 <memmove+0x50>
   14008:	470d                	li	a4,3
   1400a:	02c77a63          	bgeu	a4,a2,1403e <memmove+0xd6>
   1400e:	00265713          	srli	a4,a2,0x2
   14012:	00271893          	slli	a7,a4,0x2
   14016:	fff70313          	addi	t1,a4,-1
   1401a:	98be                	add	a7,a7,a5
   1401c:	86ae                	mv	a3,a1
   1401e:	873e                	mv	a4,a5
   14020:	0006a803          	lw	a6,0(a3)
   14024:	0711                	addi	a4,a4,4
   14026:	0691                	addi	a3,a3,4
   14028:	ff072e23          	sw	a6,-4(a4)
   1402c:	ff171ae3          	bne	a4,a7,14020 <memmove+0xb8>
   14030:	00231713          	slli	a4,t1,0x2
   14034:	0791                	addi	a5,a5,4
   14036:	0591                	addi	a1,a1,4
   14038:	97ba                	add	a5,a5,a4
   1403a:	95ba                	add	a1,a1,a4
   1403c:	8a0d                	andi	a2,a2,3
   1403e:	da39                	beqz	a2,13f94 <memmove+0x2c>
   14040:	fff60693          	addi	a3,a2,-1
   14044:	0685                	addi	a3,a3,1
   14046:	96ae                	add	a3,a3,a1
   14048:	0005c703          	lbu	a4,0(a1)
   1404c:	0585                	addi	a1,a1,1
   1404e:	0785                	addi	a5,a5,1
   14050:	fee78fa3          	sb	a4,-1(a5)
   14054:	fed59ae3          	bne	a1,a3,14048 <memmove+0xe0>
   14058:	8082                	ret
   1405a:	a2e9                	j	14224 <memcpy>
   1405c:	468d                	li	a3,3
   1405e:	00c507b3          	add	a5,a0,a2
   14062:	0ac6f463          	bgeu	a3,a2,1410a <memmove+0x1a2>
   14066:	00e7e6b3          	or	a3,a5,a4
   1406a:	8a8d                	andi	a3,a3,3
   1406c:	883a                	mv	a6,a4
   1406e:	e6f9                	bnez	a3,1413c <memmove+0x1d4>
   14070:	02300293          	li	t0,35
   14074:	06c2f163          	bgeu	t0,a2,140d6 <memmove+0x16e>
   14078:	fdc72f83          	lw	t6,-36(a4)
   1407c:	fe072f03          	lw	t5,-32(a4)
   14080:	fe472e83          	lw	t4,-28(a4)
   14084:	fe872e03          	lw	t3,-24(a4)
   14088:	fec72303          	lw	t1,-20(a4)
   1408c:	ff072883          	lw	a7,-16(a4)
   14090:	ff472803          	lw	a6,-12(a4)
   14094:	ff872583          	lw	a1,-8(a4)
   14098:	ffc72683          	lw	a3,-4(a4)
   1409c:	fdc60613          	addi	a2,a2,-36
   140a0:	fdf7ae23          	sw	t6,-36(a5)
   140a4:	ffe7a023          	sw	t5,-32(a5)
   140a8:	ffd7a223          	sw	t4,-28(a5)
   140ac:	ffc7a423          	sw	t3,-24(a5)
   140b0:	fe67a623          	sw	t1,-20(a5)
   140b4:	ff17a823          	sw	a7,-16(a5)
   140b8:	ff07aa23          	sw	a6,-12(a5)
   140bc:	feb7ac23          	sw	a1,-8(a5)
   140c0:	fed7ae23          	sw	a3,-4(a5)
   140c4:	fdc70713          	addi	a4,a4,-36
   140c8:	fdc78793          	addi	a5,a5,-36
   140cc:	fac2e6e3          	bltu	t0,a2,14078 <memmove+0x110>
   140d0:	468d                	li	a3,3
   140d2:	02c6fc63          	bgeu	a3,a2,1410a <memmove+0x1a2>
   140d6:	00265693          	srli	a3,a2,0x2
   140da:	00269893          	slli	a7,a3,0x2
   140de:	fff68313          	addi	t1,a3,-1
   140e2:	411788b3          	sub	a7,a5,a7
   140e6:	85ba                	mv	a1,a4
   140e8:	86be                	mv	a3,a5
   140ea:	ffc5a803          	lw	a6,-4(a1)
   140ee:	16f1                	addi	a3,a3,-4
   140f0:	15f1                	addi	a1,a1,-4
   140f2:	0106a023          	sw	a6,0(a3)
   140f6:	ff169ae3          	bne	a3,a7,140ea <memmove+0x182>
   140fa:	406006b3          	neg	a3,t1
   140fe:	068a                	slli	a3,a3,0x2
   14100:	1771                	addi	a4,a4,-4
   14102:	17f1                	addi	a5,a5,-4
   14104:	9736                	add	a4,a4,a3
   14106:	97b6                	add	a5,a5,a3
   14108:	8a0d                	andi	a2,a2,3
   1410a:	fff60693          	addi	a3,a2,-1
   1410e:	10060a63          	beqz	a2,14222 <memmove+0x2ba>
   14112:	fff6c613          	not	a2,a3
   14116:	963e                	add	a2,a2,a5
   14118:	fff74683          	lbu	a3,-1(a4)
   1411c:	17fd                	addi	a5,a5,-1
   1411e:	177d                	addi	a4,a4,-1
   14120:	00d78023          	sb	a3,0(a5)
   14124:	fec79ae3          	bne	a5,a2,14118 <memmove+0x1b0>
   14128:	8082                	ret
   1412a:	87aa                	mv	a5,a0
   1412c:	bf09                	j	1403e <memmove+0xd6>
   1412e:	4721                	li	a4,8
   14130:	00c76d63          	bltu	a4,a2,1414a <memmove+0x1e2>
   14134:	fff60693          	addi	a3,a2,-1
   14138:	87aa                	mv	a5,a0
   1413a:	b729                	j	14044 <memmove+0xdc>
   1413c:	46a1                	li	a3,8
   1413e:	06c6ec63          	bltu	a3,a2,141b6 <memmove+0x24e>
   14142:	fff60693          	addi	a3,a2,-1
   14146:	b7f1                	j	14112 <memmove+0x1aa>
   14148:	8082                	ret
   1414a:	0035f713          	andi	a4,a1,3
   1414e:	86aa                	mv	a3,a0
   14150:	cf01                	beqz	a4,14168 <memmove+0x200>
   14152:	0005c603          	lbu	a2,0(a1)
   14156:	0585                	addi	a1,a1,1
   14158:	0035f713          	andi	a4,a1,3
   1415c:	00c68023          	sb	a2,0(a3)
   14160:	0685                	addi	a3,a3,1
   14162:	fb65                	bnez	a4,14152 <memmove+0x1ea>
   14164:	40d78633          	sub	a2,a5,a3
   14168:	ffc60713          	addi	a4,a2,-4
   1416c:	00275f13          	srli	t5,a4,0x2
   14170:	001f0e93          	addi	t4,t5,1
   14174:	0e8a                	slli	t4,t4,0x2
   14176:	9eb6                	add	t4,t4,a3
   14178:	882e                	mv	a6,a1
   1417a:	87b6                	mv	a5,a3
   1417c:	00082703          	lw	a4,0(a6)
   14180:	0791                	addi	a5,a5,4
   14182:	0811                	addi	a6,a6,4
   14184:	00875e13          	srli	t3,a4,0x8
   14188:	01075313          	srli	t1,a4,0x10
   1418c:	01875893          	srli	a7,a4,0x18
   14190:	fee78e23          	sb	a4,-4(a5)
   14194:	ffc78ea3          	sb	t3,-3(a5)
   14198:	fe678f23          	sb	t1,-2(a5)
   1419c:	ff178fa3          	sb	a7,-1(a5)
   141a0:	fdd79ee3          	bne	a5,t4,1417c <memmove+0x214>
   141a4:	002f1713          	slli	a4,t5,0x2
   141a8:	0591                	addi	a1,a1,4
   141aa:	00468793          	addi	a5,a3,4
   141ae:	95ba                	add	a1,a1,a4
   141b0:	97ba                	add	a5,a5,a4
   141b2:	8a0d                	andi	a2,a2,3
   141b4:	b569                	j	1403e <memmove+0xd6>
   141b6:	00377693          	andi	a3,a4,3
   141ba:	ce89                	beqz	a3,141d4 <memmove+0x26c>
   141bc:	fff74583          	lbu	a1,-1(a4)
   141c0:	177d                	addi	a4,a4,-1
   141c2:	00377693          	andi	a3,a4,3
   141c6:	feb78fa3          	sb	a1,-1(a5)
   141ca:	17fd                	addi	a5,a5,-1
   141cc:	fae5                	bnez	a3,141bc <memmove+0x254>
   141ce:	963a                	add	a2,a2,a4
   141d0:	41060633          	sub	a2,a2,a6
   141d4:	ffc60f13          	addi	t5,a2,-4
   141d8:	002f5f13          	srli	t5,t5,0x2
   141dc:	ffff4e93          	not	t4,t5
   141e0:	0e8a                	slli	t4,t4,0x2
   141e2:	9ebe                	add	t4,t4,a5
   141e4:	883a                	mv	a6,a4
   141e6:	86be                	mv	a3,a5
   141e8:	ffc82583          	lw	a1,-4(a6)
   141ec:	16f1                	addi	a3,a3,-4
   141ee:	1871                	addi	a6,a6,-4
   141f0:	0085de13          	srli	t3,a1,0x8
   141f4:	0105d313          	srli	t1,a1,0x10
   141f8:	0185d893          	srli	a7,a1,0x18
   141fc:	01c680a3          	sb	t3,1(a3)
   14200:	00668123          	sb	t1,2(a3)
   14204:	011681a3          	sb	a7,3(a3)
   14208:	00b68023          	sb	a1,0(a3)
   1420c:	fdd69ee3          	bne	a3,t4,141e8 <memmove+0x280>
   14210:	41e006b3          	neg	a3,t5
   14214:	068a                	slli	a3,a3,0x2
   14216:	17f1                	addi	a5,a5,-4
   14218:	1771                	addi	a4,a4,-4
   1421a:	97b6                	add	a5,a5,a3
   1421c:	9736                	add	a4,a4,a3
   1421e:	8a0d                	andi	a2,a2,3
   14220:	b5ed                	j	1410a <memmove+0x1a2>
   14222:	8082                	ret

00014224 <memcpy>:
   14224:	478d                	li	a5,3
   14226:	00c50733          	add	a4,a0,a2
   1422a:	08c7f363          	bgeu	a5,a2,142b0 <memcpy+0x8c>
   1422e:	00a5c7b3          	xor	a5,a1,a0
   14232:	8b8d                	andi	a5,a5,3
   14234:	e7d5                	bnez	a5,142e0 <memcpy+0xbc>
   14236:	00357693          	andi	a3,a0,3
   1423a:	87aa                	mv	a5,a0
   1423c:	12069863          	bnez	a3,1436c <memcpy+0x148>
   14240:	ffc77613          	andi	a2,a4,-4
   14244:	40f60833          	sub	a6,a2,a5
   14248:	02000693          	li	a3,32
   1424c:	0106c563          	blt	a3,a6,14256 <memcpy+0x32>
   14250:	06e7ed63          	bltu	a5,a4,142ca <memcpy+0xa6>
   14254:	8082                	ret
   14256:	0005a803          	lw	a6,0(a1)
   1425a:	0045a283          	lw	t0,4(a1)
   1425e:	0085af83          	lw	t6,8(a1)
   14262:	00c5af03          	lw	t5,12(a1)
   14266:	0105ae83          	lw	t4,16(a1)
   1426a:	0145ae03          	lw	t3,20(a1)
   1426e:	0185a303          	lw	t1,24(a1)
   14272:	01c5a883          	lw	a7,28(a1)
   14276:	0107a023          	sw	a6,0(a5)
   1427a:	0205a803          	lw	a6,32(a1)
   1427e:	02478793          	addi	a5,a5,36
   14282:	fe57a023          	sw	t0,-32(a5)
   14286:	ff07ae23          	sw	a6,-4(a5)
   1428a:	fff7a223          	sw	t6,-28(a5)
   1428e:	40f60833          	sub	a6,a2,a5
   14292:	ffe7a423          	sw	t5,-24(a5)
   14296:	ffd7a623          	sw	t4,-20(a5)
   1429a:	ffc7a823          	sw	t3,-16(a5)
   1429e:	fe67aa23          	sw	t1,-12(a5)
   142a2:	ff17ac23          	sw	a7,-8(a5)
   142a6:	02458593          	addi	a1,a1,36
   142aa:	fb06c6e3          	blt	a3,a6,14256 <memcpy+0x32>
   142ae:	b74d                	j	14250 <memcpy+0x2c>
   142b0:	fae572e3          	bgeu	a0,a4,14254 <memcpy+0x30>
   142b4:	962e                	add	a2,a2,a1
   142b6:	87aa                	mv	a5,a0
   142b8:	0005c703          	lbu	a4,0(a1)
   142bc:	0585                	addi	a1,a1,1
   142be:	0785                	addi	a5,a5,1
   142c0:	fee78fa3          	sb	a4,-1(a5)
   142c4:	feb61ae3          	bne	a2,a1,142b8 <memcpy+0x94>
   142c8:	8082                	ret
   142ca:	8f1d                	sub	a4,a4,a5
   142cc:	972e                	add	a4,a4,a1
   142ce:	0005c683          	lbu	a3,0(a1)
   142d2:	0585                	addi	a1,a1,1
   142d4:	0785                	addi	a5,a5,1
   142d6:	fed78fa3          	sb	a3,-1(a5)
   142da:	fee59ae3          	bne	a1,a4,142ce <memcpy+0xaa>
   142de:	8082                	ret
   142e0:	40a008b3          	neg	a7,a0
   142e4:	0038f893          	andi	a7,a7,3
   142e8:	01150eb3          	add	t4,a0,a7
   142ec:	87aa                	mv	a5,a0
   142ee:	98ae                	add	a7,a7,a1
   142f0:	01d57a63          	bgeu	a0,t4,14304 <memcpy+0xe0>
   142f4:	0005c683          	lbu	a3,0(a1)
   142f8:	0585                	addi	a1,a1,1
   142fa:	0785                	addi	a5,a5,1
   142fc:	fed78fa3          	sb	a3,-1(a5)
   14300:	ff159ae3          	bne	a1,a7,142f4 <memcpy+0xd0>
   14304:	ffc77313          	andi	t1,a4,-4
   14308:	86c6                	mv	a3,a7
   1430a:	046ef363          	bgeu	t4,t1,14350 <memcpy+0x12c>
   1430e:	87c6                	mv	a5,a7
   14310:	8876                	mv	a6,t4
   14312:	0017c583          	lbu	a1,1(a5)
   14316:	0007ce03          	lbu	t3,0(a5)
   1431a:	0027c603          	lbu	a2,2(a5)
   1431e:	0037c683          	lbu	a3,3(a5)
   14322:	05a2                	slli	a1,a1,0x8
   14324:	01c5e5b3          	or	a1,a1,t3
   14328:	0642                	slli	a2,a2,0x10
   1432a:	8e4d                	or	a2,a2,a1
   1432c:	06e2                	slli	a3,a3,0x18
   1432e:	0811                	addi	a6,a6,4
   14330:	8ed1                	or	a3,a3,a2
   14332:	fed82e23          	sw	a3,-4(a6)
   14336:	0791                	addi	a5,a5,4
   14338:	fc686de3          	bltu	a6,t1,14312 <memcpy+0xee>
   1433c:	fff30793          	addi	a5,t1,-1
   14340:	41d787b3          	sub	a5,a5,t4
   14344:	9bf1                	andi	a5,a5,-4
   14346:	0891                	addi	a7,a7,4
   14348:	0e91                	addi	t4,t4,4
   1434a:	00f886b3          	add	a3,a7,a5
   1434e:	9ebe                	add	t4,t4,a5
   14350:	f0eef2e3          	bgeu	t4,a4,14254 <memcpy+0x30>
   14354:	41d70733          	sub	a4,a4,t4
   14358:	9736                	add	a4,a4,a3
   1435a:	0006c783          	lbu	a5,0(a3)
   1435e:	0685                	addi	a3,a3,1
   14360:	0e85                	addi	t4,t4,1
   14362:	fefe8fa3          	sb	a5,-1(t4)
   14366:	fed71ae3          	bne	a4,a3,1435a <memcpy+0x136>
   1436a:	8082                	ret
   1436c:	4811                	li	a6,4
   1436e:	40d80833          	sub	a6,a6,a3
   14372:	010507b3          	add	a5,a0,a6
   14376:	86aa                	mv	a3,a0
   14378:	982e                	add	a6,a6,a1
   1437a:	00f57a63          	bgeu	a0,a5,1438e <memcpy+0x16a>
   1437e:	0005c603          	lbu	a2,0(a1)
   14382:	0585                	addi	a1,a1,1
   14384:	0685                	addi	a3,a3,1
   14386:	fec68fa3          	sb	a2,-1(a3)
   1438a:	ff059ae3          	bne	a1,a6,1437e <memcpy+0x15a>
   1438e:	85c2                	mv	a1,a6
   14390:	bd45                	j	14240 <memcpy+0x1c>

00014392 <strlen>:
   14392:	00357793          	andi	a5,a0,3
   14396:	872a                	mv	a4,a0
   14398:	ef9d                	bnez	a5,143d6 <strlen+0x44>
   1439a:	7f7f86b7          	lui	a3,0x7f7f8
   1439e:	f7f68693          	addi	a3,a3,-129 # 7f7f7f7f <__BSS_END__+0x7f7db3cb>
   143a2:	55fd                	li	a1,-1
   143a4:	4310                	lw	a2,0(a4)
   143a6:	0711                	addi	a4,a4,4
   143a8:	00d677b3          	and	a5,a2,a3
   143ac:	97b6                	add	a5,a5,a3
   143ae:	8fd1                	or	a5,a5,a2
   143b0:	8fd5                	or	a5,a5,a3
   143b2:	feb789e3          	beq	a5,a1,143a4 <strlen+0x12>
   143b6:	ffc74683          	lbu	a3,-4(a4)
   143ba:	40a707b3          	sub	a5,a4,a0
   143be:	ca8d                	beqz	a3,143f0 <strlen+0x5e>
   143c0:	ffd74683          	lbu	a3,-3(a4)
   143c4:	c29d                	beqz	a3,143ea <strlen+0x58>
   143c6:	ffe74503          	lbu	a0,-2(a4)
   143ca:	00a03533          	snez	a0,a0
   143ce:	953e                	add	a0,a0,a5
   143d0:	1579                	addi	a0,a0,-2
   143d2:	8082                	ret
   143d4:	d2f9                	beqz	a3,1439a <strlen+0x8>
   143d6:	00074783          	lbu	a5,0(a4)
   143da:	0705                	addi	a4,a4,1
   143dc:	00377693          	andi	a3,a4,3
   143e0:	fbf5                	bnez	a5,143d4 <strlen+0x42>
   143e2:	8f09                	sub	a4,a4,a0
   143e4:	fff70513          	addi	a0,a4,-1
   143e8:	8082                	ret
   143ea:	ffd78513          	addi	a0,a5,-3
   143ee:	8082                	ret
   143f0:	ffc78513          	addi	a0,a5,-4
   143f4:	8082                	ret

000143f6 <memchr>:
   143f6:	00357693          	andi	a3,a0,3
   143fa:	872a                	mv	a4,a0
   143fc:	0ff5f313          	zext.b	t1,a1
   14400:	c68d                	beqz	a3,1442a <memchr+0x34>
   14402:	4791                	li	a5,4
   14404:	8f95                	sub	a5,a5,a3
   14406:	0af66163          	bltu	a2,a5,144a8 <memchr+0xb2>
   1440a:	4689                	li	a3,2
   1440c:	0ad78963          	beq	a5,a3,144be <memchr+0xc8>
   14410:	468d                	li	a3,3
   14412:	0ad78063          	beq	a5,a3,144b2 <memchr+0xbc>
   14416:	4685                	li	a3,1
   14418:	00d79863          	bne	a5,a3,14428 <memchr+0x32>
   1441c:	00074683          	lbu	a3,0(a4)
   14420:	853a                	mv	a0,a4
   14422:	02668463          	beq	a3,t1,1444a <memchr+0x54>
   14426:	0705                	addi	a4,a4,1
   14428:	8e1d                	sub	a2,a2,a5
   1442a:	ffc67513          	andi	a0,a2,-4
   1442e:	953a                	add	a0,a0,a4
   14430:	00a76e63          	bltu	a4,a0,1444c <memchr+0x56>
   14434:	ce41                	beqz	a2,144cc <memchr+0xd6>
   14436:	963a                	add	a2,a2,a4
   14438:	853a                	mv	a0,a4
   1443a:	a021                	j	14442 <memchr+0x4c>
   1443c:	0505                	addi	a0,a0,1
   1443e:	08c50763          	beq	a0,a2,144cc <memchr+0xd6>
   14442:	00054783          	lbu	a5,0(a0)
   14446:	fe679be3          	bne	a5,t1,1443c <memchr+0x46>
   1444a:	8082                	ret
   1444c:	0ff5f593          	zext.b	a1,a1
   14450:	00859813          	slli	a6,a1,0x8
   14454:	982e                	add	a6,a6,a1
   14456:	01081793          	slli	a5,a6,0x10
   1445a:	7f7f85b7          	lui	a1,0x7f7f8
   1445e:	983e                	add	a6,a6,a5
   14460:	f7f58593          	addi	a1,a1,-129 # 7f7f7f7f <__BSS_END__+0x7f7db3cb>
   14464:	58fd                	li	a7,-1
   14466:	a021                	j	1446e <memchr+0x78>
   14468:	0711                	addi	a4,a4,4
   1446a:	06a77363          	bgeu	a4,a0,144d0 <memchr+0xda>
   1446e:	4314                	lw	a3,0(a4)
   14470:	00d846b3          	xor	a3,a6,a3
   14474:	00b6f7b3          	and	a5,a3,a1
   14478:	97ae                	add	a5,a5,a1
   1447a:	8fd5                	or	a5,a5,a3
   1447c:	8fcd                	or	a5,a5,a1
   1447e:	ff1785e3          	beq	a5,a7,14468 <memchr+0x72>
   14482:	00074783          	lbu	a5,0(a4)
   14486:	853a                	mv	a0,a4
   14488:	fc6781e3          	beq	a5,t1,1444a <memchr+0x54>
   1448c:	00174783          	lbu	a5,1(a4)
   14490:	04678263          	beq	a5,t1,144d4 <memchr+0xde>
   14494:	00274783          	lbu	a5,2(a4)
   14498:	406787b3          	sub	a5,a5,t1
   1449c:	00f037b3          	snez	a5,a5
   144a0:	97ba                	add	a5,a5,a4
   144a2:	00278513          	addi	a0,a5,2
   144a6:	8082                	ret
   144a8:	87b2                	mv	a5,a2
   144aa:	4689                	li	a3,2
   144ac:	f6d792e3          	bne	a5,a3,14410 <memchr+0x1a>
   144b0:	a039                	j	144be <memchr+0xc8>
   144b2:	00074683          	lbu	a3,0(a4)
   144b6:	853a                	mv	a0,a4
   144b8:	f86689e3          	beq	a3,t1,1444a <memchr+0x54>
   144bc:	0705                	addi	a4,a4,1
   144be:	00074683          	lbu	a3,0(a4)
   144c2:	853a                	mv	a0,a4
   144c4:	f86683e3          	beq	a3,t1,1444a <memchr+0x54>
   144c8:	0705                	addi	a4,a4,1
   144ca:	bf89                	j	1441c <memchr+0x26>
   144cc:	4501                	li	a0,0
   144ce:	8082                	ret
   144d0:	8a0d                	andi	a2,a2,3
   144d2:	b78d                	j	14434 <memchr+0x3e>
   144d4:	00170513          	addi	a0,a4,1
   144d8:	8082                	ret

000144da <frexpl>:
   144da:	45d8                	lw	a4,12(a1)
   144dc:	7159                	addi	sp,sp,-112
   144de:	0005a883          	lw	a7,0(a1)
   144e2:	0045a803          	lw	a6,4(a1)
   144e6:	4594                	lw	a3,8(a1)
   144e8:	d2a6                	sw	s1,100(sp)
   144ea:	64a1                	lui	s1,0x8
   144ec:	d4a2                	sw	s0,104(sp)
   144ee:	d686                	sw	ra,108(sp)
   144f0:	01075793          	srli	a5,a4,0x10
   144f4:	14fd                	addi	s1,s1,-1 # 7fff <exit-0x80b5>
   144f6:	00062023          	sw	zero,0(a2)
   144fa:	ceba                	sw	a4,92(sp)
   144fc:	8fe5                	and	a5,a5,s1
   144fe:	c8c6                	sw	a7,80(sp)
   14500:	cac2                	sw	a6,84(sp)
   14502:	ccb6                	sw	a3,88(sp)
   14504:	842a                	mv	s0,a0
   14506:	08978b63          	beq	a5,s1,1459c <frexpl+0xc2>
   1450a:	0088                	addi	a0,sp,64
   1450c:	180c                	addi	a1,sp,48
   1450e:	d0ca                	sw	s2,96(sp)
   14510:	c0c6                	sw	a7,64(sp)
   14512:	cc46                	sw	a7,24(sp)
   14514:	c2c2                	sw	a6,68(sp)
   14516:	ca42                	sw	a6,20(sp)
   14518:	c4b6                	sw	a3,72(sp)
   1451a:	c836                	sw	a3,16(sp)
   1451c:	c6ba                	sw	a4,76(sp)
   1451e:	c63a                	sw	a4,12(sp)
   14520:	8932                	mv	s2,a2
   14522:	d802                	sw	zero,48(sp)
   14524:	da02                	sw	zero,52(sp)
   14526:	dc02                	sw	zero,56(sp)
   14528:	de02                	sw	zero,60(sp)
   1452a:	ce3e                	sw	a5,28(sp)
   1452c:	0b8040ef          	jal	185e4 <__eqtf2>
   14530:	4732                	lw	a4,12(sp)
   14532:	46c2                	lw	a3,16(sp)
   14534:	4852                	lw	a6,20(sp)
   14536:	48e2                	lw	a7,24(sp)
   14538:	cd35                	beqz	a0,145b4 <frexpl+0xda>
   1453a:	47f2                	lw	a5,28(sp)
   1453c:	4581                	li	a1,0
   1453e:	ef8d                	bnez	a5,14578 <frexpl+0x9e>
   14540:	407107b7          	lui	a5,0x40710
   14544:	180c                	addi	a1,sp,48
   14546:	1010                	addi	a2,sp,32
   14548:	0088                	addi	a0,sp,64
   1454a:	dc36                	sw	a3,56(sp)
   1454c:	de3a                	sw	a4,60(sp)
   1454e:	d63e                	sw	a5,44(sp)
   14550:	d846                	sw	a7,48(sp)
   14552:	da42                	sw	a6,52(sp)
   14554:	d002                	sw	zero,32(sp)
   14556:	d202                	sw	zero,36(sp)
   14558:	d402                	sw	zero,40(sp)
   1455a:	38c040ef          	jal	188e6 <__multf3>
   1455e:	4736                	lw	a4,76(sp)
   14560:	4586                	lw	a1,64(sp)
   14562:	4616                	lw	a2,68(sp)
   14564:	46a6                	lw	a3,72(sp)
   14566:	01075793          	srli	a5,a4,0x10
   1456a:	c8ae                	sw	a1,80(sp)
   1456c:	cab2                	sw	a2,84(sp)
   1456e:	ccb6                	sw	a3,88(sp)
   14570:	ceba                	sw	a4,92(sp)
   14572:	8fe5                	and	a5,a5,s1
   14574:	f8e00593          	li	a1,-114
   14578:	76f1                	lui	a3,0xffffc
   1457a:	0689                	addi	a3,a3,2 # ffffc002 <__BSS_END__+0xfffdf44e>
   1457c:	4776                	lw	a4,92(sp)
   1457e:	97b6                	add	a5,a5,a3
   14580:	80010637          	lui	a2,0x80010
   14584:	97ae                	add	a5,a5,a1
   14586:	167d                	addi	a2,a2,-1 # 8000ffff <__BSS_END__+0x7fff344b>
   14588:	00f92023          	sw	a5,0(s2)
   1458c:	48c6                	lw	a7,80(sp)
   1458e:	4856                	lw	a6,84(sp)
   14590:	46e6                	lw	a3,88(sp)
   14592:	5906                	lw	s2,96(sp)
   14594:	8f71                	and	a4,a4,a2
   14596:	3ffe0637          	lui	a2,0x3ffe0
   1459a:	8f51                	or	a4,a4,a2
   1459c:	50b6                	lw	ra,108(sp)
   1459e:	01142023          	sw	a7,0(s0)
   145a2:	01042223          	sw	a6,4(s0)
   145a6:	c414                	sw	a3,8(s0)
   145a8:	c458                	sw	a4,12(s0)
   145aa:	8522                	mv	a0,s0
   145ac:	5426                	lw	s0,104(sp)
   145ae:	5496                	lw	s1,100(sp)
   145b0:	6165                	addi	sp,sp,112
   145b2:	8082                	ret
   145b4:	5906                	lw	s2,96(sp)
   145b6:	b7dd                	j	1459c <frexpl+0xc2>

000145b8 <__register_exitproc>:
   145b8:	f501a783          	lw	a5,-176(gp) # 1c880 <__atexit>
   145bc:	c3a1                	beqz	a5,145fc <__register_exitproc+0x44>
   145be:	43d8                	lw	a4,4(a5)
   145c0:	487d                	li	a6,31
   145c2:	04e84d63          	blt	a6,a4,1461c <__register_exitproc+0x64>
   145c6:	00271813          	slli	a6,a4,0x2
   145ca:	c11d                	beqz	a0,145f0 <__register_exitproc+0x38>
   145cc:	01078333          	add	t1,a5,a6
   145d0:	08c32423          	sw	a2,136(t1)
   145d4:	1887a883          	lw	a7,392(a5) # 40710188 <__BSS_END__+0x406f35d4>
   145d8:	4605                	li	a2,1
   145da:	00e61633          	sll	a2,a2,a4
   145de:	00c8e8b3          	or	a7,a7,a2
   145e2:	1917a423          	sw	a7,392(a5)
   145e6:	10d32423          	sw	a3,264(t1)
   145ea:	4689                	li	a3,2
   145ec:	00d50d63          	beq	a0,a3,14606 <__register_exitproc+0x4e>
   145f0:	0705                	addi	a4,a4,1
   145f2:	c3d8                	sw	a4,4(a5)
   145f4:	97c2                	add	a5,a5,a6
   145f6:	c78c                	sw	a1,8(a5)
   145f8:	4501                	li	a0,0
   145fa:	8082                	ret
   145fc:	0f418793          	addi	a5,gp,244 # 1ca24 <__atexit0>
   14600:	f4f1a823          	sw	a5,-176(gp) # 1c880 <__atexit>
   14604:	bf6d                	j	145be <__register_exitproc+0x6>
   14606:	18c7a683          	lw	a3,396(a5)
   1460a:	0705                	addi	a4,a4,1
   1460c:	c3d8                	sw	a4,4(a5)
   1460e:	8ed1                	or	a3,a3,a2
   14610:	18d7a623          	sw	a3,396(a5)
   14614:	97c2                	add	a5,a5,a6
   14616:	c78c                	sw	a1,8(a5)
   14618:	4501                	li	a0,0
   1461a:	8082                	ret
   1461c:	557d                	li	a0,-1
   1461e:	8082                	ret

00014620 <_ldtoa_r>:
   14620:	68ed                	lui	a7,0x1b
   14622:	c5888893          	addi	a7,a7,-936 # 1ac58 <blanks.1+0x10>
   14626:	0088a303          	lw	t1,8(a7)
   1462a:	7171                	addi	sp,sp,-176
   1462c:	0008ae83          	lw	t4,0(a7)
   14630:	0048ae03          	lw	t3,4(a7)
   14634:	d29a                	sw	t1,100(sp)
   14636:	00c8a303          	lw	t1,12(a7)
   1463a:	0108a883          	lw	a7,16(a7)
   1463e:	d522                	sw	s0,168(sp)
   14640:	d326                	sw	s1,164(sp)
   14642:	d6c6                	sw	a7,108(sp)
   14644:	03852883          	lw	a7,56(a0)
   14648:	d14a                	sw	s2,160(sp)
   1464a:	cf4e                	sw	s3,156(sp)
   1464c:	cd52                	sw	s4,152(sp)
   1464e:	cb56                	sw	s5,148(sp)
   14650:	c95a                	sw	s6,144(sp)
   14652:	c16a                	sw	s10,128(sp)
   14654:	deee                	sw	s11,124(sp)
   14656:	d706                	sw	ra,172(sp)
   14658:	c75e                	sw	s7,140(sp)
   1465a:	c562                	sw	s8,136(sp)
   1465c:	c366                	sw	s9,132(sp)
   1465e:	cef6                	sw	t4,92(sp)
   14660:	d0f2                	sw	t3,96(sp)
   14662:	d49a                	sw	t1,104(sp)
   14664:	ce42                	sw	a6,28(sp)
   14666:	0005a983          	lw	s3,0(a1)
   1466a:	0045a903          	lw	s2,4(a1)
   1466e:	4584                	lw	s1,8(a1)
   14670:	00c5aa03          	lw	s4,12(a1)
   14674:	8aaa                	mv	s5,a0
   14676:	8d32                	mv	s10,a2
   14678:	8db6                	mv	s11,a3
   1467a:	8b3a                	mv	s6,a4
   1467c:	843e                	mv	s0,a5
   1467e:	00088763          	beqz	a7,1468c <_ldtoa_r+0x6c>
   14682:	85c6                	mv	a1,a7
   14684:	2f6010ef          	jal	1597a <__freedtoa>
   14688:	020aac23          	sw	zero,56(s5)
   1468c:	5726                	lw	a4,104(sp)
   1468e:	01fa5693          	srli	a3,s4,0x1f
   14692:	c014                	sw	a3,0(s0)
   14694:	40175793          	srai	a5,a4,0x1
   14698:	8ff5                	and	a5,a5,a3
   1469a:	8fb9                	xor	a5,a5,a4
   1469c:	d4be                	sw	a5,104(sp)
   1469e:	001a1413          	slli	s0,s4,0x1
   146a2:	010a1b93          	slli	s7,s4,0x10
   146a6:	77f1                	lui	a5,0xffffc
   146a8:	001a1713          	slli	a4,s4,0x1
   146ac:	8005                	srli	s0,s0,0x1
   146ae:	010bdb93          	srli	s7,s7,0x10
   146b2:	f9178793          	addi	a5,a5,-111 # ffffbf91 <__BSS_END__+0xfffdf3dd>
   146b6:	01175c13          	srli	s8,a4,0x11
   146ba:	1808                	addi	a0,sp,48
   146bc:	100c                	addi	a1,sp,32
   146be:	d84e                	sw	s3,48(sp)
   146c0:	da4a                	sw	s2,52(sp)
   146c2:	dc26                	sw	s1,56(sp)
   146c4:	d04e                	sw	s3,32(sp)
   146c6:	d24a                	sw	s2,36(sp)
   146c8:	d426                	sw	s1,40(sp)
   146ca:	de22                	sw	s0,60(sp)
   146cc:	d622                	sw	s0,44(sp)
   146ce:	c6ce                	sw	s3,76(sp)
   146d0:	c8ca                	sw	s2,80(sp)
   146d2:	caa6                	sw	s1,84(sp)
   146d4:	00fc0cb3          	add	s9,s8,a5
   146d8:	ccde                	sw	s7,88(sp)
   146da:	641050ef          	jal	1a51a <__unordtf2>
   146de:	e571                	bnez	a0,147aa <_ldtoa_r+0x18a>
   146e0:	7fff0737          	lui	a4,0x7fff0
   146e4:	57fd                	li	a5,-1
   146e6:	177d                	addi	a4,a4,-1 # 7ffeffff <__BSS_END__+0x7ffd344b>
   146e8:	100c                	addi	a1,sp,32
   146ea:	1808                	addi	a0,sp,48
   146ec:	d63a                	sw	a4,44(sp)
   146ee:	d03e                	sw	a5,32(sp)
   146f0:	d23e                	sw	a5,36(sp)
   146f2:	d43e                	sw	a5,40(sp)
   146f4:	627050ef          	jal	1a51a <__unordtf2>
   146f8:	ed29                	bnez	a0,14752 <_ldtoa_r+0x132>
   146fa:	100c                	addi	a1,sp,32
   146fc:	1808                	addi	a0,sp,48
   146fe:	0f0040ef          	jal	187ee <__letf2>
   14702:	04a05863          	blez	a0,14752 <_ldtoa_r+0x132>
   14706:	478d                	li	a5,3
   14708:	c4be                	sw	a5,72(sp)
   1470a:	47f2                	lw	a5,28(sp)
   1470c:	00b8                	addi	a4,sp,72
   1470e:	886e                	mv	a6,s11
   14710:	c03e                	sw	a5,0(sp)
   14712:	8666                	mv	a2,s9
   14714:	87ea                	mv	a5,s10
   14716:	8556                	mv	a0,s5
   14718:	88da                	mv	a7,s6
   1471a:	00f4                	addi	a3,sp,76
   1471c:	08ec                	addi	a1,sp,92
   1471e:	220d                	jal	14840 <__gdtoa>
   14720:	000b2703          	lw	a4,0(s6)
   14724:	77e1                	lui	a5,0xffff8
   14726:	00f71763          	bne	a4,a5,14734 <_ldtoa_r+0x114>
   1472a:	800007b7          	lui	a5,0x80000
   1472e:	17fd                	addi	a5,a5,-1 # 7fffffff <__BSS_END__+0x7ffe344b>
   14730:	00fb2023          	sw	a5,0(s6)
   14734:	50ba                	lw	ra,172(sp)
   14736:	542a                	lw	s0,168(sp)
   14738:	549a                	lw	s1,164(sp)
   1473a:	590a                	lw	s2,160(sp)
   1473c:	49fa                	lw	s3,156(sp)
   1473e:	4a6a                	lw	s4,152(sp)
   14740:	4ada                	lw	s5,148(sp)
   14742:	4b4a                	lw	s6,144(sp)
   14744:	4bba                	lw	s7,140(sp)
   14746:	4c2a                	lw	s8,136(sp)
   14748:	4c9a                	lw	s9,132(sp)
   1474a:	4d0a                	lw	s10,128(sp)
   1474c:	5df6                	lw	s11,124(sp)
   1474e:	614d                	addi	sp,sp,176
   14750:	8082                	ret
   14752:	de22                	sw	s0,60(sp)
   14754:	100c                	addi	a1,sp,32
   14756:	6441                	lui	s0,0x10
   14758:	1808                	addi	a0,sp,48
   1475a:	d84e                	sw	s3,48(sp)
   1475c:	da4a                	sw	s2,52(sp)
   1475e:	dc26                	sw	s1,56(sp)
   14760:	d002                	sw	zero,32(sp)
   14762:	d202                	sw	zero,36(sp)
   14764:	d402                	sw	zero,40(sp)
   14766:	d622                	sw	s0,44(sp)
   14768:	78f030ef          	jal	186f6 <__getf2>
   1476c:	00054863          	bltz	a0,1477c <_ldtoa_r+0x15c>
   14770:	008bebb3          	or	s7,s7,s0
   14774:	4785                	li	a5,1
   14776:	ccde                	sw	s7,88(sp)
   14778:	c4be                	sw	a5,72(sp)
   1477a:	bf41                	j	1470a <_ldtoa_r+0xea>
   1477c:	100c                	addi	a1,sp,32
   1477e:	1808                	addi	a0,sp,48
   14780:	d84e                	sw	s3,48(sp)
   14782:	da4a                	sw	s2,52(sp)
   14784:	dc26                	sw	s1,56(sp)
   14786:	de52                	sw	s4,60(sp)
   14788:	d002                	sw	zero,32(sp)
   1478a:	d202                	sw	zero,36(sp)
   1478c:	d402                	sw	zero,40(sp)
   1478e:	d602                	sw	zero,44(sp)
   14790:	655030ef          	jal	185e4 <__eqtf2>
   14794:	e119                	bnez	a0,1479a <_ldtoa_r+0x17a>
   14796:	c482                	sw	zero,72(sp)
   14798:	bf8d                	j	1470a <_ldtoa_r+0xea>
   1479a:	77f1                	lui	a5,0xffffc
   1479c:	f9278793          	addi	a5,a5,-110 # ffffbf92 <__BSS_END__+0xfffdf3de>
   147a0:	4709                	li	a4,2
   147a2:	00fc0cb3          	add	s9,s8,a5
   147a6:	c4ba                	sw	a4,72(sp)
   147a8:	b78d                	j	1470a <_ldtoa_r+0xea>
   147aa:	4791                	li	a5,4
   147ac:	c4be                	sw	a5,72(sp)
   147ae:	bfb1                	j	1470a <_ldtoa_r+0xea>

000147b0 <_ldcheck>:
   147b0:	7139                	addi	sp,sp,-64
   147b2:	dc22                	sw	s0,56(sp)
   147b4:	4540                	lw	s0,12(a0)
   147b6:	d84a                	sw	s2,48(sp)
   147b8:	d64e                	sw	s3,44(sp)
   147ba:	00852903          	lw	s2,8(a0)
   147be:	00452983          	lw	s3,4(a0)
   147c2:	d452                	sw	s4,40(sp)
   147c4:	00052a03          	lw	s4,0(a0)
   147c8:	0406                	slli	s0,s0,0x1
   147ca:	8005                	srli	s0,s0,0x1
   147cc:	0808                	addi	a0,sp,16
   147ce:	858a                	mv	a1,sp
   147d0:	de06                	sw	ra,60(sp)
   147d2:	ce22                	sw	s0,28(sp)
   147d4:	c622                	sw	s0,12(sp)
   147d6:	c852                	sw	s4,16(sp)
   147d8:	c052                	sw	s4,0(sp)
   147da:	ca4e                	sw	s3,20(sp)
   147dc:	c24e                	sw	s3,4(sp)
   147de:	cc4a                	sw	s2,24(sp)
   147e0:	c44a                	sw	s2,8(sp)
   147e2:	539050ef          	jal	1a51a <__unordtf2>
   147e6:	e529                	bnez	a0,14830 <_ldcheck+0x80>
   147e8:	7fff0737          	lui	a4,0x7fff0
   147ec:	57fd                	li	a5,-1
   147ee:	177d                	addi	a4,a4,-1 # 7ffeffff <__BSS_END__+0x7ffd344b>
   147f0:	858a                	mv	a1,sp
   147f2:	0808                	addi	a0,sp,16
   147f4:	da26                	sw	s1,52(sp)
   147f6:	c63a                	sw	a4,12(sp)
   147f8:	c03e                	sw	a5,0(sp)
   147fa:	c23e                	sw	a5,4(sp)
   147fc:	c43e                	sw	a5,8(sp)
   147fe:	4485                	li	s1,1
   14800:	51b050ef          	jal	1a51a <__unordtf2>
   14804:	cd11                	beqz	a0,14820 <_ldcheck+0x70>
   14806:	50f2                	lw	ra,60(sp)
   14808:	5462                	lw	s0,56(sp)
   1480a:	0014c513          	xori	a0,s1,1
   1480e:	0ff57513          	zext.b	a0,a0
   14812:	54d2                	lw	s1,52(sp)
   14814:	5942                	lw	s2,48(sp)
   14816:	59b2                	lw	s3,44(sp)
   14818:	5a22                	lw	s4,40(sp)
   1481a:	0506                	slli	a0,a0,0x1
   1481c:	6121                	addi	sp,sp,64
   1481e:	8082                	ret
   14820:	858a                	mv	a1,sp
   14822:	0808                	addi	a0,sp,16
   14824:	7cb030ef          	jal	187ee <__letf2>
   14828:	fca05fe3          	blez	a0,14806 <_ldcheck+0x56>
   1482c:	4481                	li	s1,0
   1482e:	bfe1                	j	14806 <_ldcheck+0x56>
   14830:	50f2                	lw	ra,60(sp)
   14832:	5462                	lw	s0,56(sp)
   14834:	5942                	lw	s2,48(sp)
   14836:	59b2                	lw	s3,44(sp)
   14838:	5a22                	lw	s4,40(sp)
   1483a:	4505                	li	a0,1
   1483c:	6121                	addi	sp,sp,64
   1483e:	8082                	ret

00014840 <__gdtoa>:
   14840:	00072303          	lw	t1,0(a4)
   14844:	7135                	addi	sp,sp,-160
   14846:	cd22                	sw	s0,152(sp)
   14848:	540a                	lw	s0,160(sp)
   1484a:	cb26                	sw	s1,148(sp)
   1484c:	fcf37e13          	andi	t3,t1,-49
   14850:	cf06                	sw	ra,156(sp)
   14852:	01c72023          	sw	t3,0(a4)
   14856:	4e8d                	li	t4,3
   14858:	00f37e13          	andi	t3,t1,15
   1485c:	84a2                	mv	s1,s0
   1485e:	25de0763          	beq	t3,t4,14aac <__gdtoa+0x26c>
   14862:	dae6                	sw	s9,116(sp)
   14864:	00c37413          	andi	s0,t1,12
   14868:	8ca2                	mv	s9,s0
   1486a:	1a041363          	bnez	s0,14a10 <__gdtoa+0x1d0>
   1486e:	c15a                	sw	s6,128(sp)
   14870:	d8ea                	sw	s10,112(sp)
   14872:	d6ee                	sw	s11,108(sp)
   14874:	c032                	sw	a2,0(sp)
   14876:	c22e                	sw	a1,4(sp)
   14878:	c83a                	sw	a4,16(sp)
   1487a:	8b2a                	mv	s6,a0
   1487c:	8dc6                	mv	s11,a7
   1487e:	8d36                	mv	s10,a3
   14880:	200e0163          	beqz	t3,14a82 <__gdtoa+0x242>
   14884:	4198                	lw	a4,0(a1)
   14886:	dede                	sw	s7,124(sp)
   14888:	dce2                	sw	s8,120(sp)
   1488a:	8bbe                	mv	s7,a5
   1488c:	02000793          	li	a5,32
   14890:	8c42                	mv	s8,a6
   14892:	4581                	li	a1,0
   14894:	00e7d663          	bge	a5,a4,148a0 <__gdtoa+0x60>
   14898:	0786                	slli	a5,a5,0x1
   1489a:	0585                	addi	a1,a1,1
   1489c:	fee7cee3          	blt	a5,a4,14898 <__gdtoa+0x58>
   148a0:	855a                	mv	a0,s6
   148a2:	ca3a                	sw	a4,20(sp)
   148a4:	c41a                	sw	t1,8(sp)
   148a6:	32e010ef          	jal	15bd4 <_Balloc>
   148aa:	4322                	lw	t1,8(sp)
   148ac:	4752                	lw	a4,20(sp)
   148ae:	842a                	mv	s0,a0
   148b0:	1a050663          	beqz	a0,14a5c <__gdtoa+0x21c>
   148b4:	fff70693          	addi	a3,a4,-1
   148b8:	8695                	srai	a3,a3,0x5
   148ba:	068a                	slli	a3,a3,0x2
   148bc:	87ea                	mv	a5,s10
   148be:	00dd0533          	add	a0,s10,a3
   148c2:	01440613          	addi	a2,s0,20 # 10014 <exit-0xa0>
   148c6:	438c                	lw	a1,0(a5)
   148c8:	0791                	addi	a5,a5,4
   148ca:	0611                	addi	a2,a2,4 # 3ffe0004 <__BSS_END__+0x3ffc3450>
   148cc:	feb62e23          	sw	a1,-4(a2)
   148d0:	fef57be3          	bgeu	a0,a5,148c6 <__gdtoa+0x86>
   148d4:	001d0793          	addi	a5,s10,1
   148d8:	0505                	addi	a0,a0,1
   148da:	00f53533          	sltu	a0,a0,a5
   148de:	157d                	addi	a0,a0,-1
   148e0:	8ee9                	and	a3,a3,a0
   148e2:	0691                	addi	a3,a3,4
   148e4:	4026d793          	srai	a5,a3,0x2
   148e8:	96a2                	add	a3,a3,s0
   148ea:	a021                	j	148f2 <__gdtoa+0xb2>
   148ec:	16f1                	addi	a3,a3,-4
   148ee:	1c078d63          	beqz	a5,14ac8 <__gdtoa+0x288>
   148f2:	4a90                	lw	a2,16(a3)
   148f4:	85be                	mv	a1,a5
   148f6:	17fd                	addi	a5,a5,-1
   148f8:	da75                	beqz	a2,148ec <__gdtoa+0xac>
   148fa:	078a                	slli	a5,a5,0x2
   148fc:	97a2                	add	a5,a5,s0
   148fe:	4bc8                	lw	a0,20(a5)
   14900:	c80c                	sw	a1,16(s0)
   14902:	cc1a                	sw	t1,24(sp)
   14904:	ca3a                	sw	a4,20(sp)
   14906:	c42e                	sw	a1,8(sp)
   14908:	4fc010ef          	jal	15e04 <__hi0bits>
   1490c:	45a2                	lw	a1,8(sp)
   1490e:	4362                	lw	t1,24(sp)
   14910:	4752                	lw	a4,20(sp)
   14912:	0596                	slli	a1,a1,0x5
   14914:	40a587b3          	sub	a5,a1,a0
   14918:	8522                	mv	a0,s0
   1491a:	cc3e                	sw	a5,24(sp)
   1491c:	ca3a                	sw	a4,20(sp)
   1491e:	c41a                	sw	t1,8(sp)
   14920:	276010ef          	jal	15b96 <__trailz_D2A>
   14924:	ceaa                	sw	a0,92(sp)
   14926:	4602                	lw	a2,0(sp)
   14928:	4322                	lw	t1,8(sp)
   1492a:	4752                	lw	a4,20(sp)
   1492c:	47e2                	lw	a5,24(sp)
   1492e:	38051b63          	bnez	a0,14cc4 <__gdtoa+0x484>
   14932:	4814                	lw	a3,16(s0)
   14934:	14068163          	beqz	a3,14a76 <__gdtoa+0x236>
   14938:	08ec                	addi	a1,sp,92
   1493a:	8522                	mv	a0,s0
   1493c:	d43e                	sw	a5,40(sp)
   1493e:	d03a                	sw	a4,32(sp)
   14940:	cc32                	sw	a2,24(sp)
   14942:	ca1a                	sw	t1,20(sp)
   14944:	c94a                	sw	s2,144(sp)
   14946:	3fd010ef          	jal	16542 <__b2d>
   1494a:	a42a                	fsd	fa0,8(sp)
   1494c:	48b2                	lw	a7,12(sp)
   1494e:	4822                	lw	a6,8(sp)
   14950:	00c89593          	slli	a1,a7,0xc
   14954:	ec81b707          	fld	fa4,-312(gp) # 1c7f8 <__SDATA_BEGIN__>
   14958:	81b1                	srli	a1,a1,0xc
   1495a:	3ff006b7          	lui	a3,0x3ff00
   1495e:	8dd5                	or	a1,a1,a3
   14960:	c442                	sw	a6,8(sp)
   14962:	c62e                	sw	a1,12(sp)
   14964:	27a2                	fld	fa5,8(sp)
   14966:	ed01b687          	fld	fa3,-304(gp) # 1c800 <__SDATA_BEGIN__+0x8>
   1496a:	0ae7f753          	fsub.d	fa4,fa5,fa4
   1496e:	ed81b787          	fld	fa5,-296(gp) # 1c808 <__SDATA_BEGIN__+0x10>
   14972:	4662                	lw	a2,24(sp)
   14974:	57a2                	lw	a5,40(sp)
   14976:	4352                	lw	t1,20(sp)
   14978:	7ad77743          	fmadd.d	fa4,fa4,fa3,fa5
   1497c:	00f60533          	add	a0,a2,a5
   14980:	fff50693          	addi	a3,a0,-1
   14984:	ee01b687          	fld	fa3,-288(gp) # 1c810 <__SDATA_BEGIN__+0x18>
   14988:	d20687d3          	fcvt.d.w	fa5,a3
   1498c:	5702                	lw	a4,32(sp)
   1498e:	8836                	mv	a6,a3
   14990:	72d7f7c3          	fmadd.d	fa5,fa5,fa3,fa4
   14994:	0006d563          	bgez	a3,1499e <__gdtoa+0x15e>
   14998:	4805                	li	a6,1
   1499a:	40a80833          	sub	a6,a6,a0
   1499e:	bcb80813          	addi	a6,a6,-1077
   149a2:	01005863          	blez	a6,149b2 <__gdtoa+0x172>
   149a6:	ee81b707          	fld	fa4,-280(gp) # 1c818 <__SDATA_BEGIN__+0x20>
   149aa:	d20806d3          	fcvt.d.w	fa3,a6
   149ae:	7ae6f7c3          	fmadd.d	fa5,fa3,fa4,fa5
   149b2:	d2000753          	fcvt.d.w	fa4,zero
   149b6:	c20798d3          	fcvt.w.d	a7,fa5,rtz
   149ba:	a2e79853          	flt.d	a6,fa5,fa4
   149be:	00080a63          	beqz	a6,149d2 <__gdtoa+0x192>
   149c2:	d2088753          	fcvt.d.w	fa4,a7
   149c6:	a2f72853          	feq.d	a6,fa4,fa5
   149ca:	00183813          	seqz	a6,a6
   149ce:	410888b3          	sub	a7,a7,a6
   149d2:	01469813          	slli	a6,a3,0x14
   149d6:	95c2                	add	a1,a1,a6
   149d8:	40d786b3          	sub	a3,a5,a3
   149dc:	c62e                	sw	a1,12(sp)
   149de:	45d9                	li	a1,22
   149e0:	fff68f13          	addi	t5,a3,-1 # 3fefffff <__BSS_END__+0x3fee344b>
   149e4:	0f15e563          	bltu	a1,a7,14ace <__gdtoa+0x28e>
   149e8:	6eed                	lui	t4,0x1b
   149ea:	cc8e8593          	addi	a1,t4,-824 # 1acc8 <__mprec_tens>
   149ee:	00389813          	slli	a6,a7,0x3
   149f2:	95c2                	add	a1,a1,a6
   149f4:	219c                	fld	fa5,0(a1)
   149f6:	2722                	fld	fa4,8(sp)
   149f8:	a2f715d3          	flt.d	a1,fa4,fa5
   149fc:	2e059c63          	bnez	a1,14cf4 <__gdtoa+0x4b4>
   14a00:	0ed05fe3          	blez	a3,152fe <__gdtoa+0xabe>
   14a04:	9f46                	add	t5,t5,a7
   14a06:	c282                	sw	zero,68(sp)
   14a08:	de46                	sw	a7,60(sp)
   14a0a:	ca02                	sw	zero,20(sp)
   14a0c:	dc02                	sw	zero,56(sp)
   14a0e:	a8f9                	j	14aec <__gdtoa+0x2ac>
   14a10:	4791                	li	a5,4
   14a12:	04fe1a63          	bne	t3,a5,14a66 <__gdtoa+0x226>
   14a16:	446a                	lw	s0,152(sp)
   14a18:	5cd6                	lw	s9,116(sp)
   14a1a:	40fa                	lw	ra,156(sp)
   14a1c:	77e1                	lui	a5,0xffff8
   14a1e:	8626                	mv	a2,s1
   14a20:	44da                	lw	s1,148(sp)
   14a22:	65ed                	lui	a1,0x1b
   14a24:	00f8a023          	sw	a5,0(a7)
   14a28:	86f6                	mv	a3,t4
   14a2a:	9a458593          	addi	a1,a1,-1628 # 1a9a4 <__clzsi2+0x92>
   14a2e:	610d                	addi	sp,sp,160
   14a30:	6df0006f          	j	1590e <__nrv_alloc_D2A>
   14a34:	859a                	mv	a1,t1
   14a36:	855a                	mv	a0,s6
   14a38:	d042                	sw	a6,32(sp)
   14a3a:	cc76                	sw	t4,24(sp)
   14a3c:	c446                	sw	a7,8(sp)
   14a3e:	c23e                	sw	a5,4(sp)
   14a40:	c072                	sw	t3,0(sp)
   14a42:	7d6010ef          	jal	16218 <__lshift>
   14a46:	4e02                	lw	t3,0(sp)
   14a48:	4792                	lw	a5,4(sp)
   14a4a:	48a2                	lw	a7,8(sp)
   14a4c:	4ee2                	lw	t4,24(sp)
   14a4e:	5802                	lw	a6,32(sp)
   14a50:	832a                	mv	t1,a0
   14a52:	4a051a63          	bnez	a0,14f06 <__gdtoa+0x6c6>
   14a56:	494a                	lw	s2,144(sp)
   14a58:	4a2a                	lw	s4,136(sp)
   14a5a:	4a9a                	lw	s5,132(sp)
   14a5c:	4b0a                	lw	s6,128(sp)
   14a5e:	5bf6                	lw	s7,124(sp)
   14a60:	5c66                	lw	s8,120(sp)
   14a62:	5d46                	lw	s10,112(sp)
   14a64:	5db6                	lw	s11,108(sp)
   14a66:	4801                	li	a6,0
   14a68:	40fa                	lw	ra,156(sp)
   14a6a:	446a                	lw	s0,152(sp)
   14a6c:	5cd6                	lw	s9,116(sp)
   14a6e:	44da                	lw	s1,148(sp)
   14a70:	8542                	mv	a0,a6
   14a72:	610d                	addi	sp,sp,160
   14a74:	8082                	ret
   14a76:	85a2                	mv	a1,s0
   14a78:	855a                	mv	a0,s6
   14a7a:	1c0010ef          	jal	15c3a <_Bfree>
   14a7e:	5bf6                	lw	s7,124(sp)
   14a80:	5c66                	lw	s8,120(sp)
   14a82:	4685                	li	a3,1
   14a84:	65ed                	lui	a1,0x1b
   14a86:	8626                	mv	a2,s1
   14a88:	855a                	mv	a0,s6
   14a8a:	00dda023          	sw	a3,0(s11)
   14a8e:	99458593          	addi	a1,a1,-1644 # 1a994 <__clzsi2+0x82>
   14a92:	67d000ef          	jal	1590e <__nrv_alloc_D2A>
   14a96:	40fa                	lw	ra,156(sp)
   14a98:	446a                	lw	s0,152(sp)
   14a9a:	882a                	mv	a6,a0
   14a9c:	4b0a                	lw	s6,128(sp)
   14a9e:	5d46                	lw	s10,112(sp)
   14aa0:	5db6                	lw	s11,108(sp)
   14aa2:	5cd6                	lw	s9,116(sp)
   14aa4:	44da                	lw	s1,148(sp)
   14aa6:	8542                	mv	a0,a6
   14aa8:	610d                	addi	sp,sp,160
   14aaa:	8082                	ret
   14aac:	8622                	mv	a2,s0
   14aae:	446a                	lw	s0,152(sp)
   14ab0:	40fa                	lw	ra,156(sp)
   14ab2:	44da                	lw	s1,148(sp)
   14ab4:	77e1                	lui	a5,0xffff8
   14ab6:	65ed                	lui	a1,0x1b
   14ab8:	00f8a023          	sw	a5,0(a7)
   14abc:	99858593          	addi	a1,a1,-1640 # 1a998 <__clzsi2+0x86>
   14ac0:	46a1                	li	a3,8
   14ac2:	610d                	addi	sp,sp,160
   14ac4:	64b0006f          	j	1590e <__nrv_alloc_D2A>
   14ac8:	00042823          	sw	zero,16(s0)
   14acc:	b5b1                	j	14918 <__gdtoa+0xd8>
   14ace:	4585                	li	a1,1
   14ad0:	c2ae                	sw	a1,68(sp)
   14ad2:	ca02                	sw	zero,20(sp)
   14ad4:	200f4863          	bltz	t5,14ce4 <__gdtoa+0x4a4>
   14ad8:	2008d263          	bgez	a7,14cdc <__gdtoa+0x49c>
   14adc:	46d2                	lw	a3,20(sp)
   14ade:	de02                	sw	zero,60(sp)
   14ae0:	411686b3          	sub	a3,a3,a7
   14ae4:	ca36                	sw	a3,20(sp)
   14ae6:	411006b3          	neg	a3,a7
   14aea:	dc36                	sw	a3,56(sp)
   14aec:	46a5                	li	a3,9
   14aee:	2b76ee63          	bltu	a3,s7,14daa <__gdtoa+0x56a>
   14af2:	4695                	li	a3,5
   14af4:	5176dc63          	bge	a3,s7,1500c <__gdtoa+0x7cc>
   14af8:	ffcb8513          	addi	a0,s7,-4
   14afc:	4591                	li	a1,4
   14afe:	8baa                	mv	s7,a0
   14b00:	2cb50b63          	beq	a0,a1,14dd6 <__gdtoa+0x596>
   14b04:	72d50563          	beq	a0,a3,1522e <__gdtoa+0x9ee>
   14b08:	4689                	li	a3,2
   14b0a:	c482                	sw	zero,72(sp)
   14b0c:	4901                	li	s2,0
   14b0e:	2cd50763          	beq	a0,a3,14ddc <__gdtoa+0x59c>
   14b12:	4b8d                	li	s7,3
   14b14:	011c06b3          	add	a3,s8,a7
   14b18:	c6b6                	sw	a3,76(sp)
   14b1a:	00168e13          	addi	t3,a3,1
   14b1e:	71c05563          	blez	t3,15228 <__gdtoa+0x9e8>
   14b22:	86f2                	mv	a3,t3
   14b24:	85f2                	mv	a1,t3
   14b26:	855a                	mv	a0,s6
   14b28:	da7a                	sw	t5,52(sp)
   14b2a:	d83e                	sw	a5,48(sp)
   14b2c:	d63a                	sw	a4,44(sp)
   14b2e:	d446                	sw	a7,40(sp)
   14b30:	d032                	sw	a2,32(sp)
   14b32:	cc72                	sw	t3,24(sp)
   14b34:	c09a                	sw	t1,64(sp)
   14b36:	ceb6                	sw	a3,92(sp)
   14b38:	599000ef          	jal	158d0 <__rv_alloc_D2A>
   14b3c:	882a                	mv	a6,a0
   14b3e:	16050fe3          	beqz	a0,154bc <__gdtoa+0xc7c>
   14b42:	4792                	lw	a5,4(sp)
   14b44:	c552                	sw	s4,136(sp)
   14b46:	c356                	sw	s5,132(sp)
   14b48:	00c7ae83          	lw	t4,12(a5) # ffff800c <__BSS_END__+0xfffdb458>
   14b4c:	4e62                	lw	t3,24(sp)
   14b4e:	5602                	lw	a2,32(sp)
   14b50:	1efd                	addi	t4,t4,-1
   14b52:	58a2                	lw	a7,40(sp)
   14b54:	5732                	lw	a4,44(sp)
   14b56:	57c2                	lw	a5,48(sp)
   14b58:	5f52                	lw	t5,52(sp)
   14b5a:	000e8d63          	beqz	t4,14b74 <__gdtoa+0x334>
   14b5e:	4306                	lw	t1,64(sp)
   14b60:	000ed363          	bgez	t4,14b66 <__gdtoa+0x326>
   14b64:	4e89                	li	t4,2
   14b66:	10037313          	andi	t1,t1,256
   14b6a:	1e030063          	beqz	t1,14d4a <__gdtoa+0x50a>
   14b6e:	468d                	li	a3,3
   14b70:	41d68eb3          	sub	t4,a3,t4
   14b74:	00fe3693          	sltiu	a3,t3,15
   14b78:	1c068963          	beqz	a3,14d4a <__gdtoa+0x50a>
   14b7c:	1c090763          	beqz	s2,14d4a <__gdtoa+0x50a>
   14b80:	011ee6b3          	or	a3,t4,a7
   14b84:	1c069363          	bnez	a3,14d4a <__gdtoa+0x50a>
   14b88:	27a2                	fld	fa5,8(sp)
   14b8a:	4696                	lw	a3,68(sp)
   14b8c:	ce82                	sw	zero,92(sp)
   14b8e:	ac3e                	fsd	fa5,24(sp)
   14b90:	ca81                	beqz	a3,14ba0 <__gdtoa+0x360>
   14b92:	ef81b787          	fld	fa5,-264(gp) # 1c828 <__SDATA_BEGIN__+0x30>
   14b96:	2762                	fld	fa4,24(sp)
   14b98:	a2f716d3          	flt.d	a3,fa4,fa5
   14b9c:	1a0695e3          	bnez	a3,15546 <__gdtoa+0xd06>
   14ba0:	f181b787          	fld	fa5,-232(gp) # 1c848 <__SDATA_BEGIN__+0x50>
   14ba4:	2762                	fld	fa4,24(sp)
   14ba6:	b03e                	fsd	fa5,32(sp)
   14ba8:	3682                	fld	fa3,32(sp)
   14baa:	f101b787          	fld	fa5,-240(gp) # 1c840 <__SDATA_BEGIN__+0x48>
   14bae:	fcc006b7          	lui	a3,0xfcc00
   14bb2:	7ad777c3          	fmadd.d	fa5,fa4,fa3,fa5
   14bb6:	b03e                	fsd	fa5,32(sp)
   14bb8:	5502                	lw	a0,32(sp)
   14bba:	5592                	lw	a1,36(sp)
   14bbc:	8a2a                	mv	s4,a0
   14bbe:	00b68ab3          	add	s5,a3,a1
   14bc2:	140e0d63          	beqz	t3,14d1c <__gdtoa+0x4dc>
   14bc6:	27e2                	fld	fa5,24(sp)
   14bc8:	4501                	li	a0,0
   14bca:	8372                	mv	t1,t3
   14bcc:	b03e                	fsd	fa5,32(sp)
   14bce:	6eed                	lui	t4,0x1b
   14bd0:	cc8e8593          	addi	a1,t4,-824 # 1acc8 <__mprec_tens>
   14bd4:	00331693          	slli	a3,t1,0x3
   14bd8:	96ae                	add	a3,a3,a1
   14bda:	ff86b787          	fld	fa5,-8(a3) # fcbffff8 <__BSS_END__+0xfcbe3444>
   14bde:	46a6                	lw	a3,72(sp)
   14be0:	4c068a63          	beqz	a3,150b4 <__gdtoa+0x874>
   14be4:	f281b707          	fld	fa4,-216(gp) # 1c858 <__SDATA_BEGIN__+0x60>
   14be8:	3682                	fld	fa3,32(sp)
   14bea:	c452                	sw	s4,8(sp)
   14bec:	1af77753          	fdiv.d	fa4,fa4,fa5
   14bf0:	c2069ed3          	fcvt.w.d	t4,fa3,rtz
   14bf4:	c656                	sw	s5,12(sp)
   14bf6:	00180693          	addi	a3,a6,1
   14bfa:	d20e87d3          	fcvt.d.w	fa5,t4
   14bfe:	030e8e93          	addi	t4,t4,48
   14c02:	01d80023          	sb	t4,0(a6)
   14c06:	0af6f7d3          	fsub.d	fa5,fa3,fa5
   14c0a:	26a2                	fld	fa3,8(sp)
   14c0c:	0ad77753          	fsub.d	fa4,fa4,fa3
   14c10:	a2e79ed3          	flt.d	t4,fa5,fa4
   14c14:	280e95e3          	bnez	t4,1569e <__gdtoa+0xe5e>
   14c18:	ef81b587          	fld	fa1,-264(gp) # 1c828 <__SDATA_BEGIN__+0x30>
   14c1c:	f001b607          	fld	fa2,-256(gp) # 1c830 <__SDATA_BEGIN__+0x38>
   14c20:	a80d                	j	14c52 <__gdtoa+0x412>
   14c22:	4ef6                	lw	t4,92(sp)
   14c24:	0685                	addi	a3,a3,1
   14c26:	0e85                	addi	t4,t4,1
   14c28:	cef6                	sw	t4,92(sp)
   14c2a:	346edbe3          	bge	t4,t1,15780 <__gdtoa+0xf40>
   14c2e:	12c7f7d3          	fmul.d	fa5,fa5,fa2
   14c32:	12c77753          	fmul.d	fa4,fa4,fa2
   14c36:	c2079ed3          	fcvt.w.d	t4,fa5,rtz
   14c3a:	d20e86d3          	fcvt.d.w	fa3,t4
   14c3e:	030e8e93          	addi	t4,t4,48
   14c42:	ffd68fa3          	sb	t4,-1(a3)
   14c46:	0ad7f7d3          	fsub.d	fa5,fa5,fa3
   14c4a:	a2e79ed3          	flt.d	t4,fa5,fa4
   14c4e:	240e98e3          	bnez	t4,1569e <__gdtoa+0xe5e>
   14c52:	0af5f6d3          	fsub.d	fa3,fa1,fa5
   14c56:	a2e69ed3          	flt.d	t4,fa3,fa4
   14c5a:	fc0e84e3          	beqz	t4,14c22 <__gdtoa+0x3e2>
   14c5e:	fff6c703          	lbu	a4,-1(a3)
   14c62:	03900613          	li	a2,57
   14c66:	a031                	j	14c72 <__gdtoa+0x432>
   14c68:	1af803e3          	beq	a6,a5,1560e <__gdtoa+0xdce>
   14c6c:	fff7c703          	lbu	a4,-1(a5)
   14c70:	86be                	mv	a3,a5
   14c72:	fff68793          	addi	a5,a3,-1
   14c76:	fec709e3          	beq	a4,a2,14c68 <__gdtoa+0x428>
   14c7a:	0705                	addi	a4,a4,1
   14c7c:	00e78023          	sb	a4,0(a5)
   14c80:	00150613          	addi	a2,a0,1
   14c84:	02000c93          	li	s9,32
   14c88:	85a2                	mv	a1,s0
   14c8a:	855a                	mv	a0,s6
   14c8c:	c442                	sw	a6,8(sp)
   14c8e:	c232                	sw	a2,4(sp)
   14c90:	c036                	sw	a3,0(sp)
   14c92:	7a9000ef          	jal	15c3a <_Bfree>
   14c96:	4682                	lw	a3,0(sp)
   14c98:	4612                	lw	a2,4(sp)
   14c9a:	4822                	lw	a6,8(sp)
   14c9c:	00068023          	sb	zero,0(a3)
   14ca0:	00cda023          	sw	a2,0(s11)
   14ca4:	c091                	beqz	s1,14ca8 <__gdtoa+0x468>
   14ca6:	c094                	sw	a3,0(s1)
   14ca8:	4742                	lw	a4,16(sp)
   14caa:	494a                	lw	s2,144(sp)
   14cac:	4a2a                	lw	s4,136(sp)
   14cae:	431c                	lw	a5,0(a4)
   14cb0:	4a9a                	lw	s5,132(sp)
   14cb2:	4b0a                	lw	s6,128(sp)
   14cb4:	0197e7b3          	or	a5,a5,s9
   14cb8:	5bf6                	lw	s7,124(sp)
   14cba:	5c66                	lw	s8,120(sp)
   14cbc:	5d46                	lw	s10,112(sp)
   14cbe:	5db6                	lw	s11,108(sp)
   14cc0:	c31c                	sw	a5,0(a4)
   14cc2:	b35d                	j	14a68 <__gdtoa+0x228>
   14cc4:	85aa                	mv	a1,a0
   14cc6:	8522                	mv	a0,s0
   14cc8:	62b000ef          	jal	15af2 <__rshift_D2A>
   14ccc:	4676                	lw	a2,92(sp)
   14cce:	4702                	lw	a4,0(sp)
   14cd0:	47e2                	lw	a5,24(sp)
   14cd2:	4322                	lw	t1,8(sp)
   14cd4:	8f91                	sub	a5,a5,a2
   14cd6:	963a                	add	a2,a2,a4
   14cd8:	4752                	lw	a4,20(sp)
   14cda:	b9a1                	j	14932 <__gdtoa+0xf2>
   14cdc:	9f46                	add	t5,t5,a7
   14cde:	de46                	sw	a7,60(sp)
   14ce0:	dc02                	sw	zero,56(sp)
   14ce2:	b529                	j	14aec <__gdtoa+0x2ac>
   14ce4:	4585                	li	a1,1
   14ce6:	40d586b3          	sub	a3,a1,a3
   14cea:	ca36                	sw	a3,20(sp)
   14cec:	4f01                	li	t5,0
   14cee:	de08c7e3          	bltz	a7,14adc <__gdtoa+0x29c>
   14cf2:	b7ed                	j	14cdc <__gdtoa+0x49c>
   14cf4:	18fd                	addi	a7,a7,-1
   14cf6:	c282                	sw	zero,68(sp)
   14cf8:	bbe9                	j	14ad2 <__gdtoa+0x292>
   14cfa:	f181b787          	fld	fa5,-232(gp) # 1c848 <__SDATA_BEGIN__+0x50>
   14cfe:	2762                	fld	fa4,24(sp)
   14d00:	a43e                	fsd	fa5,8(sp)
   14d02:	26a2                	fld	fa3,8(sp)
   14d04:	f101b787          	fld	fa5,-240(gp) # 1c840 <__SDATA_BEGIN__+0x48>
   14d08:	fcc006b7          	lui	a3,0xfcc00
   14d0c:	7ad777c3          	fmadd.d	fa5,fa4,fa3,fa5
   14d10:	a43e                	fsd	fa5,8(sp)
   14d12:	4522                	lw	a0,8(sp)
   14d14:	45b2                	lw	a1,12(sp)
   14d16:	8a2a                	mv	s4,a0
   14d18:	00b68ab3          	add	s5,a3,a1
   14d1c:	f201b787          	fld	fa5,-224(gp) # 1c850 <__SDATA_BEGIN__+0x58>
   14d20:	2762                	fld	fa4,24(sp)
   14d22:	c452                	sw	s4,8(sp)
   14d24:	c656                	sw	s5,12(sp)
   14d26:	0af777d3          	fsub.d	fa5,fa4,fa5
   14d2a:	2722                	fld	fa4,8(sp)
   14d2c:	a2f716d3          	flt.d	a3,fa4,fa5
   14d30:	0a069de3          	bnez	a3,155ea <__gdtoa+0xdaa>
   14d34:	22e71753          	fneg.d	fa4,fa4
   14d38:	a2e796d3          	flt.d	a3,fa5,fa4
   14d3c:	4c069b63          	bnez	a3,15212 <__gdtoa+0x9d2>
   14d40:	4562                	lw	a0,24(sp)
   14d42:	45f2                	lw	a1,28(sp)
   14d44:	4e81                	li	t4,0
   14d46:	c42a                	sw	a0,8(sp)
   14d48:	c62e                	sw	a1,12(sp)
   14d4a:	0a064263          	bltz	a2,14dee <__gdtoa+0x5ae>
   14d4e:	00f8a693          	slti	a3,a7,15
   14d52:	ced1                	beqz	a3,14dee <__gdtoa+0x5ae>
   14d54:	65ed                	lui	a1,0x1b
   14d56:	cc858593          	addi	a1,a1,-824 # 1acc8 <__mprec_tens>
   14d5a:	00389793          	slli	a5,a7,0x3
   14d5e:	95be                	add	a1,a1,a5
   14d60:	2198                	fld	fa4,0(a1)
   14d62:	2c0c5963          	bgez	s8,15034 <__gdtoa+0x7f4>
   14d66:	2dc04763          	bgtz	t3,15034 <__gdtoa+0x7f4>
   14d6a:	4a0e1463          	bnez	t3,15212 <__gdtoa+0x9d2>
   14d6e:	f201b787          	fld	fa5,-224(gp) # 1c850 <__SDATA_BEGIN__+0x58>
   14d72:	12f77753          	fmul.d	fa4,fa4,fa5
   14d76:	27a2                	fld	fa5,8(sp)
   14d78:	a2e787d3          	fle.d	a5,fa5,fa4
   14d7c:	48079b63          	bnez	a5,15212 <__gdtoa+0x9d2>
   14d80:	03100793          	li	a5,49
   14d84:	00180693          	addi	a3,a6,1
   14d88:	00f80023          	sb	a5,0(a6)
   14d8c:	4581                	li	a1,0
   14d8e:	855a                	mv	a0,s6
   14d90:	c446                	sw	a7,8(sp)
   14d92:	c242                	sw	a6,4(sp)
   14d94:	c036                	sw	a3,0(sp)
   14d96:	6a5000ef          	jal	15c3a <_Bfree>
   14d9a:	48a2                	lw	a7,8(sp)
   14d9c:	4682                	lw	a3,0(sp)
   14d9e:	4812                	lw	a6,4(sp)
   14da0:	00288613          	addi	a2,a7,2
   14da4:	02000c93          	li	s9,32
   14da8:	b5c5                	j	14c88 <__gdtoa+0x448>
   14daa:	3fd50513          	addi	a0,a0,1021
   14dae:	7f853913          	sltiu	s2,a0,2040
   14db2:	4b81                	li	s7,0
   14db4:	ef01b707          	fld	fa4,-272(gp) # 1c820 <__SDATA_BEGIN__+0x28>
   14db8:	d20707d3          	fcvt.d.w	fa5,a4
   14dbc:	56fd                	li	a3,-1
   14dbe:	c6b6                	sw	a3,76(sp)
   14dc0:	12e7f7d3          	fmul.d	fa5,fa5,fa4
   14dc4:	8e36                	mv	t3,a3
   14dc6:	4685                	li	a3,1
   14dc8:	c4b6                	sw	a3,72(sp)
   14dca:	4c01                	li	s8,0
   14dcc:	c20795d3          	fcvt.w.d	a1,fa5,rtz
   14dd0:	058d                	addi	a1,a1,3
   14dd2:	86ae                	mv	a3,a1
   14dd4:	bb89                	j	14b26 <__gdtoa+0x2e6>
   14dd6:	4685                	li	a3,1
   14dd8:	4901                	li	s2,0
   14dda:	c4b6                	sw	a3,72(sp)
   14ddc:	85e2                	mv	a1,s8
   14dde:	01804363          	bgtz	s8,14de4 <__gdtoa+0x5a4>
   14de2:	4585                	li	a1,1
   14de4:	86ae                	mv	a3,a1
   14de6:	c6ae                	sw	a1,76(sp)
   14de8:	8e2e                	mv	t3,a1
   14dea:	8c2e                	mv	s8,a1
   14dec:	bb2d                	j	14b26 <__gdtoa+0x2e6>
   14dee:	46a6                	lw	a3,72(sp)
   14df0:	32068963          	beqz	a3,15122 <__gdtoa+0x8e2>
   14df4:	4692                	lw	a3,4(sp)
   14df6:	8f1d                	sub	a4,a4,a5
   14df8:	00170593          	addi	a1,a4,1
   14dfc:	42d4                	lw	a3,4(a3)
   14dfe:	ceae                	sw	a1,92(sp)
   14e00:	40e60733          	sub	a4,a2,a4
   14e04:	54d75263          	bge	a4,a3,15348 <__gdtoa+0xb08>
   14e08:	ffdb8713          	addi	a4,s7,-3
   14e0c:	9b75                	andi	a4,a4,-3
   14e0e:	46070263          	beqz	a4,15272 <__gdtoa+0xa32>
   14e12:	40d60733          	sub	a4,a2,a3
   14e16:	002ba693          	slti	a3,s7,2
   14e1a:	0705                	addi	a4,a4,1
   14e1c:	0016b693          	seqz	a3,a3
   14e20:	01c02633          	sgtz	a2,t3
   14e24:	ceba                	sw	a4,92(sp)
   14e26:	8ef1                	and	a3,a3,a2
   14e28:	c299                	beqz	a3,14e2e <__gdtoa+0x5ee>
   14e2a:	1aee4ae3          	blt	t3,a4,157de <__gdtoa+0xf9e>
   14e2e:	46d2                	lw	a3,20(sp)
   14e30:	5962                	lw	s2,56(sp)
   14e32:	9f3a                	add	t5,t5,a4
   14e34:	00d70ab3          	add	s5,a4,a3
   14e38:	4585                	li	a1,1
   14e3a:	855a                	mv	a0,s6
   14e3c:	d842                	sw	a6,48(sp)
   14e3e:	d67a                	sw	t5,44(sp)
   14e40:	d43e                	sw	a5,40(sp)
   14e42:	d076                	sw	t4,32(sp)
   14e44:	cc46                	sw	a7,24(sp)
   14e46:	c472                	sw	t3,8(sp)
   14e48:	0cc010ef          	jal	15f14 <__i2b>
   14e4c:	8a2a                	mv	s4,a0
   14e4e:	c00504e3          	beqz	a0,14a56 <__gdtoa+0x216>
   14e52:	4752                	lw	a4,20(sp)
   14e54:	4e22                	lw	t3,8(sp)
   14e56:	48e2                	lw	a7,24(sp)
   14e58:	5e82                	lw	t4,32(sp)
   14e5a:	57a2                	lw	a5,40(sp)
   14e5c:	5f32                	lw	t5,44(sp)
   14e5e:	5842                	lw	a6,48(sp)
   14e60:	c305                	beqz	a4,14e80 <__gdtoa+0x640>
   14e62:	01e05f63          	blez	t5,14e80 <__gdtoa+0x640>
   14e66:	46d2                	lw	a3,20(sp)
   14e68:	8736                	mv	a4,a3
   14e6a:	00df5363          	bge	t5,a3,14e70 <__gdtoa+0x630>
   14e6e:	877a                	mv	a4,t5
   14e70:	46d2                	lw	a3,20(sp)
   14e72:	ceba                	sw	a4,92(sp)
   14e74:	40ea8ab3          	sub	s5,s5,a4
   14e78:	8e99                	sub	a3,a3,a4
   14e7a:	ca36                	sw	a3,20(sp)
   14e7c:	40ef0f33          	sub	t5,t5,a4
   14e80:	5762                	lw	a4,56(sp)
   14e82:	c71d                	beqz	a4,14eb0 <__gdtoa+0x670>
   14e84:	66091763          	bnez	s2,154f2 <__gdtoa+0xcb2>
   14e88:	5662                	lw	a2,56(sp)
   14e8a:	85a2                	mv	a1,s0
   14e8c:	855a                	mv	a0,s6
   14e8e:	d842                	sw	a6,48(sp)
   14e90:	d67a                	sw	t5,44(sp)
   14e92:	d43e                	sw	a5,40(sp)
   14e94:	d076                	sw	t4,32(sp)
   14e96:	cc46                	sw	a7,24(sp)
   14e98:	c472                	sw	t3,8(sp)
   14e9a:	2a4010ef          	jal	1613e <__pow5mult>
   14e9e:	4e22                	lw	t3,8(sp)
   14ea0:	48e2                	lw	a7,24(sp)
   14ea2:	5e82                	lw	t4,32(sp)
   14ea4:	57a2                	lw	a5,40(sp)
   14ea6:	5f32                	lw	t5,44(sp)
   14ea8:	5842                	lw	a6,48(sp)
   14eaa:	842a                	mv	s0,a0
   14eac:	ba0505e3          	beqz	a0,14a56 <__gdtoa+0x216>
   14eb0:	4585                	li	a1,1
   14eb2:	855a                	mv	a0,s6
   14eb4:	d842                	sw	a6,48(sp)
   14eb6:	d67a                	sw	t5,44(sp)
   14eb8:	d43e                	sw	a5,40(sp)
   14eba:	d076                	sw	t4,32(sp)
   14ebc:	cc46                	sw	a7,24(sp)
   14ebe:	c472                	sw	t3,8(sp)
   14ec0:	054010ef          	jal	15f14 <__i2b>
   14ec4:	832a                	mv	t1,a0
   14ec6:	b80508e3          	beqz	a0,14a56 <__gdtoa+0x216>
   14eca:	5772                	lw	a4,60(sp)
   14ecc:	4e22                	lw	t3,8(sp)
   14ece:	48e2                	lw	a7,24(sp)
   14ed0:	5e82                	lw	t4,32(sp)
   14ed2:	57a2                	lw	a5,40(sp)
   14ed4:	5f32                	lw	t5,44(sp)
   14ed6:	5842                	lw	a6,48(sp)
   14ed8:	3a071d63          	bnez	a4,15292 <__gdtoa+0xa52>
   14edc:	002ba713          	slti	a4,s7,2
   14ee0:	c701                	beqz	a4,14ee8 <__gdtoa+0x6a8>
   14ee2:	17fd                	addi	a5,a5,-1
   14ee4:	10078963          	beqz	a5,14ff6 <__gdtoa+0x7b6>
   14ee8:	457d                	li	a0,31
   14eea:	41e507b3          	sub	a5,a0,t5
   14eee:	17f1                	addi	a5,a5,-4
   14ef0:	8bfd                	andi	a5,a5,31
   14ef2:	cebe                	sw	a5,92(sp)
   14ef4:	01578633          	add	a2,a5,s5
   14ef8:	873e                	mv	a4,a5
   14efa:	32c04f63          	bgtz	a2,15238 <__gdtoa+0x9f8>
   14efe:	00ef0633          	add	a2,t5,a4
   14f02:	b2c049e3          	bgtz	a2,14a34 <__gdtoa+0x1f4>
   14f06:	4716                	lw	a4,68(sp)
   14f08:	e751                	bnez	a4,14f94 <__gdtoa+0x754>
   14f0a:	25c04263          	bgtz	t3,1514e <__gdtoa+0x90e>
   14f0e:	003ba713          	slti	a4,s7,3
   14f12:	22071e63          	bnez	a4,1514e <__gdtoa+0x90e>
   14f16:	859a                	mv	a1,t1
   14f18:	4681                	li	a3,0
   14f1a:	4615                	li	a2,5
   14f1c:	855a                	mv	a0,s6
   14f1e:	c442                	sw	a6,8(sp)
   14f20:	c246                	sw	a7,4(sp)
   14f22:	c072                	sw	t3,0(sp)
   14f24:	529000ef          	jal	15c4c <__multadd>
   14f28:	85aa                	mv	a1,a0
   14f2a:	b20506e3          	beqz	a0,14a56 <__gdtoa+0x216>
   14f2e:	4e02                	lw	t3,0(sp)
   14f30:	4892                	lw	a7,4(sp)
   14f32:	4822                	lw	a6,8(sp)
   14f34:	580e1763          	bnez	t3,154c2 <__gdtoa+0xc82>
   14f38:	c02a                	sw	a0,0(sp)
   14f3a:	8522                	mv	a0,s0
   14f3c:	c442                	sw	a6,8(sp)
   14f3e:	c246                	sw	a7,4(sp)
   14f40:	3dc010ef          	jal	1631c <__mcmp>
   14f44:	4582                	lw	a1,0(sp)
   14f46:	4892                	lw	a7,4(sp)
   14f48:	4822                	lw	a6,8(sp)
   14f4a:	56a05c63          	blez	a0,154c2 <__gdtoa+0xc82>
   14f4e:	03100793          	li	a5,49
   14f52:	00f80023          	sb	a5,0(a6)
   14f56:	0885                	addi	a7,a7,1
   14f58:	00180693          	addi	a3,a6,1
   14f5c:	02000c93          	li	s9,32
   14f60:	855a                	mv	a0,s6
   14f62:	c442                	sw	a6,8(sp)
   14f64:	c236                	sw	a3,4(sp)
   14f66:	c046                	sw	a7,0(sp)
   14f68:	4d3000ef          	jal	15c3a <_Bfree>
   14f6c:	4882                	lw	a7,0(sp)
   14f6e:	4692                	lw	a3,4(sp)
   14f70:	4822                	lw	a6,8(sp)
   14f72:	00188613          	addi	a2,a7,1
   14f76:	d00a09e3          	beqz	s4,14c88 <__gdtoa+0x448>
   14f7a:	85d2                	mv	a1,s4
   14f7c:	855a                	mv	a0,s6
   14f7e:	c442                	sw	a6,8(sp)
   14f80:	c236                	sw	a3,4(sp)
   14f82:	c046                	sw	a7,0(sp)
   14f84:	4b7000ef          	jal	15c3a <_Bfree>
   14f88:	4882                	lw	a7,0(sp)
   14f8a:	4692                	lw	a3,4(sp)
   14f8c:	4822                	lw	a6,8(sp)
   14f8e:	00188613          	addi	a2,a7,1
   14f92:	b9dd                	j	14c88 <__gdtoa+0x448>
   14f94:	859a                	mv	a1,t1
   14f96:	8522                	mv	a0,s0
   14f98:	d442                	sw	a6,40(sp)
   14f9a:	d076                	sw	t4,32(sp)
   14f9c:	cc46                	sw	a7,24(sp)
   14f9e:	c43e                	sw	a5,8(sp)
   14fa0:	c272                	sw	t3,4(sp)
   14fa2:	c01a                	sw	t1,0(sp)
   14fa4:	378010ef          	jal	1631c <__mcmp>
   14fa8:	4302                	lw	t1,0(sp)
   14faa:	4e12                	lw	t3,4(sp)
   14fac:	47a2                	lw	a5,8(sp)
   14fae:	48e2                	lw	a7,24(sp)
   14fb0:	5e82                	lw	t4,32(sp)
   14fb2:	5822                	lw	a6,40(sp)
   14fb4:	f4055be3          	bgez	a0,14f0a <__gdtoa+0x6ca>
   14fb8:	85a2                	mv	a1,s0
   14fba:	4681                	li	a3,0
   14fbc:	4629                	li	a2,10
   14fbe:	855a                	mv	a0,s6
   14fc0:	d042                	sw	a6,32(sp)
   14fc2:	cc1a                	sw	t1,24(sp)
   14fc4:	c476                	sw	t4,8(sp)
   14fc6:	c246                	sw	a7,4(sp)
   14fc8:	c03e                	sw	a5,0(sp)
   14fca:	483000ef          	jal	15c4c <__multadd>
   14fce:	842a                	mv	s0,a0
   14fd0:	a80503e3          	beqz	a0,14a56 <__gdtoa+0x216>
   14fd4:	4892                	lw	a7,4(sp)
   14fd6:	4726                	lw	a4,72(sp)
   14fd8:	4ea2                	lw	t4,8(sp)
   14fda:	4362                	lw	t1,24(sp)
   14fdc:	5802                	lw	a6,32(sp)
   14fde:	18fd                	addi	a7,a7,-1
   14fe0:	36071d63          	bnez	a4,1535a <__gdtoa+0xb1a>
   14fe4:	47b6                	lw	a5,76(sp)
   14fe6:	7ef04963          	bgtz	a5,157d8 <__gdtoa+0xf98>
   14fea:	003ba793          	slti	a5,s7,3
   14fee:	7e079563          	bnez	a5,157d8 <__gdtoa+0xf98>
   14ff2:	4e36                	lw	t3,76(sp)
   14ff4:	b70d                	j	14f16 <__gdtoa+0x6d6>
   14ff6:	4792                	lw	a5,4(sp)
   14ff8:	4702                	lw	a4,0(sp)
   14ffa:	43dc                	lw	a5,4(a5)
   14ffc:	0785                	addi	a5,a5,1
   14ffe:	eee7d5e3          	bge	a5,a4,14ee8 <__gdtoa+0x6a8>
   15002:	4785                	li	a5,1
   15004:	0a85                	addi	s5,s5,1
   15006:	0f05                	addi	t5,t5,1
   15008:	de3e                	sw	a5,60(sp)
   1500a:	bdf9                	j	14ee8 <__gdtoa+0x6a8>
   1500c:	3fd50513          	addi	a0,a0,1021
   15010:	4591                	li	a1,4
   15012:	7f853913          	sltiu	s2,a0,2040
   15016:	4abb8d63          	beq	s7,a1,154d0 <__gdtoa+0xc90>
   1501a:	20db8b63          	beq	s7,a3,15230 <__gdtoa+0x9f0>
   1501e:	4689                	li	a3,2
   15020:	4adb8663          	beq	s7,a3,154cc <__gdtoa+0xc8c>
   15024:	468d                	li	a3,3
   15026:	c482                	sw	zero,72(sp)
   15028:	aedb86e3          	beq	s7,a3,14b14 <__gdtoa+0x2d4>
   1502c:	b361                	j	14db4 <__gdtoa+0x574>
   1502e:	cc8eb707          	fld	fa4,-824(t4)
   15032:	4e81                	li	t4,0
   15034:	27a2                	fld	fa5,8(sp)
   15036:	4785                	li	a5,1
   15038:	cebe                	sw	a5,92(sp)
   1503a:	1ae7f7d3          	fdiv.d	fa5,fa5,fa4
   1503e:	00f806b3          	add	a3,a6,a5
   15042:	00f88633          	add	a2,a7,a5
   15046:	26a2                	fld	fa3,8(sp)
   15048:	d2000653          	fcvt.d.w	fa2,zero
   1504c:	c20797d3          	fcvt.w.d	a5,fa5,rtz
   15050:	d20787d3          	fcvt.d.w	fa5,a5
   15054:	03078713          	addi	a4,a5,48
   15058:	00e80023          	sb	a4,0(a6)
   1505c:	6af777cb          	fnmsub.d	fa5,fa4,fa5,fa3
   15060:	a2c7a753          	feq.d	a4,fa5,fa2
   15064:	c20712e3          	bnez	a4,14c88 <__gdtoa+0x448>
   15068:	f001b587          	fld	fa1,-256(gp) # 1c830 <__SDATA_BEGIN__+0x38>
   1506c:	a02d                	j	15096 <__gdtoa+0x856>
   1506e:	12b7f7d3          	fmul.d	fa5,fa5,fa1
   15072:	ceae                	sw	a1,92(sp)
   15074:	0685                	addi	a3,a3,1 # fcc00001 <__BSS_END__+0xfcbe344d>
   15076:	1ae7f6d3          	fdiv.d	fa3,fa5,fa4
   1507a:	c20697d3          	fcvt.w.d	a5,fa3,rtz
   1507e:	d20786d3          	fcvt.d.w	fa3,a5
   15082:	03078713          	addi	a4,a5,48
   15086:	fee68fa3          	sb	a4,-1(a3)
   1508a:	7ae6f7cb          	fnmsub.d	fa5,fa3,fa4,fa5
   1508e:	a2c7a753          	feq.d	a4,fa5,fa2
   15092:	be071be3          	bnez	a4,14c88 <__gdtoa+0x448>
   15096:	4776                	lw	a4,92(sp)
   15098:	00170593          	addi	a1,a4,1
   1509c:	fdc719e3          	bne	a4,t3,1506e <__gdtoa+0x82e>
   150a0:	560e8c63          	beqz	t4,15618 <__gdtoa+0xdd8>
   150a4:	4785                	li	a5,1
   150a6:	4cc1                	li	s9,16
   150a8:	befe90e3          	bne	t4,a5,14c88 <__gdtoa+0x448>
   150ac:	fff6c703          	lbu	a4,-1(a3)
   150b0:	8546                	mv	a0,a7
   150b2:	be45                	j	14c62 <__gdtoa+0x422>
   150b4:	d052                	sw	s4,32(sp)
   150b6:	d256                	sw	s5,36(sp)
   150b8:	3702                	fld	fa4,32(sp)
   150ba:	86c2                	mv	a3,a6
   150bc:	12e7f653          	fmul.d	fa2,fa5,fa4
   150c0:	f001b707          	fld	fa4,-256(gp) # 1c830 <__SDATA_BEGIN__+0x38>
   150c4:	4705                	li	a4,1
   150c6:	27a2                	fld	fa5,8(sp)
   150c8:	ceba                	sw	a4,92(sp)
   150ca:	a021                	j	150d2 <__gdtoa+0x892>
   150cc:	12e7f7d3          	fmul.d	fa5,fa5,fa4
   150d0:	cefe                	sw	t6,92(sp)
   150d2:	c20795d3          	fcvt.w.d	a1,fa5,rtz
   150d6:	0685                	addi	a3,a3,1
   150d8:	03058713          	addi	a4,a1,48
   150dc:	0ff77713          	zext.b	a4,a4
   150e0:	c589                	beqz	a1,150ea <__gdtoa+0x8aa>
   150e2:	d20586d3          	fcvt.d.w	fa3,a1
   150e6:	0ad7f7d3          	fsub.d	fa5,fa5,fa3
   150ea:	fee68fa3          	sb	a4,-1(a3)
   150ee:	45f6                	lw	a1,92(sp)
   150f0:	00158f93          	addi	t6,a1,1
   150f4:	fc659ce3          	bne	a1,t1,150cc <__gdtoa+0x88c>
   150f8:	f281b707          	fld	fa4,-216(gp) # 1c858 <__SDATA_BEGIN__+0x60>
   150fc:	02e676d3          	fadd.d	fa3,fa2,fa4
   15100:	a2f695d3          	flt.d	a1,fa3,fa5
   15104:	b4059fe3          	bnez	a1,14c62 <__gdtoa+0x422>
   15108:	0ac77753          	fsub.d	fa4,fa4,fa2
   1510c:	a2e79753          	flt.d	a4,fa5,fa4
   15110:	68071163          	bnez	a4,15792 <__gdtoa+0xf52>
   15114:	46e2                	lw	a3,24(sp)
   15116:	4772                	lw	a4,28(sp)
   15118:	c436                	sw	a3,8(sp)
   1511a:	c63a                	sw	a4,12(sp)
   1511c:	f00659e3          	bgez	a2,1502e <__gdtoa+0x7ee>
   15120:	4e81                	li	t4,0
   15122:	4752                	lw	a4,20(sp)
   15124:	1e070763          	beqz	a4,15312 <__gdtoa+0xad2>
   15128:	1e0f0563          	beqz	t5,15312 <__gdtoa+0xad2>
   1512c:	46d2                	lw	a3,20(sp)
   1512e:	8736                	mv	a4,a3
   15130:	00df5363          	bge	t5,a3,15136 <__gdtoa+0x8f6>
   15134:	877a                	mv	a4,t5
   15136:	46d2                	lw	a3,20(sp)
   15138:	ceba                	sw	a4,92(sp)
   1513a:	40ef0f33          	sub	t5,t5,a4
   1513e:	8e99                	sub	a3,a3,a4
   15140:	5762                	lw	a4,56(sp)
   15142:	8ab6                	mv	s5,a3
   15144:	1c071b63          	bnez	a4,1531a <__gdtoa+0xada>
   15148:	ca36                	sw	a3,20(sp)
   1514a:	4a01                	li	s4,0
   1514c:	b395                	j	14eb0 <__gdtoa+0x670>
   1514e:	4726                	lw	a4,72(sp)
   15150:	22071c63          	bnez	a4,15388 <__gdtoa+0xb48>
   15154:	c74e                	sw	s3,140(sp)
   15156:	4705                	li	a4,1
   15158:	8af2                	mv	s5,t3
   1515a:	8bc6                	mv	s7,a7
   1515c:	8c76                	mv	s8,t4
   1515e:	8942                	mv	s2,a6
   15160:	899a                	mv	s3,t1
   15162:	8cc2                	mv	s9,a6
   15164:	a811                	j	15178 <__gdtoa+0x938>
   15166:	85a2                	mv	a1,s0
   15168:	855a                	mv	a0,s6
   1516a:	2e3000ef          	jal	15c4c <__multadd>
   1516e:	842a                	mv	s0,a0
   15170:	0e050d63          	beqz	a0,1526a <__gdtoa+0xa2a>
   15174:	4776                	lw	a4,92(sp)
   15176:	0705                	addi	a4,a4,1
   15178:	85ce                	mv	a1,s3
   1517a:	8522                	mv	a0,s0
   1517c:	ceba                	sw	a4,92(sp)
   1517e:	00b000ef          	jal	15988 <__quorem_D2A>
   15182:	00190793          	addi	a5,s2,1
   15186:	03050713          	addi	a4,a0,48
   1518a:	fee78fa3          	sb	a4,-1(a5)
   1518e:	893e                	mv	s2,a5
   15190:	47f6                	lw	a5,92(sp)
   15192:	4681                	li	a3,0
   15194:	4629                	li	a2,10
   15196:	fd57c8e3          	blt	a5,s5,15166 <__gdtoa+0x926>
   1519a:	88de                	mv	a7,s7
   1519c:	8ee2                	mv	t4,s8
   1519e:	87ca                	mv	a5,s2
   151a0:	834e                	mv	t1,s3
   151a2:	8866                	mv	a6,s9
   151a4:	4e01                	li	t3,0
   151a6:	520e8063          	beqz	t4,156c6 <__gdtoa+0xe86>
   151aa:	4709                	li	a4,2
   151ac:	54ee8a63          	beq	t4,a4,15700 <__gdtoa+0xec0>
   151b0:	4814                	lw	a3,16(s0)
   151b2:	4705                	li	a4,1
   151b4:	3ed74563          	blt	a4,a3,1559e <__gdtoa+0xd5e>
   151b8:	4858                	lw	a4,20(s0)
   151ba:	3e071263          	bnez	a4,1559e <__gdtoa+0xd5e>
   151be:	00e03733          	snez	a4,a4
   151c2:	00471c93          	slli	s9,a4,0x4
   151c6:	03000613          	li	a2,48
   151ca:	86be                	mv	a3,a5
   151cc:	fff7c703          	lbu	a4,-1(a5)
   151d0:	17fd                	addi	a5,a5,-1
   151d2:	fec70ce3          	beq	a4,a2,151ca <__gdtoa+0x98a>
   151d6:	859a                	mv	a1,t1
   151d8:	855a                	mv	a0,s6
   151da:	ca42                	sw	a6,20(sp)
   151dc:	c436                	sw	a3,8(sp)
   151de:	c272                	sw	t3,4(sp)
   151e0:	c046                	sw	a7,0(sp)
   151e2:	259000ef          	jal	15c3a <_Bfree>
   151e6:	4882                	lw	a7,0(sp)
   151e8:	4e12                	lw	t3,4(sp)
   151ea:	46a2                	lw	a3,8(sp)
   151ec:	4852                	lw	a6,20(sp)
   151ee:	6a0a0f63          	beqz	s4,158ac <__gdtoa+0x106c>
   151f2:	060e0a63          	beqz	t3,15266 <__gdtoa+0xa26>
   151f6:	074e0863          	beq	t3,s4,15266 <__gdtoa+0xa26>
   151fa:	85f2                	mv	a1,t3
   151fc:	855a                	mv	a0,s6
   151fe:	c442                	sw	a6,8(sp)
   15200:	c236                	sw	a3,4(sp)
   15202:	c046                	sw	a7,0(sp)
   15204:	237000ef          	jal	15c3a <_Bfree>
   15208:	4822                	lw	a6,8(sp)
   1520a:	4692                	lw	a3,4(sp)
   1520c:	4882                	lw	a7,0(sp)
   1520e:	49ba                	lw	s3,140(sp)
   15210:	b3ad                	j	14f7a <__gdtoa+0x73a>
   15212:	4581                	li	a1,0
   15214:	855a                	mv	a0,s6
   15216:	c042                	sw	a6,0(sp)
   15218:	223000ef          	jal	15c3a <_Bfree>
   1521c:	4802                	lw	a6,0(sp)
   1521e:	41800633          	neg	a2,s8
   15222:	4cc1                	li	s9,16
   15224:	86c2                	mv	a3,a6
   15226:	b48d                	j	14c88 <__gdtoa+0x448>
   15228:	4685                	li	a3,1
   1522a:	85b6                	mv	a1,a3
   1522c:	b8ed                	j	14b26 <__gdtoa+0x2e6>
   1522e:	4901                	li	s2,0
   15230:	4685                	li	a3,1
   15232:	4b95                	li	s7,5
   15234:	c4b6                	sw	a3,72(sp)
   15236:	b8f9                	j	14b14 <__gdtoa+0x2d4>
   15238:	85a2                	mv	a1,s0
   1523a:	855a                	mv	a0,s6
   1523c:	d642                	sw	a6,44(sp)
   1523e:	d47a                	sw	t5,40(sp)
   15240:	d01a                	sw	t1,32(sp)
   15242:	cc76                	sw	t4,24(sp)
   15244:	c446                	sw	a7,8(sp)
   15246:	c23e                	sw	a5,4(sp)
   15248:	c072                	sw	t3,0(sp)
   1524a:	7cf000ef          	jal	16218 <__lshift>
   1524e:	842a                	mv	s0,a0
   15250:	800503e3          	beqz	a0,14a56 <__gdtoa+0x216>
   15254:	4776                	lw	a4,92(sp)
   15256:	5832                	lw	a6,44(sp)
   15258:	5f22                	lw	t5,40(sp)
   1525a:	5302                	lw	t1,32(sp)
   1525c:	4ee2                	lw	t4,24(sp)
   1525e:	48a2                	lw	a7,8(sp)
   15260:	4792                	lw	a5,4(sp)
   15262:	4e02                	lw	t3,0(sp)
   15264:	b969                	j	14efe <__gdtoa+0x6be>
   15266:	49ba                	lw	s3,140(sp)
   15268:	bb09                	j	14f7a <__gdtoa+0x73a>
   1526a:	494a                	lw	s2,144(sp)
   1526c:	49ba                	lw	s3,140(sp)
   1526e:	feaff06f          	j	14a58 <__gdtoa+0x218>
   15272:	56e2                	lw	a3,56(sp)
   15274:	fffe0713          	addi	a4,t3,-1
   15278:	24e6cf63          	blt	a3,a4,154d6 <__gdtoa+0xc96>
   1527c:	40e68933          	sub	s2,a3,a4
   15280:	5c0e5863          	bgez	t3,15850 <__gdtoa+0x1010>
   15284:	4752                	lw	a4,20(sp)
   15286:	ce82                	sw	zero,92(sp)
   15288:	8aba                	mv	s5,a4
   1528a:	41c70733          	sub	a4,a4,t3
   1528e:	ca3a                	sw	a4,20(sp)
   15290:	b665                	j	14e38 <__gdtoa+0x5f8>
   15292:	85aa                	mv	a1,a0
   15294:	863a                	mv	a2,a4
   15296:	855a                	mv	a0,s6
   15298:	d642                	sw	a6,44(sp)
   1529a:	d47a                	sw	t5,40(sp)
   1529c:	d83e                	sw	a5,48(sp)
   1529e:	6a1000ef          	jal	1613e <__pow5mult>
   152a2:	832a                	mv	t1,a0
   152a4:	fa050963          	beqz	a0,14a56 <__gdtoa+0x216>
   152a8:	002ba713          	slti	a4,s7,2
   152ac:	4e22                	lw	t3,8(sp)
   152ae:	48e2                	lw	a7,24(sp)
   152b0:	5e82                	lw	t4,32(sp)
   152b2:	5f22                	lw	t5,40(sp)
   152b4:	5832                	lw	a6,44(sp)
   152b6:	c701                	beqz	a4,152be <__gdtoa+0xa7e>
   152b8:	57c2                	lw	a5,48(sp)
   152ba:	17fd                	addi	a5,a5,-1
   152bc:	c795                	beqz	a5,152e8 <__gdtoa+0xaa8>
   152be:	de02                	sw	zero,60(sp)
   152c0:	01032783          	lw	a5,16(t1)
   152c4:	d442                	sw	a6,40(sp)
   152c6:	d07a                	sw	t5,32(sp)
   152c8:	078a                	slli	a5,a5,0x2
   152ca:	979a                	add	a5,a5,t1
   152cc:	4b88                	lw	a0,16(a5)
   152ce:	cc76                	sw	t4,24(sp)
   152d0:	c446                	sw	a7,8(sp)
   152d2:	c272                	sw	t3,4(sp)
   152d4:	c01a                	sw	t1,0(sp)
   152d6:	32f000ef          	jal	15e04 <__hi0bits>
   152da:	5822                	lw	a6,40(sp)
   152dc:	5f02                	lw	t5,32(sp)
   152de:	4ee2                	lw	t4,24(sp)
   152e0:	48a2                	lw	a7,8(sp)
   152e2:	4e12                	lw	t3,4(sp)
   152e4:	4302                	lw	t1,0(sp)
   152e6:	b111                	j	14eea <__gdtoa+0x6aa>
   152e8:	4792                	lw	a5,4(sp)
   152ea:	4702                	lw	a4,0(sp)
   152ec:	43dc                	lw	a5,4(a5)
   152ee:	0785                	addi	a5,a5,1
   152f0:	fce7d7e3          	bge	a5,a4,152be <__gdtoa+0xa7e>
   152f4:	4785                	li	a5,1
   152f6:	0a85                	addi	s5,s5,1
   152f8:	0f05                	addi	t5,t5,1
   152fa:	de3e                	sw	a5,60(sp)
   152fc:	b7d1                	j	152c0 <__gdtoa+0xa80>
   152fe:	4585                	li	a1,1
   15300:	40d586b3          	sub	a3,a1,a3
   15304:	ca36                	sw	a3,20(sp)
   15306:	8f46                	mv	t5,a7
   15308:	c282                	sw	zero,68(sp)
   1530a:	de46                	sw	a7,60(sp)
   1530c:	dc02                	sw	zero,56(sp)
   1530e:	fdeff06f          	j	14aec <__gdtoa+0x2ac>
   15312:	5762                	lw	a4,56(sp)
   15314:	4ad2                	lw	s5,20(sp)
   15316:	e2070ae3          	beqz	a4,1514a <__gdtoa+0x90a>
   1531a:	5662                	lw	a2,56(sp)
   1531c:	85a2                	mv	a1,s0
   1531e:	855a                	mv	a0,s6
   15320:	d842                	sw	a6,48(sp)
   15322:	d67a                	sw	t5,44(sp)
   15324:	d43e                	sw	a5,40(sp)
   15326:	d076                	sw	t4,32(sp)
   15328:	cc46                	sw	a7,24(sp)
   1532a:	c472                	sw	t3,8(sp)
   1532c:	613000ef          	jal	1613e <__pow5mult>
   15330:	842a                	mv	s0,a0
   15332:	f2050263          	beqz	a0,14a56 <__gdtoa+0x216>
   15336:	5842                	lw	a6,48(sp)
   15338:	5f32                	lw	t5,44(sp)
   1533a:	57a2                	lw	a5,40(sp)
   1533c:	5e82                	lw	t4,32(sp)
   1533e:	48e2                	lw	a7,24(sp)
   15340:	4e22                	lw	t3,8(sp)
   15342:	ca56                	sw	s5,20(sp)
   15344:	4a01                	li	s4,0
   15346:	b6ad                	j	14eb0 <__gdtoa+0x670>
   15348:	4705                	li	a4,1
   1534a:	f37744e3          	blt	a4,s7,15272 <__gdtoa+0xa32>
   1534e:	4752                	lw	a4,20(sp)
   15350:	5962                	lw	s2,56(sp)
   15352:	9f2e                	add	t5,t5,a1
   15354:	00e58ab3          	add	s5,a1,a4
   15358:	b4c5                	j	14e38 <__gdtoa+0x5f8>
   1535a:	85d2                	mv	a1,s4
   1535c:	4681                	li	a3,0
   1535e:	4629                	li	a2,10
   15360:	855a                	mv	a0,s6
   15362:	c246                	sw	a7,4(sp)
   15364:	0e9000ef          	jal	15c4c <__multadd>
   15368:	8a2a                	mv	s4,a0
   1536a:	ee050663          	beqz	a0,14a56 <__gdtoa+0x216>
   1536e:	4736                	lw	a4,76(sp)
   15370:	4782                	lw	a5,0(sp)
   15372:	4892                	lw	a7,4(sp)
   15374:	4ea2                	lw	t4,8(sp)
   15376:	4362                	lw	t1,24(sp)
   15378:	5802                	lw	a6,32(sp)
   1537a:	4e36                	lw	t3,76(sp)
   1537c:	00e04663          	bgtz	a4,15388 <__gdtoa+0xb48>
   15380:	003ba713          	slti	a4,s7,3
   15384:	b80709e3          	beqz	a4,14f16 <__gdtoa+0x6d6>
   15388:	4752                	lw	a4,20(sp)
   1538a:	00e78633          	add	a2,a5,a4
   1538e:	22c04963          	bgtz	a2,155c0 <__gdtoa+0xd80>
   15392:	57f2                	lw	a5,60(sp)
   15394:	8ad2                	mv	s5,s4
   15396:	2a079c63          	bnez	a5,1564e <__gdtoa+0xe0e>
   1539a:	ffee8793          	addi	a5,t4,-2
   1539e:	d43e                	sw	a5,40(sp)
   153a0:	c74e                	sw	s3,140(sp)
   153a2:	4785                	li	a5,1
   153a4:	ca72                	sw	t3,20(sp)
   153a6:	d646                	sw	a7,44(sp)
   153a8:	cc76                	sw	t4,24(sp)
   153aa:	8c42                	mv	s8,a6
   153ac:	c41a                	sw	t1,8(sp)
   153ae:	d842                	sw	a6,48(sp)
   153b0:	a041                	j	15430 <__gdtoa+0xbf0>
   153b2:	855a                	mv	a0,s6
   153b4:	c23a                	sw	a4,4(sp)
   153b6:	085000ef          	jal	15c3a <_Bfree>
   153ba:	4712                	lw	a4,4(sp)
   153bc:	4585                	li	a1,1
   153be:	4782                	lw	a5,0(sp)
   153c0:	3407c763          	bltz	a5,1570e <__gdtoa+0xece>
   153c4:	0177e7b3          	or	a5,a5,s7
   153c8:	e791                	bnez	a5,153d4 <__gdtoa+0xb94>
   153ca:	000d2783          	lw	a5,0(s10)
   153ce:	8b85                	andi	a5,a5,1
   153d0:	32078f63          	beqz	a5,1570e <__gdtoa+0xece>
   153d4:	001c0793          	addi	a5,s8,1
   153d8:	89be                	mv	s3,a5
   153da:	00b05563          	blez	a1,153e4 <__gdtoa+0xba4>
   153de:	56a2                	lw	a3,40(sp)
   153e0:	3c069a63          	bnez	a3,157b4 <__gdtoa+0xf74>
   153e4:	fee98fa3          	sb	a4,-1(s3)
   153e8:	46f6                	lw	a3,92(sp)
   153ea:	4652                	lw	a2,20(sp)
   153ec:	3ac68d63          	beq	a3,a2,157a6 <__gdtoa+0xf66>
   153f0:	85a2                	mv	a1,s0
   153f2:	4681                	li	a3,0
   153f4:	4629                	li	a2,10
   153f6:	855a                	mv	a0,s6
   153f8:	055000ef          	jal	15c4c <__multadd>
   153fc:	842a                	mv	s0,a0
   153fe:	e60506e3          	beqz	a0,1526a <__gdtoa+0xa2a>
   15402:	85d2                	mv	a1,s4
   15404:	4681                	li	a3,0
   15406:	4629                	li	a2,10
   15408:	855a                	mv	a0,s6
   1540a:	0b5a0363          	beq	s4,s5,154b0 <__gdtoa+0xc70>
   1540e:	03f000ef          	jal	15c4c <__multadd>
   15412:	8a2a                	mv	s4,a0
   15414:	e4050be3          	beqz	a0,1526a <__gdtoa+0xa2a>
   15418:	85d6                	mv	a1,s5
   1541a:	4681                	li	a3,0
   1541c:	4629                	li	a2,10
   1541e:	855a                	mv	a0,s6
   15420:	02d000ef          	jal	15c4c <__multadd>
   15424:	8aaa                	mv	s5,a0
   15426:	e40502e3          	beqz	a0,1526a <__gdtoa+0xa2a>
   1542a:	47f6                	lw	a5,92(sp)
   1542c:	8c4e                	mv	s8,s3
   1542e:	0785                	addi	a5,a5,1
   15430:	4922                	lw	s2,8(sp)
   15432:	8522                	mv	a0,s0
   15434:	cebe                	sw	a5,92(sp)
   15436:	85ca                	mv	a1,s2
   15438:	2b81                	jal	15988 <__quorem_D2A>
   1543a:	85d2                	mv	a1,s4
   1543c:	89aa                	mv	s3,a0
   1543e:	8522                	mv	a0,s0
   15440:	6dd000ef          	jal	1631c <__mcmp>
   15444:	c02a                	sw	a0,0(sp)
   15446:	85ca                	mv	a1,s2
   15448:	8656                	mv	a2,s5
   1544a:	855a                	mv	a0,s6
   1544c:	70b000ef          	jal	16356 <__mdiff>
   15450:	85aa                	mv	a1,a0
   15452:	e0050ce3          	beqz	a0,1526a <__gdtoa+0xa2a>
   15456:	455c                	lw	a5,12(a0)
   15458:	03098713          	addi	a4,s3,48
   1545c:	fbb9                	bnez	a5,153b2 <__gdtoa+0xb72>
   1545e:	c22a                	sw	a0,4(sp)
   15460:	8522                	mv	a0,s0
   15462:	d03a                	sw	a4,32(sp)
   15464:	6b9000ef          	jal	1631c <__mcmp>
   15468:	4592                	lw	a1,4(sp)
   1546a:	892a                	mv	s2,a0
   1546c:	855a                	mv	a0,s6
   1546e:	27f1                	jal	15c3a <_Bfree>
   15470:	017965b3          	or	a1,s2,s7
   15474:	5702                	lw	a4,32(sp)
   15476:	16059863          	bnez	a1,155e6 <__gdtoa+0xda6>
   1547a:	000d2783          	lw	a5,0(s10)
   1547e:	46e2                	lw	a3,24(sp)
   15480:	8b85                	andi	a5,a5,1
   15482:	8fd5                	or	a5,a5,a3
   15484:	ff8d                	bnez	a5,153be <__gdtoa+0xb7e>
   15486:	03900793          	li	a5,57
   1548a:	58b2                	lw	a7,44(sp)
   1548c:	4322                	lw	t1,8(sp)
   1548e:	5842                	lw	a6,48(sp)
   15490:	4502                	lw	a0,0(sp)
   15492:	86e2                	mv	a3,s8
   15494:	0ef70c63          	beq	a4,a5,1558c <__gdtoa+0xd4c>
   15498:	3ea05f63          	blez	a0,15896 <__gdtoa+0x1056>
   1549c:	03198713          	addi	a4,s3,49
   154a0:	02000c93          	li	s9,32
   154a4:	8e52                	mv	t3,s4
   154a6:	00e68023          	sb	a4,0(a3)
   154aa:	8a56                	mv	s4,s5
   154ac:	0685                	addi	a3,a3,1
   154ae:	b325                	j	151d6 <__gdtoa+0x996>
   154b0:	2f71                	jal	15c4c <__multadd>
   154b2:	8a2a                	mv	s4,a0
   154b4:	da050be3          	beqz	a0,1526a <__gdtoa+0xa2a>
   154b8:	8aaa                	mv	s5,a0
   154ba:	bf85                	j	1542a <__gdtoa+0xbea>
   154bc:	494a                	lw	s2,144(sp)
   154be:	d9eff06f          	j	14a5c <__gdtoa+0x21c>
   154c2:	fffc4893          	not	a7,s8
   154c6:	86c2                	mv	a3,a6
   154c8:	4cc1                	li	s9,16
   154ca:	bc59                	j	14f60 <__gdtoa+0x720>
   154cc:	c482                	sw	zero,72(sp)
   154ce:	b239                	j	14ddc <__gdtoa+0x59c>
   154d0:	4685                	li	a3,1
   154d2:	c4b6                	sw	a3,72(sp)
   154d4:	b221                	j	14ddc <__gdtoa+0x59c>
   154d6:	56e2                	lw	a3,56(sp)
   154d8:	5672                	lw	a2,60(sp)
   154da:	dc3a                	sw	a4,56(sp)
   154dc:	40d706b3          	sub	a3,a4,a3
   154e0:	4752                	lw	a4,20(sp)
   154e2:	96b2                	add	a3,a3,a2
   154e4:	de36                	sw	a3,60(sp)
   154e6:	cef2                	sw	t3,92(sp)
   154e8:	9f72                	add	t5,t5,t3
   154ea:	01c70ab3          	add	s5,a4,t3
   154ee:	4901                	li	s2,0
   154f0:	b2a1                	j	14e38 <__gdtoa+0x5f8>
   154f2:	85d2                	mv	a1,s4
   154f4:	864a                	mv	a2,s2
   154f6:	855a                	mv	a0,s6
   154f8:	c74e                	sw	s3,140(sp)
   154fa:	d842                	sw	a6,48(sp)
   154fc:	d67a                	sw	t5,44(sp)
   154fe:	d43e                	sw	a5,40(sp)
   15500:	d076                	sw	t4,32(sp)
   15502:	cc46                	sw	a7,24(sp)
   15504:	c472                	sw	t3,8(sp)
   15506:	439000ef          	jal	1613e <__pow5mult>
   1550a:	8a2a                	mv	s4,a0
   1550c:	d4050fe3          	beqz	a0,1526a <__gdtoa+0xa2a>
   15510:	85aa                	mv	a1,a0
   15512:	8622                	mv	a2,s0
   15514:	855a                	mv	a0,s6
   15516:	279000ef          	jal	15f8e <__multiply>
   1551a:	d40508e3          	beqz	a0,1526a <__gdtoa+0xa2a>
   1551e:	85a2                	mv	a1,s0
   15520:	da2a                	sw	a0,52(sp)
   15522:	855a                	mv	a0,s6
   15524:	2f19                	jal	15c3a <_Bfree>
   15526:	57e2                	lw	a5,56(sp)
   15528:	5452                	lw	s0,52(sp)
   1552a:	4e22                	lw	t3,8(sp)
   1552c:	412787b3          	sub	a5,a5,s2
   15530:	dc3e                	sw	a5,56(sp)
   15532:	873e                	mv	a4,a5
   15534:	48e2                	lw	a7,24(sp)
   15536:	5e82                	lw	t4,32(sp)
   15538:	57a2                	lw	a5,40(sp)
   1553a:	5f32                	lw	t5,44(sp)
   1553c:	5842                	lw	a6,48(sp)
   1553e:	49ba                	lw	s3,140(sp)
   15540:	960708e3          	beqz	a4,14eb0 <__gdtoa+0x670>
   15544:	b291                	j	14e88 <__gdtoa+0x648>
   15546:	fa0e0a63          	beqz	t3,14cfa <__gdtoa+0x4ba>
   1554a:	4336                	lw	t1,76(sp)
   1554c:	fe605a63          	blez	t1,14d40 <__gdtoa+0x500>
   15550:	2722                	fld	fa4,8(sp)
   15552:	f001b787          	fld	fa5,-256(gp) # 1c830 <__SDATA_BEGIN__+0x38>
   15556:	c74e                	sw	s3,140(sp)
   15558:	12e7f7d3          	fmul.d	fa5,fa5,fa4
   1555c:	557d                	li	a0,-1
   1555e:	b03e                	fsd	fa5,32(sp)
   15560:	f081b787          	fld	fa5,-248(gp) # 1c838 <__SDATA_BEGIN__+0x40>
   15564:	3702                	fld	fa4,32(sp)
   15566:	a43e                	fsd	fa5,8(sp)
   15568:	26a2                	fld	fa3,8(sp)
   1556a:	f101b787          	fld	fa5,-240(gp) # 1c840 <__SDATA_BEGIN__+0x48>
   1556e:	5992                	lw	s3,36(sp)
   15570:	5902                	lw	s2,32(sp)
   15572:	7ad777c3          	fmadd.d	fa5,fa4,fa3,fa5
   15576:	fcc006b7          	lui	a3,0xfcc00
   1557a:	a43e                	fsd	fa5,8(sp)
   1557c:	4ab2                	lw	s5,12(sp)
   1557e:	4a22                	lw	s4,8(sp)
   15580:	c64e                	sw	s3,12(sp)
   15582:	c44a                	sw	s2,8(sp)
   15584:	49ba                	lw	s3,140(sp)
   15586:	9ab6                	add	s5,s5,a3
   15588:	e46ff06f          	j	14bce <__gdtoa+0x38e>
   1558c:	00168613          	addi	a2,a3,1 # fcc00001 <__BSS_END__+0xfcbe344d>
   15590:	03900713          	li	a4,57
   15594:	8e52                	mv	t3,s4
   15596:	87b2                	mv	a5,a2
   15598:	8a56                	mv	s4,s5
   1559a:	00e68023          	sb	a4,0(a3)
   1559e:	03900613          	li	a2,57
   155a2:	a019                	j	155a8 <__gdtoa+0xd68>
   155a4:	10f80963          	beq	a6,a5,156b6 <__gdtoa+0xe76>
   155a8:	fff7c703          	lbu	a4,-1(a5)
   155ac:	86be                	mv	a3,a5
   155ae:	17fd                	addi	a5,a5,-1
   155b0:	fec70ae3          	beq	a4,a2,155a4 <__gdtoa+0xd64>
   155b4:	0705                	addi	a4,a4,1
   155b6:	00e78023          	sb	a4,0(a5)
   155ba:	02000c93          	li	s9,32
   155be:	b921                	j	151d6 <__gdtoa+0x996>
   155c0:	85d2                	mv	a1,s4
   155c2:	855a                	mv	a0,s6
   155c4:	cc42                	sw	a6,24(sp)
   155c6:	ca1a                	sw	t1,20(sp)
   155c8:	c476                	sw	t4,8(sp)
   155ca:	c246                	sw	a7,4(sp)
   155cc:	c072                	sw	t3,0(sp)
   155ce:	44b000ef          	jal	16218 <__lshift>
   155d2:	4e02                	lw	t3,0(sp)
   155d4:	4892                	lw	a7,4(sp)
   155d6:	4ea2                	lw	t4,8(sp)
   155d8:	4352                	lw	t1,20(sp)
   155da:	4862                	lw	a6,24(sp)
   155dc:	8a2a                	mv	s4,a0
   155de:	da051ae3          	bnez	a0,15392 <__gdtoa+0xb52>
   155e2:	c74ff06f          	j	14a56 <__gdtoa+0x216>
   155e6:	85ca                	mv	a1,s2
   155e8:	bbd9                	j	153be <__gdtoa+0xb7e>
   155ea:	03100793          	li	a5,49
   155ee:	00180693          	addi	a3,a6,1
   155f2:	00f80023          	sb	a5,0(a6)
   155f6:	4581                	li	a1,0
   155f8:	855a                	mv	a0,s6
   155fa:	c242                	sw	a6,4(sp)
   155fc:	c036                	sw	a3,0(sp)
   155fe:	2d35                	jal	15c3a <_Bfree>
   15600:	4682                	lw	a3,0(sp)
   15602:	4812                	lw	a6,4(sp)
   15604:	4609                	li	a2,2
   15606:	02000c93          	li	s9,32
   1560a:	e7eff06f          	j	14c88 <__gdtoa+0x448>
   1560e:	0505                	addi	a0,a0,1
   15610:	03100713          	li	a4,49
   15614:	e68ff06f          	j	14c7c <__gdtoa+0x43c>
   15618:	02f7f7d3          	fadd.d	fa5,fa5,fa5
   1561c:	fff6c703          	lbu	a4,-1(a3)
   15620:	a2f71653          	flt.d	a2,fa4,fa5
   15624:	ea35                	bnez	a2,15698 <__gdtoa+0xe58>
   15626:	a2e7a653          	feq.d	a2,fa5,fa4
   1562a:	c219                	beqz	a2,15630 <__gdtoa+0xdf0>
   1562c:	8b85                	andi	a5,a5,1
   1562e:	e7ad                	bnez	a5,15698 <__gdtoa+0xe58>
   15630:	87b6                	mv	a5,a3
   15632:	8546                	mv	a0,a7
   15634:	4cc1                	li	s9,16
   15636:	03000613          	li	a2,48
   1563a:	fff7c703          	lbu	a4,-1(a5)
   1563e:	86be                	mv	a3,a5
   15640:	17fd                	addi	a5,a5,-1
   15642:	fec70ce3          	beq	a4,a2,1563a <__gdtoa+0xdfa>
   15646:	00150613          	addi	a2,a0,1
   1564a:	e3eff06f          	j	14c88 <__gdtoa+0x448>
   1564e:	004a2583          	lw	a1,4(s4)
   15652:	855a                	mv	a0,s6
   15654:	d042                	sw	a6,32(sp)
   15656:	cc1a                	sw	t1,24(sp)
   15658:	ca76                	sw	t4,20(sp)
   1565a:	c446                	sw	a7,8(sp)
   1565c:	c272                	sw	t3,4(sp)
   1565e:	2b9d                	jal	15bd4 <_Balloc>
   15660:	87aa                	mv	a5,a0
   15662:	be050a63          	beqz	a0,14a56 <__gdtoa+0x216>
   15666:	010a2603          	lw	a2,16(s4)
   1566a:	00ca0593          	addi	a1,s4,12
   1566e:	0531                	addi	a0,a0,12
   15670:	0609                	addi	a2,a2,2
   15672:	060a                	slli	a2,a2,0x2
   15674:	c03e                	sw	a5,0(sp)
   15676:	baffe0ef          	jal	14224 <memcpy>
   1567a:	4582                	lw	a1,0(sp)
   1567c:	855a                	mv	a0,s6
   1567e:	4605                	li	a2,1
   15680:	399000ef          	jal	16218 <__lshift>
   15684:	4e12                	lw	t3,4(sp)
   15686:	48a2                	lw	a7,8(sp)
   15688:	4ed2                	lw	t4,20(sp)
   1568a:	4362                	lw	t1,24(sp)
   1568c:	5802                	lw	a6,32(sp)
   1568e:	8aaa                	mv	s5,a0
   15690:	d00515e3          	bnez	a0,1539a <__gdtoa+0xb5a>
   15694:	bc2ff06f          	j	14a56 <__gdtoa+0x216>
   15698:	8546                	mv	a0,a7
   1569a:	dc8ff06f          	j	14c62 <__gdtoa+0x422>
   1569e:	d2000753          	fcvt.d.w	fa4,zero
   156a2:	00150613          	addi	a2,a0,1
   156a6:	a2e7a7d3          	feq.d	a5,fa5,fa4
   156aa:	0017b793          	seqz	a5,a5
   156ae:	00479c93          	slli	s9,a5,0x4
   156b2:	dd6ff06f          	j	14c88 <__gdtoa+0x448>
   156b6:	03100793          	li	a5,49
   156ba:	0885                	addi	a7,a7,1
   156bc:	00f80023          	sb	a5,0(a6)
   156c0:	02000c93          	li	s9,32
   156c4:	be09                	j	151d6 <__gdtoa+0x996>
   156c6:	85a2                	mv	a1,s0
   156c8:	4605                	li	a2,1
   156ca:	855a                	mv	a0,s6
   156cc:	d042                	sw	a6,32(sp)
   156ce:	c01a                	sw	t1,0(sp)
   156d0:	cc3e                	sw	a5,24(sp)
   156d2:	ca72                	sw	t3,20(sp)
   156d4:	c446                	sw	a7,8(sp)
   156d6:	c23a                	sw	a4,4(sp)
   156d8:	341000ef          	jal	16218 <__lshift>
   156dc:	842a                	mv	s0,a0
   156de:	b80506e3          	beqz	a0,1526a <__gdtoa+0xa2a>
   156e2:	4582                	lw	a1,0(sp)
   156e4:	439000ef          	jal	1631c <__mcmp>
   156e8:	4302                	lw	t1,0(sp)
   156ea:	48a2                	lw	a7,8(sp)
   156ec:	4e52                	lw	t3,20(sp)
   156ee:	47e2                	lw	a5,24(sp)
   156f0:	5802                	lw	a6,32(sp)
   156f2:	eaa046e3          	bgtz	a0,1559e <__gdtoa+0xd5e>
   156f6:	e509                	bnez	a0,15700 <__gdtoa+0xec0>
   156f8:	4712                	lw	a4,4(sp)
   156fa:	8b05                	andi	a4,a4,1
   156fc:	ea0711e3          	bnez	a4,1559e <__gdtoa+0xd5e>
   15700:	4814                	lw	a3,16(s0)
   15702:	4705                	li	a4,1
   15704:	4cc1                	li	s9,16
   15706:	acd740e3          	blt	a4,a3,151c6 <__gdtoa+0x986>
   1570a:	4858                	lw	a4,20(s0)
   1570c:	bc4d                	j	151be <__gdtoa+0x97e>
   1570e:	4ee2                	lw	t4,24(sp)
   15710:	58b2                	lw	a7,44(sp)
   15712:	4322                	lw	t1,8(sp)
   15714:	5842                	lw	a6,48(sp)
   15716:	86e2                	mv	a3,s8
   15718:	0e0e8163          	beqz	t4,157fa <__gdtoa+0xfba>
   1571c:	4810                	lw	a2,16(s0)
   1571e:	4785                	li	a5,1
   15720:	12c7df63          	bge	a5,a2,1585e <__gdtoa+0x101e>
   15724:	4789                	li	a5,2
   15726:	16fe8663          	beq	t4,a5,15892 <__gdtoa+0x1052>
   1572a:	8ba2                	mv	s7,s0
   1572c:	8cc6                	mv	s9,a7
   1572e:	8436                	mv	s0,a3
   15730:	8c1a                	mv	s8,t1
   15732:	8d42                	mv	s10,a6
   15734:	a811                	j	15748 <__gdtoa+0xf08>
   15736:	2b19                	jal	15c4c <__multadd>
   15738:	85e2                	mv	a1,s8
   1573a:	8baa                	mv	s7,a0
   1573c:	0405                	addi	s0,s0,1
   1573e:	b20506e3          	beqz	a0,1526a <__gdtoa+0xa2a>
   15742:	2499                	jal	15988 <__quorem_D2A>
   15744:	03050713          	addi	a4,a0,48
   15748:	85d6                	mv	a1,s5
   1574a:	8562                	mv	a0,s8
   1574c:	c03a                	sw	a4,0(sp)
   1574e:	3cf000ef          	jal	1631c <__mcmp>
   15752:	4702                	lw	a4,0(sp)
   15754:	4681                	li	a3,0
   15756:	4629                	li	a2,10
   15758:	12a05063          	blez	a0,15878 <__gdtoa+0x1038>
   1575c:	85d6                	mv	a1,s5
   1575e:	00e40023          	sb	a4,0(s0)
   15762:	855a                	mv	a0,s6
   15764:	21e5                	jal	15c4c <__multadd>
   15766:	87aa                	mv	a5,a0
   15768:	8956                	mv	s2,s5
   1576a:	4681                	li	a3,0
   1576c:	8aaa                	mv	s5,a0
   1576e:	4629                	li	a2,10
   15770:	85de                	mv	a1,s7
   15772:	855a                	mv	a0,s6
   15774:	ae078be3          	beqz	a5,1526a <__gdtoa+0xa2a>
   15778:	fb2a1fe3          	bne	s4,s2,15736 <__gdtoa+0xef6>
   1577c:	8a3e                	mv	s4,a5
   1577e:	bf65                	j	15736 <__gdtoa+0xef6>
   15780:	4362                	lw	t1,24(sp)
   15782:	43f2                	lw	t2,28(sp)
   15784:	4e81                	li	t4,0
   15786:	c41a                	sw	t1,8(sp)
   15788:	c61e                	sw	t2,12(sp)
   1578a:	dc065863          	bgez	a2,14d5a <__gdtoa+0x51a>
   1578e:	e66ff06f          	j	14df4 <__gdtoa+0x5b4>
   15792:	d2000753          	fcvt.d.w	fa4,zero
   15796:	87b6                	mv	a5,a3
   15798:	a2e7a753          	feq.d	a4,fa5,fa4
   1579c:	00173713          	seqz	a4,a4
   157a0:	00471c93          	slli	s9,a4,0x4
   157a4:	bd49                	j	15636 <__gdtoa+0xdf6>
   157a6:	8e52                	mv	t3,s4
   157a8:	58b2                	lw	a7,44(sp)
   157aa:	4ee2                	lw	t4,24(sp)
   157ac:	4322                	lw	t1,8(sp)
   157ae:	5842                	lw	a6,48(sp)
   157b0:	8a56                	mv	s4,s5
   157b2:	bad5                	j	151a6 <__gdtoa+0x966>
   157b4:	863e                	mv	a2,a5
   157b6:	03900793          	li	a5,57
   157ba:	58b2                	lw	a7,44(sp)
   157bc:	4322                	lw	t1,8(sp)
   157be:	5842                	lw	a6,48(sp)
   157c0:	86e2                	mv	a3,s8
   157c2:	dcf707e3          	beq	a4,a5,15590 <__gdtoa+0xd50>
   157c6:	0705                	addi	a4,a4,1
   157c8:	8e52                	mv	t3,s4
   157ca:	00ec0023          	sb	a4,0(s8)
   157ce:	86ce                	mv	a3,s3
   157d0:	8a56                	mv	s4,s5
   157d2:	02000c93          	li	s9,32
   157d6:	b401                	j	151d6 <__gdtoa+0x996>
   157d8:	4e36                	lw	t3,76(sp)
   157da:	c74e                	sw	s3,140(sp)
   157dc:	baad                	j	15156 <__gdtoa+0x916>
   157de:	56e2                	lw	a3,56(sp)
   157e0:	fffe0713          	addi	a4,t3,-1
   157e4:	cee6c9e3          	blt	a3,a4,154d6 <__gdtoa+0xc96>
   157e8:	40e68933          	sub	s2,a3,a4
   157ec:	4752                	lw	a4,20(sp)
   157ee:	9f72                	add	t5,t5,t3
   157f0:	cef2                	sw	t3,92(sp)
   157f2:	01c70ab3          	add	s5,a4,t3
   157f6:	e42ff06f          	j	14e38 <__gdtoa+0x5f8>
   157fa:	04b05163          	blez	a1,1583c <__gdtoa+0xffc>
   157fe:	85a2                	mv	a1,s0
   15800:	4605                	li	a2,1
   15802:	855a                	mv	a0,s6
   15804:	cc42                	sw	a6,24(sp)
   15806:	c01a                	sw	t1,0(sp)
   15808:	ca36                	sw	a3,20(sp)
   1580a:	c446                	sw	a7,8(sp)
   1580c:	c23a                	sw	a4,4(sp)
   1580e:	20b000ef          	jal	16218 <__lshift>
   15812:	842a                	mv	s0,a0
   15814:	a4050be3          	beqz	a0,1526a <__gdtoa+0xa2a>
   15818:	4582                	lw	a1,0(sp)
   1581a:	303000ef          	jal	1631c <__mcmp>
   1581e:	4302                	lw	t1,0(sp)
   15820:	4712                	lw	a4,4(sp)
   15822:	48a2                	lw	a7,8(sp)
   15824:	46d2                	lw	a3,20(sp)
   15826:	4862                	lw	a6,24(sp)
   15828:	04a05163          	blez	a0,1586a <__gdtoa+0x102a>
   1582c:	03900793          	li	a5,57
   15830:	d4f70ee3          	beq	a4,a5,1558c <__gdtoa+0xd4c>
   15834:	03198713          	addi	a4,s3,49
   15838:	02000e93          	li	t4,32
   1583c:	4810                	lw	a2,16(s0)
   1583e:	4785                	li	a5,1
   15840:	4cc1                	li	s9,16
   15842:	c6c7c1e3          	blt	a5,a2,154a4 <__gdtoa+0xc64>
   15846:	485c                	lw	a5,20(s0)
   15848:	c4079ee3          	bnez	a5,154a4 <__gdtoa+0xc64>
   1584c:	8cf6                	mv	s9,t4
   1584e:	b999                	j	154a4 <__gdtoa+0xc64>
   15850:	4752                	lw	a4,20(sp)
   15852:	cef2                	sw	t3,92(sp)
   15854:	9f72                	add	t5,t5,t3
   15856:	01c70ab3          	add	s5,a4,t3
   1585a:	ddeff06f          	j	14e38 <__gdtoa+0x5f8>
   1585e:	485c                	lw	a5,20(s0)
   15860:	ec0792e3          	bnez	a5,15724 <__gdtoa+0xee4>
   15864:	f8b04de3          	bgtz	a1,157fe <__gdtoa+0xfbe>
   15868:	b935                	j	154a4 <__gdtoa+0xc64>
   1586a:	e501                	bnez	a0,15872 <__gdtoa+0x1032>
   1586c:	00177793          	andi	a5,a4,1
   15870:	ffd5                	bnez	a5,1582c <__gdtoa+0xfec>
   15872:	02000e93          	li	t4,32
   15876:	b7d9                	j	1583c <__gdtoa+0xffc>
   15878:	03900793          	li	a5,57
   1587c:	86a2                	mv	a3,s0
   1587e:	88e6                	mv	a7,s9
   15880:	845e                	mv	s0,s7
   15882:	8362                	mv	t1,s8
   15884:	886a                	mv	a6,s10
   15886:	d0f703e3          	beq	a4,a5,1558c <__gdtoa+0xd4c>
   1588a:	0705                	addi	a4,a4,1
   1588c:	02000c93          	li	s9,32
   15890:	b911                	j	154a4 <__gdtoa+0xc64>
   15892:	4cc1                	li	s9,16
   15894:	b901                	j	154a4 <__gdtoa+0xc64>
   15896:	4810                	lw	a2,16(s0)
   15898:	4785                	li	a5,1
   1589a:	4cc1                	li	s9,16
   1589c:	c0c7c4e3          	blt	a5,a2,154a4 <__gdtoa+0xc64>
   158a0:	485c                	lw	a5,20(s0)
   158a2:	00f037b3          	snez	a5,a5
   158a6:	00479c93          	slli	s9,a5,0x4
   158aa:	beed                	j	154a4 <__gdtoa+0xc64>
   158ac:	49ba                	lw	s3,140(sp)
   158ae:	00188613          	addi	a2,a7,1
   158b2:	bd6ff06f          	j	14c88 <__gdtoa+0x448>

000158b6 <__rv_alloc_D2A.part.0>:
   158b6:	66ed                	lui	a3,0x1b
   158b8:	656d                	lui	a0,0x1b
   158ba:	1141                	addi	sp,sp,-16
   158bc:	9a868693          	addi	a3,a3,-1624 # 1a9a8 <__clzsi2+0x96>
   158c0:	9bc50513          	addi	a0,a0,-1604 # 1a9bc <__clzsi2+0xaa>
   158c4:	4601                	li	a2,0
   158c6:	03900593          	li	a1,57
   158ca:	c606                	sw	ra,12(sp)
   158cc:	74c010ef          	jal	17018 <__assert_func>

000158d0 <__rv_alloc_D2A>:
   158d0:	1141                	addi	sp,sp,-16
   158d2:	c422                	sw	s0,8(sp)
   158d4:	c606                	sw	ra,12(sp)
   158d6:	46dd                	li	a3,23
   158d8:	842a                	mv	s0,a0
   158da:	4705                	li	a4,1
   158dc:	4791                	li	a5,4
   158de:	02b6f363          	bgeu	a3,a1,15904 <__rv_alloc_D2A+0x34>
   158e2:	0786                	slli	a5,a5,0x1
   158e4:	01478693          	addi	a3,a5,20
   158e8:	863a                	mv	a2,a4
   158ea:	0705                	addi	a4,a4,1
   158ec:	fed5fbe3          	bgeu	a1,a3,158e2 <__rv_alloc_D2A+0x12>
   158f0:	85b2                	mv	a1,a2
   158f2:	dc50                	sw	a2,60(s0)
   158f4:	8522                	mv	a0,s0
   158f6:	2cf9                	jal	15bd4 <_Balloc>
   158f8:	c911                	beqz	a0,1590c <__rv_alloc_D2A+0x3c>
   158fa:	40b2                	lw	ra,12(sp)
   158fc:	dc08                	sw	a0,56(s0)
   158fe:	4422                	lw	s0,8(sp)
   15900:	0141                	addi	sp,sp,16
   15902:	8082                	ret
   15904:	02052e23          	sw	zero,60(a0)
   15908:	4581                	li	a1,0
   1590a:	b7ed                	j	158f4 <__rv_alloc_D2A+0x24>
   1590c:	376d                	jal	158b6 <__rv_alloc_D2A.part.0>

0001590e <__nrv_alloc_D2A>:
   1590e:	1101                	addi	sp,sp,-32
   15910:	cc22                	sw	s0,24(sp)
   15912:	ca26                	sw	s1,20(sp)
   15914:	ce06                	sw	ra,28(sp)
   15916:	485d                	li	a6,23
   15918:	84aa                	mv	s1,a0
   1591a:	842e                	mv	s0,a1
   1591c:	4705                	li	a4,1
   1591e:	4791                	li	a5,4
   15920:	04d87663          	bgeu	a6,a3,1596c <__nrv_alloc_D2A+0x5e>
   15924:	0786                	slli	a5,a5,0x1
   15926:	01478513          	addi	a0,a5,20
   1592a:	85ba                	mv	a1,a4
   1592c:	0705                	addi	a4,a4,1
   1592e:	fea6fbe3          	bgeu	a3,a0,15924 <__nrv_alloc_D2A+0x16>
   15932:	dccc                	sw	a1,60(s1)
   15934:	8526                	mv	a0,s1
   15936:	c632                	sw	a2,12(sp)
   15938:	2c71                	jal	15bd4 <_Balloc>
   1593a:	4632                	lw	a2,12(sp)
   1593c:	cd15                	beqz	a0,15978 <__nrv_alloc_D2A+0x6a>
   1593e:	dc88                	sw	a0,56(s1)
   15940:	00044783          	lbu	a5,0(s0)
   15944:	00f50023          	sb	a5,0(a0)
   15948:	c795                	beqz	a5,15974 <__nrv_alloc_D2A+0x66>
   1594a:	00140593          	addi	a1,s0,1
   1594e:	87aa                	mv	a5,a0
   15950:	0005c703          	lbu	a4,0(a1)
   15954:	0585                	addi	a1,a1,1
   15956:	0785                	addi	a5,a5,1
   15958:	00e78023          	sb	a4,0(a5)
   1595c:	fb75                	bnez	a4,15950 <__nrv_alloc_D2A+0x42>
   1595e:	c211                	beqz	a2,15962 <__nrv_alloc_D2A+0x54>
   15960:	c21c                	sw	a5,0(a2)
   15962:	40f2                	lw	ra,28(sp)
   15964:	4462                	lw	s0,24(sp)
   15966:	44d2                	lw	s1,20(sp)
   15968:	6105                	addi	sp,sp,32
   1596a:	8082                	ret
   1596c:	02052e23          	sw	zero,60(a0)
   15970:	4581                	li	a1,0
   15972:	b7c9                	j	15934 <__nrv_alloc_D2A+0x26>
   15974:	87aa                	mv	a5,a0
   15976:	b7e5                	j	1595e <__nrv_alloc_D2A+0x50>
   15978:	3f3d                	jal	158b6 <__rv_alloc_D2A.part.0>

0001597a <__freedtoa>:
   1597a:	5d58                	lw	a4,60(a0)
   1597c:	4785                	li	a5,1
   1597e:	00e797b3          	sll	a5,a5,a4
   15982:	c59c                	sw	a5,8(a1)
   15984:	c1d8                	sw	a4,4(a1)
   15986:	ac55                	j	15c3a <_Bfree>

00015988 <__quorem_D2A>:
   15988:	0105a803          	lw	a6,16(a1)
   1598c:	491c                	lw	a5,16(a0)
   1598e:	1507ce63          	blt	a5,a6,15aea <__quorem_D2A+0x162>
   15992:	187d                	addi	a6,a6,-1
   15994:	00281293          	slli	t0,a6,0x2
   15998:	01458613          	addi	a2,a1,20
   1599c:	00560333          	add	t1,a2,t0
   159a0:	01450e13          	addi	t3,a0,20
   159a4:	00032783          	lw	a5,0(t1)
   159a8:	92f2                	add	t0,t0,t3
   159aa:	0002a703          	lw	a4,0(t0)
   159ae:	7179                	addi	sp,sp,-48
   159b0:	0785                	addi	a5,a5,1
   159b2:	d606                	sw	ra,44(sp)
   159b4:	d422                	sw	s0,40(sp)
   159b6:	02f758b3          	divu	a7,a4,a5
   159ba:	08f76d63          	bltu	a4,a5,15a54 <__quorem_D2A+0xcc>
   159be:	d226                	sw	s1,36(sp)
   159c0:	8fb2                	mv	t6,a2
   159c2:	8f72                	mv	t5,t3
   159c4:	4481                	li	s1,0
   159c6:	4401                	li	s0,0
   159c8:	000fa783          	lw	a5,0(t6)
   159cc:	000f2e83          	lw	t4,0(t5)
   159d0:	0f11                	addi	t5,t5,4
   159d2:	01079693          	slli	a3,a5,0x10
   159d6:	82c1                	srli	a3,a3,0x10
   159d8:	83c1                	srli	a5,a5,0x10
   159da:	010e9713          	slli	a4,t4,0x10
   159de:	010ed393          	srli	t2,t4,0x10
   159e2:	8341                	srli	a4,a4,0x10
   159e4:	0f91                	addi	t6,t6,4
   159e6:	031686b3          	mul	a3,a3,a7
   159ea:	031787b3          	mul	a5,a5,a7
   159ee:	96a6                	add	a3,a3,s1
   159f0:	01069e93          	slli	t4,a3,0x10
   159f4:	010ede93          	srli	t4,t4,0x10
   159f8:	82c1                	srli	a3,a3,0x10
   159fa:	41d70733          	sub	a4,a4,t4
   159fe:	8f01                	sub	a4,a4,s0
   15a00:	01075e93          	srli	t4,a4,0x10
   15a04:	001efe93          	andi	t4,t4,1
   15a08:	0742                	slli	a4,a4,0x10
   15a0a:	97b6                	add	a5,a5,a3
   15a0c:	01079693          	slli	a3,a5,0x10
   15a10:	82c1                	srli	a3,a3,0x10
   15a12:	96f6                	add	a3,a3,t4
   15a14:	0107d493          	srli	s1,a5,0x10
   15a18:	40d387b3          	sub	a5,t2,a3
   15a1c:	01079693          	slli	a3,a5,0x10
   15a20:	8341                	srli	a4,a4,0x10
   15a22:	8f55                	or	a4,a4,a3
   15a24:	83c1                	srli	a5,a5,0x10
   15a26:	feef2e23          	sw	a4,-4(t5)
   15a2a:	0017f413          	andi	s0,a5,1
   15a2e:	f9f37de3          	bgeu	t1,t6,159c8 <__quorem_D2A+0x40>
   15a32:	0002a783          	lw	a5,0(t0)
   15a36:	efc5                	bnez	a5,15aee <__quorem_D2A+0x166>
   15a38:	12f1                	addi	t0,t0,-4
   15a3a:	005e6663          	bltu	t3,t0,15a46 <__quorem_D2A+0xbe>
   15a3e:	a801                	j	15a4e <__quorem_D2A+0xc6>
   15a40:	187d                	addi	a6,a6,-1
   15a42:	005e7663          	bgeu	t3,t0,15a4e <__quorem_D2A+0xc6>
   15a46:	0002a783          	lw	a5,0(t0)
   15a4a:	12f1                	addi	t0,t0,-4
   15a4c:	dbf5                	beqz	a5,15a40 <__quorem_D2A+0xb8>
   15a4e:	5492                	lw	s1,36(sp)
   15a50:	01052823          	sw	a6,16(a0)
   15a54:	c646                	sw	a7,12(sp)
   15a56:	ce72                	sw	t3,28(sp)
   15a58:	cc1a                	sw	t1,24(sp)
   15a5a:	ca32                	sw	a2,20(sp)
   15a5c:	c842                	sw	a6,16(sp)
   15a5e:	842a                	mv	s0,a0
   15a60:	0bd000ef          	jal	1631c <__mcmp>
   15a64:	48b2                	lw	a7,12(sp)
   15a66:	06054d63          	bltz	a0,15ae0 <__quorem_D2A+0x158>
   15a6a:	4e72                	lw	t3,28(sp)
   15a6c:	4362                	lw	t1,24(sp)
   15a6e:	4652                	lw	a2,20(sp)
   15a70:	4842                	lw	a6,16(sp)
   15a72:	0885                	addi	a7,a7,1
   15a74:	8572                	mv	a0,t3
   15a76:	4e81                	li	t4,0
   15a78:	411c                	lw	a5,0(a0)
   15a7a:	4214                	lw	a3,0(a2)
   15a7c:	0511                	addi	a0,a0,4
   15a7e:	01079713          	slli	a4,a5,0x10
   15a82:	01069f13          	slli	t5,a3,0x10
   15a86:	010f5f13          	srli	t5,t5,0x10
   15a8a:	8341                	srli	a4,a4,0x10
   15a8c:	41e70733          	sub	a4,a4,t5
   15a90:	41d70733          	sub	a4,a4,t4
   15a94:	0106d593          	srli	a1,a3,0x10
   15a98:	01075693          	srli	a3,a4,0x10
   15a9c:	8a85                	andi	a3,a3,1
   15a9e:	96ae                	add	a3,a3,a1
   15aa0:	83c1                	srli	a5,a5,0x10
   15aa2:	8f95                	sub	a5,a5,a3
   15aa4:	0742                	slli	a4,a4,0x10
   15aa6:	01079693          	slli	a3,a5,0x10
   15aaa:	8341                	srli	a4,a4,0x10
   15aac:	8f55                	or	a4,a4,a3
   15aae:	0611                	addi	a2,a2,4
   15ab0:	83c1                	srli	a5,a5,0x10
   15ab2:	fee52e23          	sw	a4,-4(a0)
   15ab6:	0017fe93          	andi	t4,a5,1
   15aba:	fac37fe3          	bgeu	t1,a2,15a78 <__quorem_D2A+0xf0>
   15abe:	00281793          	slli	a5,a6,0x2
   15ac2:	97f2                	add	a5,a5,t3
   15ac4:	4398                	lw	a4,0(a5)
   15ac6:	ef09                	bnez	a4,15ae0 <__quorem_D2A+0x158>
   15ac8:	17f1                	addi	a5,a5,-4
   15aca:	00fe6663          	bltu	t3,a5,15ad6 <__quorem_D2A+0x14e>
   15ace:	a039                	j	15adc <__quorem_D2A+0x154>
   15ad0:	187d                	addi	a6,a6,-1
   15ad2:	00fe7563          	bgeu	t3,a5,15adc <__quorem_D2A+0x154>
   15ad6:	4398                	lw	a4,0(a5)
   15ad8:	17f1                	addi	a5,a5,-4
   15ada:	db7d                	beqz	a4,15ad0 <__quorem_D2A+0x148>
   15adc:	01042823          	sw	a6,16(s0)
   15ae0:	50b2                	lw	ra,44(sp)
   15ae2:	5422                	lw	s0,40(sp)
   15ae4:	8546                	mv	a0,a7
   15ae6:	6145                	addi	sp,sp,48
   15ae8:	8082                	ret
   15aea:	4501                	li	a0,0
   15aec:	8082                	ret
   15aee:	5492                	lw	s1,36(sp)
   15af0:	b795                	j	15a54 <__quorem_D2A+0xcc>

00015af2 <__rshift_D2A>:
   15af2:	01052803          	lw	a6,16(a0)
   15af6:	4055de13          	srai	t3,a1,0x5
   15afa:	010e4763          	blt	t3,a6,15b08 <__rshift_D2A+0x16>
   15afe:	00052823          	sw	zero,16(a0)
   15b02:	00052a23          	sw	zero,20(a0)
   15b06:	8082                	ret
   15b08:	01450313          	addi	t1,a0,20
   15b0c:	00281613          	slli	a2,a6,0x2
   15b10:	002e1793          	slli	a5,t3,0x2
   15b14:	89fd                	andi	a1,a1,31
   15b16:	961a                	add	a2,a2,t1
   15b18:	979a                	add	a5,a5,t1
   15b1a:	c5a1                	beqz	a1,15b62 <__rshift_D2A+0x70>
   15b1c:	4394                	lw	a3,0(a5)
   15b1e:	0791                	addi	a5,a5,4
   15b20:	00b6d6b3          	srl	a3,a3,a1
   15b24:	06c7f463          	bgeu	a5,a2,15b8c <__rshift_D2A+0x9a>
   15b28:	02000e93          	li	t4,32
   15b2c:	40be8eb3          	sub	t4,t4,a1
   15b30:	889a                	mv	a7,t1
   15b32:	4398                	lw	a4,0(a5)
   15b34:	0891                	addi	a7,a7,4
   15b36:	0791                	addi	a5,a5,4
   15b38:	01d71733          	sll	a4,a4,t4
   15b3c:	8f55                	or	a4,a4,a3
   15b3e:	fee8ae23          	sw	a4,-4(a7)
   15b42:	ffc7a683          	lw	a3,-4(a5)
   15b46:	00b6d6b3          	srl	a3,a3,a1
   15b4a:	fec7e4e3          	bltu	a5,a2,15b32 <__rshift_D2A+0x40>
   15b4e:	41c80833          	sub	a6,a6,t3
   15b52:	080a                	slli	a6,a6,0x2
   15b54:	981a                	add	a6,a6,t1
   15b56:	fed82e23          	sw	a3,-4(a6)
   15b5a:	1871                	addi	a6,a6,-4
   15b5c:	c28d                	beqz	a3,15b7e <__rshift_D2A+0x8c>
   15b5e:	0811                	addi	a6,a6,4
   15b60:	a839                	j	15b7e <__rshift_D2A+0x8c>
   15b62:	871a                	mv	a4,t1
   15b64:	f8c7fde3          	bgeu	a5,a2,15afe <__rshift_D2A+0xc>
   15b68:	4394                	lw	a3,0(a5)
   15b6a:	0791                	addi	a5,a5,4
   15b6c:	0711                	addi	a4,a4,4
   15b6e:	fed72e23          	sw	a3,-4(a4)
   15b72:	fec7ebe3          	bltu	a5,a2,15b68 <__rshift_D2A+0x76>
   15b76:	41c80833          	sub	a6,a6,t3
   15b7a:	080a                	slli	a6,a6,0x2
   15b7c:	981a                	add	a6,a6,t1
   15b7e:	406807b3          	sub	a5,a6,t1
   15b82:	8789                	srai	a5,a5,0x2
   15b84:	c91c                	sw	a5,16(a0)
   15b86:	f6680ee3          	beq	a6,t1,15b02 <__rshift_D2A+0x10>
   15b8a:	8082                	ret
   15b8c:	c954                	sw	a3,20(a0)
   15b8e:	daa5                	beqz	a3,15afe <__rshift_D2A+0xc>
   15b90:	881a                	mv	a6,t1
   15b92:	0811                	addi	a6,a6,4
   15b94:	b7ed                	j	15b7e <__rshift_D2A+0x8c>

00015b96 <__trailz_D2A>:
   15b96:	4914                	lw	a3,16(a0)
   15b98:	0551                	addi	a0,a0,20
   15b9a:	4781                	li	a5,0
   15b9c:	068a                	slli	a3,a3,0x2
   15b9e:	96aa                	add	a3,a3,a0
   15ba0:	00d56863          	bltu	a0,a3,15bb0 <__trailz_D2A+0x1a>
   15ba4:	a035                	j	15bd0 <__trailz_D2A+0x3a>
   15ba6:	0511                	addi	a0,a0,4
   15ba8:	02078793          	addi	a5,a5,32
   15bac:	02d57263          	bgeu	a0,a3,15bd0 <__trailz_D2A+0x3a>
   15bb0:	4118                	lw	a4,0(a0)
   15bb2:	db75                	beqz	a4,15ba6 <__trailz_D2A+0x10>
   15bb4:	00d57e63          	bgeu	a0,a3,15bd0 <__trailz_D2A+0x3a>
   15bb8:	7179                	addi	sp,sp,-48
   15bba:	0868                	addi	a0,sp,28
   15bbc:	d606                	sw	ra,44(sp)
   15bbe:	c63e                	sw	a5,12(sp)
   15bc0:	ce3a                	sw	a4,28(sp)
   15bc2:	246d                	jal	15e6c <__lo0bits>
   15bc4:	47b2                	lw	a5,12(sp)
   15bc6:	50b2                	lw	ra,44(sp)
   15bc8:	97aa                	add	a5,a5,a0
   15bca:	853e                	mv	a0,a5
   15bcc:	6145                	addi	sp,sp,48
   15bce:	8082                	ret
   15bd0:	853e                	mv	a0,a5
   15bd2:	8082                	ret

00015bd4 <_Balloc>:
   15bd4:	417c                	lw	a5,68(a0)
   15bd6:	1101                	addi	sp,sp,-32
   15bd8:	ce06                	sw	ra,28(sp)
   15bda:	872a                	mv	a4,a0
   15bdc:	86ae                	mv	a3,a1
   15bde:	cf99                	beqz	a5,15bfc <_Balloc+0x28>
   15be0:	00269613          	slli	a2,a3,0x2
   15be4:	97b2                	add	a5,a5,a2
   15be6:	4388                	lw	a0,0(a5)
   15be8:	c905                	beqz	a0,15c18 <_Balloc+0x44>
   15bea:	4118                	lw	a4,0(a0)
   15bec:	c398                	sw	a4,0(a5)
   15bee:	00052823          	sw	zero,16(a0)
   15bf2:	00052623          	sw	zero,12(a0)
   15bf6:	40f2                	lw	ra,28(sp)
   15bf8:	6105                	addi	sp,sp,32
   15bfa:	8082                	ret
   15bfc:	c62e                	sw	a1,12(sp)
   15bfe:	02100613          	li	a2,33
   15c02:	4591                	li	a1,4
   15c04:	c42a                	sw	a0,8(sp)
   15c06:	450010ef          	jal	17056 <_calloc_r>
   15c0a:	4722                	lw	a4,8(sp)
   15c0c:	46b2                	lw	a3,12(sp)
   15c0e:	87aa                	mv	a5,a0
   15c10:	c368                	sw	a0,68(a4)
   15c12:	f579                	bnez	a0,15be0 <_Balloc+0xc>
   15c14:	4501                	li	a0,0
   15c16:	b7c5                	j	15bf6 <_Balloc+0x22>
   15c18:	4585                	li	a1,1
   15c1a:	00d597b3          	sll	a5,a1,a3
   15c1e:	00578613          	addi	a2,a5,5
   15c22:	853a                	mv	a0,a4
   15c24:	060a                	slli	a2,a2,0x2
   15c26:	c636                	sw	a3,12(sp)
   15c28:	c43e                	sw	a5,8(sp)
   15c2a:	42c010ef          	jal	17056 <_calloc_r>
   15c2e:	d17d                	beqz	a0,15c14 <_Balloc+0x40>
   15c30:	46b2                	lw	a3,12(sp)
   15c32:	47a2                	lw	a5,8(sp)
   15c34:	c154                	sw	a3,4(a0)
   15c36:	c51c                	sw	a5,8(a0)
   15c38:	bf5d                	j	15bee <_Balloc+0x1a>

00015c3a <_Bfree>:
   15c3a:	c981                	beqz	a1,15c4a <_Bfree+0x10>
   15c3c:	41d8                	lw	a4,4(a1)
   15c3e:	417c                	lw	a5,68(a0)
   15c40:	070a                	slli	a4,a4,0x2
   15c42:	97ba                	add	a5,a5,a4
   15c44:	4398                	lw	a4,0(a5)
   15c46:	c198                	sw	a4,0(a1)
   15c48:	c38c                	sw	a1,0(a5)
   15c4a:	8082                	ret

00015c4c <__multadd>:
   15c4c:	0105ae03          	lw	t3,16(a1)
   15c50:	8eae                	mv	t4,a1
   15c52:	8336                	mv	t1,a3
   15c54:	01458813          	addi	a6,a1,20
   15c58:	4881                	li	a7,0
   15c5a:	00082783          	lw	a5,0(a6)
   15c5e:	0811                	addi	a6,a6,4
   15c60:	0885                	addi	a7,a7,1
   15c62:	01079713          	slli	a4,a5,0x10
   15c66:	8341                	srli	a4,a4,0x10
   15c68:	0107d693          	srli	a3,a5,0x10
   15c6c:	02c707b3          	mul	a5,a4,a2
   15c70:	02c686b3          	mul	a3,a3,a2
   15c74:	979a                	add	a5,a5,t1
   15c76:	0107d713          	srli	a4,a5,0x10
   15c7a:	07c2                	slli	a5,a5,0x10
   15c7c:	83c1                	srli	a5,a5,0x10
   15c7e:	96ba                	add	a3,a3,a4
   15c80:	01069713          	slli	a4,a3,0x10
   15c84:	97ba                	add	a5,a5,a4
   15c86:	fef82e23          	sw	a5,-4(a6)
   15c8a:	0106d313          	srli	t1,a3,0x10
   15c8e:	fdc8c6e3          	blt	a7,t3,15c5a <__multadd+0xe>
   15c92:	00030f63          	beqz	t1,15cb0 <__multadd+0x64>
   15c96:	008ea783          	lw	a5,8(t4)
   15c9a:	00fe5d63          	bge	t3,a5,15cb4 <__multadd+0x68>
   15c9e:	002e1713          	slli	a4,t3,0x2
   15ca2:	9776                	add	a4,a4,t4
   15ca4:	00672a23          	sw	t1,20(a4)
   15ca8:	001e0793          	addi	a5,t3,1
   15cac:	00fea823          	sw	a5,16(t4)
   15cb0:	8576                	mv	a0,t4
   15cb2:	8082                	ret
   15cb4:	004ea583          	lw	a1,4(t4)
   15cb8:	1101                	addi	sp,sp,-32
   15cba:	cc22                	sw	s0,24(sp)
   15cbc:	0585                	addi	a1,a1,1
   15cbe:	c41a                	sw	t1,8(sp)
   15cc0:	c272                	sw	t3,4(sp)
   15cc2:	c076                	sw	t4,0(sp)
   15cc4:	ce06                	sw	ra,28(sp)
   15cc6:	842a                	mv	s0,a0
   15cc8:	3731                	jal	15bd4 <_Balloc>
   15cca:	4e82                	lw	t4,0(sp)
   15ccc:	4e12                	lw	t3,4(sp)
   15cce:	4322                	lw	t1,8(sp)
   15cd0:	872a                	mv	a4,a0
   15cd2:	c931                	beqz	a0,15d26 <__multadd+0xda>
   15cd4:	010ea603          	lw	a2,16(t4)
   15cd8:	00ce8593          	addi	a1,t4,12
   15cdc:	0531                	addi	a0,a0,12
   15cde:	0609                	addi	a2,a2,2
   15ce0:	060a                	slli	a2,a2,0x2
   15ce2:	c61a                	sw	t1,12(sp)
   15ce4:	c472                	sw	t3,8(sp)
   15ce6:	c276                	sw	t4,4(sp)
   15ce8:	c03a                	sw	a4,0(sp)
   15cea:	d3afe0ef          	jal	14224 <memcpy>
   15cee:	4e92                	lw	t4,4(sp)
   15cf0:	407c                	lw	a5,68(s0)
   15cf2:	4e22                	lw	t3,8(sp)
   15cf4:	004ea683          	lw	a3,4(t4)
   15cf8:	4332                	lw	t1,12(sp)
   15cfa:	002e1713          	slli	a4,t3,0x2
   15cfe:	068a                	slli	a3,a3,0x2
   15d00:	97b6                	add	a5,a5,a3
   15d02:	4394                	lw	a3,0(a5)
   15d04:	40f2                	lw	ra,28(sp)
   15d06:	4462                	lw	s0,24(sp)
   15d08:	00dea023          	sw	a3,0(t4)
   15d0c:	01d7a023          	sw	t4,0(a5)
   15d10:	4e82                	lw	t4,0(sp)
   15d12:	001e0793          	addi	a5,t3,1
   15d16:	9776                	add	a4,a4,t4
   15d18:	00672a23          	sw	t1,20(a4)
   15d1c:	00fea823          	sw	a5,16(t4)
   15d20:	8576                	mv	a0,t4
   15d22:	6105                	addi	sp,sp,32
   15d24:	8082                	ret
   15d26:	66ed                	lui	a3,0x1b
   15d28:	656d                	lui	a0,0x1b
   15d2a:	9a868693          	addi	a3,a3,-1624 # 1a9a8 <__clzsi2+0x96>
   15d2e:	a2050513          	addi	a0,a0,-1504 # 1aa20 <__clzsi2+0x10e>
   15d32:	4601                	li	a2,0
   15d34:	0ba00593          	li	a1,186
   15d38:	2e0010ef          	jal	17018 <__assert_func>

00015d3c <__s2b>:
   15d3c:	1101                	addi	sp,sp,-32
   15d3e:	cc22                	sw	s0,24(sp)
   15d40:	c84a                	sw	s2,16(sp)
   15d42:	c64e                	sw	s3,12(sp)
   15d44:	c452                	sw	s4,8(sp)
   15d46:	c256                	sw	s5,4(sp)
   15d48:	ce06                	sw	ra,28(sp)
   15d4a:	ca26                	sw	s1,20(sp)
   15d4c:	47a5                	li	a5,9
   15d4e:	89b6                	mv	s3,a3
   15d50:	8a32                	mv	s4,a2
   15d52:	892a                	mv	s2,a0
   15d54:	8aae                	mv	s5,a1
   15d56:	843a                	mv	s0,a4
   15d58:	08d7d963          	bge	a5,a3,15dea <__s2b+0xae>
   15d5c:	38e397b7          	lui	a5,0x38e39
   15d60:	e3978793          	addi	a5,a5,-455 # 38e38e39 <__BSS_END__+0x38e1c285>
   15d64:	06a1                	addi	a3,a3,8
   15d66:	02f6b6b3          	mulhu	a3,a3,a5
   15d6a:	4581                	li	a1,0
   15d6c:	4785                	li	a5,1
   15d6e:	8285                	srli	a3,a3,0x1
   15d70:	0786                	slli	a5,a5,0x1
   15d72:	0585                	addi	a1,a1,1
   15d74:	fed7cee3          	blt	a5,a3,15d70 <__s2b+0x34>
   15d78:	854a                	mv	a0,s2
   15d7a:	3da9                	jal	15bd4 <_Balloc>
   15d7c:	85aa                	mv	a1,a0
   15d7e:	c925                	beqz	a0,15dee <__s2b+0xb2>
   15d80:	4785                	li	a5,1
   15d82:	c91c                	sw	a5,16(a0)
   15d84:	c940                	sw	s0,20(a0)
   15d86:	47a5                	li	a5,9
   15d88:	0547dd63          	bge	a5,s4,15de2 <__s2b+0xa6>
   15d8c:	009a8413          	addi	s0,s5,9
   15d90:	84a2                	mv	s1,s0
   15d92:	9ad2                	add	s5,s5,s4
   15d94:	0004c683          	lbu	a3,0(s1)
   15d98:	4629                	li	a2,10
   15d9a:	854a                	mv	a0,s2
   15d9c:	fd068693          	addi	a3,a3,-48
   15da0:	0485                	addi	s1,s1,1
   15da2:	356d                	jal	15c4c <__multadd>
   15da4:	85aa                	mv	a1,a0
   15da6:	ff5497e3          	bne	s1,s5,15d94 <__s2b+0x58>
   15daa:	9452                	add	s0,s0,s4
   15dac:	1461                	addi	s0,s0,-8
   15dae:	033a5063          	bge	s4,s3,15dce <__s2b+0x92>
   15db2:	414984b3          	sub	s1,s3,s4
   15db6:	94a2                	add	s1,s1,s0
   15db8:	00044683          	lbu	a3,0(s0)
   15dbc:	4629                	li	a2,10
   15dbe:	854a                	mv	a0,s2
   15dc0:	fd068693          	addi	a3,a3,-48
   15dc4:	0405                	addi	s0,s0,1
   15dc6:	3559                	jal	15c4c <__multadd>
   15dc8:	85aa                	mv	a1,a0
   15dca:	fe9417e3          	bne	s0,s1,15db8 <__s2b+0x7c>
   15dce:	40f2                	lw	ra,28(sp)
   15dd0:	4462                	lw	s0,24(sp)
   15dd2:	44d2                	lw	s1,20(sp)
   15dd4:	4942                	lw	s2,16(sp)
   15dd6:	49b2                	lw	s3,12(sp)
   15dd8:	4a22                	lw	s4,8(sp)
   15dda:	4a92                	lw	s5,4(sp)
   15ddc:	852e                	mv	a0,a1
   15dde:	6105                	addi	sp,sp,32
   15de0:	8082                	ret
   15de2:	00aa8413          	addi	s0,s5,10
   15de6:	8a3e                	mv	s4,a5
   15de8:	b7d9                	j	15dae <__s2b+0x72>
   15dea:	4581                	li	a1,0
   15dec:	b771                	j	15d78 <__s2b+0x3c>
   15dee:	66ed                	lui	a3,0x1b
   15df0:	656d                	lui	a0,0x1b
   15df2:	9a868693          	addi	a3,a3,-1624 # 1a9a8 <__clzsi2+0x96>
   15df6:	a2050513          	addi	a0,a0,-1504 # 1aa20 <__clzsi2+0x10e>
   15dfa:	4601                	li	a2,0
   15dfc:	0d300593          	li	a1,211
   15e00:	218010ef          	jal	17018 <__assert_func>

00015e04 <__hi0bits>:
   15e04:	87aa                	mv	a5,a0
   15e06:	6741                	lui	a4,0x10
   15e08:	4501                	li	a0,0
   15e0a:	00e7f463          	bgeu	a5,a4,15e12 <__hi0bits+0xe>
   15e0e:	07c2                	slli	a5,a5,0x10
   15e10:	4541                	li	a0,16
   15e12:	01000737          	lui	a4,0x1000
   15e16:	00e7f463          	bgeu	a5,a4,15e1e <__hi0bits+0x1a>
   15e1a:	0521                	addi	a0,a0,8
   15e1c:	07a2                	slli	a5,a5,0x8
   15e1e:	10000737          	lui	a4,0x10000
   15e22:	00e7ec63          	bltu	a5,a4,15e3a <__hi0bits+0x36>
   15e26:	40000737          	lui	a4,0x40000
   15e2a:	02e7f963          	bgeu	a5,a4,15e5c <__hi0bits+0x58>
   15e2e:	00279713          	slli	a4,a5,0x2
   15e32:	02074b63          	bltz	a4,15e68 <__hi0bits+0x64>
   15e36:	050d                	addi	a0,a0,3
   15e38:	8082                	ret
   15e3a:	00479713          	slli	a4,a5,0x4
   15e3e:	400006b7          	lui	a3,0x40000
   15e42:	0511                	addi	a0,a0,4
   15e44:	00d77d63          	bgeu	a4,a3,15e5e <__hi0bits+0x5a>
   15e48:	079a                	slli	a5,a5,0x6
   15e4a:	0007cf63          	bltz	a5,15e68 <__hi0bits+0x64>
   15e4e:	00179713          	slli	a4,a5,0x1
   15e52:	fe0742e3          	bltz	a4,15e36 <__hi0bits+0x32>
   15e56:	02000513          	li	a0,32
   15e5a:	8082                	ret
   15e5c:	873e                	mv	a4,a5
   15e5e:	fff74713          	not	a4,a4
   15e62:	837d                	srli	a4,a4,0x1f
   15e64:	953a                	add	a0,a0,a4
   15e66:	8082                	ret
   15e68:	0509                	addi	a0,a0,2
   15e6a:	8082                	ret

00015e6c <__lo0bits>:
   15e6c:	411c                	lw	a5,0(a0)
   15e6e:	0077f713          	andi	a4,a5,7
   15e72:	cf09                	beqz	a4,15e8c <__lo0bits+0x20>
   15e74:	0017f693          	andi	a3,a5,1
   15e78:	4701                	li	a4,0
   15e7a:	e699                	bnez	a3,15e88 <__lo0bits+0x1c>
   15e7c:	0027f713          	andi	a4,a5,2
   15e80:	cb2d                	beqz	a4,15ef2 <__lo0bits+0x86>
   15e82:	8385                	srli	a5,a5,0x1
   15e84:	c11c                	sw	a5,0(a0)
   15e86:	4705                	li	a4,1
   15e88:	853a                	mv	a0,a4
   15e8a:	8082                	ret
   15e8c:	01079713          	slli	a4,a5,0x10
   15e90:	8341                	srli	a4,a4,0x10
   15e92:	e715                	bnez	a4,15ebe <__lo0bits+0x52>
   15e94:	83c1                	srli	a5,a5,0x10
   15e96:	0ff7f693          	zext.b	a3,a5
   15e9a:	4741                	li	a4,16
   15e9c:	e299                	bnez	a3,15ea2 <__lo0bits+0x36>
   15e9e:	4761                	li	a4,24
   15ea0:	83a1                	srli	a5,a5,0x8
   15ea2:	00f7f693          	andi	a3,a5,15
   15ea6:	c2a1                	beqz	a3,15ee6 <__lo0bits+0x7a>
   15ea8:	0037f693          	andi	a3,a5,3
   15eac:	c685                	beqz	a3,15ed4 <__lo0bits+0x68>
   15eae:	0017f693          	andi	a3,a5,1
   15eb2:	e299                	bnez	a3,15eb8 <__lo0bits+0x4c>
   15eb4:	0705                	addi	a4,a4,1 # 40000001 <__BSS_END__+0x3ffe344d>
   15eb6:	8385                	srli	a5,a5,0x1
   15eb8:	c11c                	sw	a5,0(a0)
   15eba:	853a                	mv	a0,a4
   15ebc:	8082                	ret
   15ebe:	0ff7f713          	zext.b	a4,a5
   15ec2:	c70d                	beqz	a4,15eec <__lo0bits+0x80>
   15ec4:	00f7f713          	andi	a4,a5,15
   15ec8:	ef1d                	bnez	a4,15f06 <__lo0bits+0x9a>
   15eca:	4711                	li	a4,4
   15ecc:	8391                	srli	a5,a5,0x4
   15ece:	0037f693          	andi	a3,a5,3
   15ed2:	fef1                	bnez	a3,15eae <__lo0bits+0x42>
   15ed4:	0027d693          	srli	a3,a5,0x2
   15ed8:	0016f613          	andi	a2,a3,1
   15edc:	c205                	beqz	a2,15efc <__lo0bits+0x90>
   15ede:	87b6                	mv	a5,a3
   15ee0:	0709                	addi	a4,a4,2
   15ee2:	c11c                	sw	a5,0(a0)
   15ee4:	bfd9                	j	15eba <__lo0bits+0x4e>
   15ee6:	0711                	addi	a4,a4,4
   15ee8:	8391                	srli	a5,a5,0x4
   15eea:	b7d5                	j	15ece <__lo0bits+0x62>
   15eec:	4721                	li	a4,8
   15eee:	83a1                	srli	a5,a5,0x8
   15ef0:	bf4d                	j	15ea2 <__lo0bits+0x36>
   15ef2:	8389                	srli	a5,a5,0x2
   15ef4:	4709                	li	a4,2
   15ef6:	c11c                	sw	a5,0(a0)
   15ef8:	853a                	mv	a0,a4
   15efa:	8082                	ret
   15efc:	838d                	srli	a5,a5,0x3
   15efe:	eb81                	bnez	a5,15f0e <__lo0bits+0xa2>
   15f00:	02000713          	li	a4,32
   15f04:	b751                	j	15e88 <__lo0bits+0x1c>
   15f06:	838d                	srli	a5,a5,0x3
   15f08:	470d                	li	a4,3
   15f0a:	c11c                	sw	a5,0(a0)
   15f0c:	b77d                	j	15eba <__lo0bits+0x4e>
   15f0e:	070d                	addi	a4,a4,3
   15f10:	c11c                	sw	a5,0(a0)
   15f12:	b765                	j	15eba <__lo0bits+0x4e>

00015f14 <__i2b>:
   15f14:	417c                	lw	a5,68(a0)
   15f16:	1101                	addi	sp,sp,-32
   15f18:	ce06                	sw	ra,28(sp)
   15f1a:	872a                	mv	a4,a0
   15f1c:	86ae                	mv	a3,a1
   15f1e:	cf89                	beqz	a5,15f38 <__i2b+0x24>
   15f20:	43c8                	lw	a0,4(a5)
   15f22:	c131                	beqz	a0,15f66 <__i2b+0x52>
   15f24:	4118                	lw	a4,0(a0)
   15f26:	40f2                	lw	ra,28(sp)
   15f28:	c3d8                	sw	a4,4(a5)
   15f2a:	4785                	li	a5,1
   15f2c:	00052623          	sw	zero,12(a0)
   15f30:	c954                	sw	a3,20(a0)
   15f32:	c91c                	sw	a5,16(a0)
   15f34:	6105                	addi	sp,sp,32
   15f36:	8082                	ret
   15f38:	c62e                	sw	a1,12(sp)
   15f3a:	02100613          	li	a2,33
   15f3e:	4591                	li	a1,4
   15f40:	c42a                	sw	a0,8(sp)
   15f42:	114010ef          	jal	17056 <_calloc_r>
   15f46:	4722                	lw	a4,8(sp)
   15f48:	46b2                	lw	a3,12(sp)
   15f4a:	87aa                	mv	a5,a0
   15f4c:	c368                	sw	a0,68(a4)
   15f4e:	f969                	bnez	a0,15f20 <__i2b+0xc>
   15f50:	66ed                	lui	a3,0x1b
   15f52:	656d                	lui	a0,0x1b
   15f54:	9a868693          	addi	a3,a3,-1624 # 1a9a8 <__clzsi2+0x96>
   15f58:	a2050513          	addi	a0,a0,-1504 # 1aa20 <__clzsi2+0x10e>
   15f5c:	4601                	li	a2,0
   15f5e:	14500593          	li	a1,325
   15f62:	0b6010ef          	jal	17018 <__assert_func>
   15f66:	853a                	mv	a0,a4
   15f68:	4671                	li	a2,28
   15f6a:	4585                	li	a1,1
   15f6c:	c436                	sw	a3,8(sp)
   15f6e:	0e8010ef          	jal	17056 <_calloc_r>
   15f72:	dd79                	beqz	a0,15f50 <__i2b+0x3c>
   15f74:	46a2                	lw	a3,8(sp)
   15f76:	40f2                	lw	ra,28(sp)
   15f78:	4789                	li	a5,2
   15f7a:	c51c                	sw	a5,8(a0)
   15f7c:	4705                	li	a4,1
   15f7e:	4785                	li	a5,1
   15f80:	c158                	sw	a4,4(a0)
   15f82:	00052623          	sw	zero,12(a0)
   15f86:	c954                	sw	a3,20(a0)
   15f88:	c91c                	sw	a5,16(a0)
   15f8a:	6105                	addi	sp,sp,32
   15f8c:	8082                	ret

00015f8e <__multiply>:
   15f8e:	1101                	addi	sp,sp,-32
   15f90:	c84a                	sw	s2,16(sp)
   15f92:	c64e                	sw	s3,12(sp)
   15f94:	0105a903          	lw	s2,16(a1)
   15f98:	01062983          	lw	s3,16(a2)
   15f9c:	ca26                	sw	s1,20(sp)
   15f9e:	c452                	sw	s4,8(sp)
   15fa0:	ce06                	sw	ra,28(sp)
   15fa2:	cc22                	sw	s0,24(sp)
   15fa4:	8a2e                	mv	s4,a1
   15fa6:	84b2                	mv	s1,a2
   15fa8:	01394763          	blt	s2,s3,15fb6 <__multiply+0x28>
   15fac:	874e                	mv	a4,s3
   15fae:	84ae                	mv	s1,a1
   15fb0:	89ca                	mv	s3,s2
   15fb2:	8a32                	mv	s4,a2
   15fb4:	893a                	mv	s2,a4
   15fb6:	449c                	lw	a5,8(s1)
   15fb8:	40cc                	lw	a1,4(s1)
   15fba:	01298433          	add	s0,s3,s2
   15fbe:	0087a7b3          	slt	a5,a5,s0
   15fc2:	95be                	add	a1,a1,a5
   15fc4:	3901                	jal	15bd4 <_Balloc>
   15fc6:	16050163          	beqz	a0,16128 <__multiply+0x19a>
   15fca:	01450893          	addi	a7,a0,20
   15fce:	00241813          	slli	a6,s0,0x2
   15fd2:	9846                	add	a6,a6,a7
   15fd4:	87c6                	mv	a5,a7
   15fd6:	0108f763          	bgeu	a7,a6,15fe4 <__multiply+0x56>
   15fda:	0007a023          	sw	zero,0(a5)
   15fde:	0791                	addi	a5,a5,4
   15fe0:	ff07ede3          	bltu	a5,a6,15fda <__multiply+0x4c>
   15fe4:	014a0593          	addi	a1,s4,20
   15fe8:	00291313          	slli	t1,s2,0x2
   15fec:	932e                	add	t1,t1,a1
   15fee:	1065fb63          	bgeu	a1,t1,16104 <__multiply+0x176>
   15ff2:	00299693          	slli	a3,s3,0x2
   15ff6:	01448e93          	addi	t4,s1,20
   15ffa:	96f6                	add	a3,a3,t4
   15ffc:	01548e13          	addi	t3,s1,21
   16000:	01c6be33          	sltu	t3,a3,t3
   16004:	40968633          	sub	a2,a3,s1
   16008:	001e4e13          	xori	t3,t3,1
   1600c:	162d                	addi	a2,a2,-21
   1600e:	a809                	j	16020 <__multiply+0x92>
   16010:	010fdf93          	srli	t6,t6,0x10
   16014:	080f9463          	bnez	t6,1609c <__multiply+0x10e>
   16018:	0591                	addi	a1,a1,4
   1601a:	0891                	addi	a7,a7,4
   1601c:	0e65f463          	bgeu	a1,t1,16104 <__multiply+0x176>
   16020:	0005af83          	lw	t6,0(a1)
   16024:	010f9393          	slli	t2,t6,0x10
   16028:	0103d393          	srli	t2,t2,0x10
   1602c:	fe0382e3          	beqz	t2,16010 <__multiply+0x82>
   16030:	82c6                	mv	t0,a7
   16032:	8ff6                	mv	t6,t4
   16034:	4481                	li	s1,0
   16036:	000fa783          	lw	a5,0(t6)
   1603a:	0002af03          	lw	t5,0(t0)
   1603e:	0291                	addi	t0,t0,4
   16040:	01079713          	slli	a4,a5,0x10
   16044:	8341                	srli	a4,a4,0x10
   16046:	02770733          	mul	a4,a4,t2
   1604a:	83c1                	srli	a5,a5,0x10
   1604c:	010f1913          	slli	s2,t5,0x10
   16050:	01095913          	srli	s2,s2,0x10
   16054:	010f5f13          	srli	t5,t5,0x10
   16058:	0f91                	addi	t6,t6,4
   1605a:	027787b3          	mul	a5,a5,t2
   1605e:	974a                	add	a4,a4,s2
   16060:	9726                	add	a4,a4,s1
   16062:	97fa                	add	a5,a5,t5
   16064:	01075f13          	srli	t5,a4,0x10
   16068:	97fa                	add	a5,a5,t5
   1606a:	0742                	slli	a4,a4,0x10
   1606c:	8341                	srli	a4,a4,0x10
   1606e:	01079f13          	slli	t5,a5,0x10
   16072:	00ef6733          	or	a4,t5,a4
   16076:	fee2ae23          	sw	a4,-4(t0)
   1607a:	0107d493          	srli	s1,a5,0x10
   1607e:	fadfece3          	bltu	t6,a3,16036 <__multiply+0xa8>
   16082:	4781                	li	a5,0
   16084:	000e0463          	beqz	t3,1608c <__multiply+0xfe>
   16088:	ffc67793          	andi	a5,a2,-4
   1608c:	97c6                	add	a5,a5,a7
   1608e:	c3c4                	sw	s1,4(a5)
   16090:	0005af83          	lw	t6,0(a1)
   16094:	010fdf93          	srli	t6,t6,0x10
   16098:	f80f80e3          	beqz	t6,16018 <__multiply+0x8a>
   1609c:	0008a783          	lw	a5,0(a7)
   160a0:	82c6                	mv	t0,a7
   160a2:	8f76                	mv	t5,t4
   160a4:	84be                	mv	s1,a5
   160a6:	4381                	li	t2,0
   160a8:	000f5703          	lhu	a4,0(t5)
   160ac:	0104d993          	srli	s3,s1,0x10
   160b0:	07c2                	slli	a5,a5,0x10
   160b2:	03f70733          	mul	a4,a4,t6
   160b6:	83c1                	srli	a5,a5,0x10
   160b8:	0f11                	addi	t5,t5,4
   160ba:	0042a483          	lw	s1,4(t0)
   160be:	0291                	addi	t0,t0,4
   160c0:	01049913          	slli	s2,s1,0x10
   160c4:	01095913          	srli	s2,s2,0x10
   160c8:	971e                	add	a4,a4,t2
   160ca:	974e                	add	a4,a4,s3
   160cc:	01071393          	slli	t2,a4,0x10
   160d0:	00f3e7b3          	or	a5,t2,a5
   160d4:	fef2ae23          	sw	a5,-4(t0)
   160d8:	ffef5783          	lhu	a5,-2(t5)
   160dc:	8341                	srli	a4,a4,0x10
   160de:	03f787b3          	mul	a5,a5,t6
   160e2:	97ca                	add	a5,a5,s2
   160e4:	97ba                	add	a5,a5,a4
   160e6:	0107d393          	srli	t2,a5,0x10
   160ea:	fadf6fe3          	bltu	t5,a3,160a8 <__multiply+0x11a>
   160ee:	4701                	li	a4,0
   160f0:	000e0463          	beqz	t3,160f8 <__multiply+0x16a>
   160f4:	ffc67713          	andi	a4,a2,-4
   160f8:	9746                	add	a4,a4,a7
   160fa:	c35c                	sw	a5,4(a4)
   160fc:	0591                	addi	a1,a1,4
   160fe:	0891                	addi	a7,a7,4
   16100:	f265e0e3          	bltu	a1,t1,16020 <__multiply+0x92>
   16104:	00804563          	bgtz	s0,1610e <__multiply+0x180>
   16108:	a039                	j	16116 <__multiply+0x188>
   1610a:	147d                	addi	s0,s0,-1
   1610c:	c409                	beqz	s0,16116 <__multiply+0x188>
   1610e:	ffc82783          	lw	a5,-4(a6)
   16112:	1871                	addi	a6,a6,-4
   16114:	dbfd                	beqz	a5,1610a <__multiply+0x17c>
   16116:	40f2                	lw	ra,28(sp)
   16118:	c900                	sw	s0,16(a0)
   1611a:	4462                	lw	s0,24(sp)
   1611c:	44d2                	lw	s1,20(sp)
   1611e:	4942                	lw	s2,16(sp)
   16120:	49b2                	lw	s3,12(sp)
   16122:	4a22                	lw	s4,8(sp)
   16124:	6105                	addi	sp,sp,32
   16126:	8082                	ret
   16128:	66ed                	lui	a3,0x1b
   1612a:	656d                	lui	a0,0x1b
   1612c:	9a868693          	addi	a3,a3,-1624 # 1a9a8 <__clzsi2+0x96>
   16130:	a2050513          	addi	a0,a0,-1504 # 1aa20 <__clzsi2+0x10e>
   16134:	4601                	li	a2,0
   16136:	16200593          	li	a1,354
   1613a:	6df000ef          	jal	17018 <__assert_func>

0001613e <__pow5mult>:
   1613e:	1101                	addi	sp,sp,-32
   16140:	cc22                	sw	s0,24(sp)
   16142:	c84a                	sw	s2,16(sp)
   16144:	c64e                	sw	s3,12(sp)
   16146:	ce06                	sw	ra,28(sp)
   16148:	00367793          	andi	a5,a2,3
   1614c:	8432                	mv	s0,a2
   1614e:	89aa                	mv	s3,a0
   16150:	892e                	mv	s2,a1
   16152:	efb5                	bnez	a5,161ce <__pow5mult+0x90>
   16154:	8409                	srai	s0,s0,0x2
   16156:	c42d                	beqz	s0,161c0 <__pow5mult+0x82>
   16158:	ca26                	sw	s1,20(sp)
   1615a:	0409a483          	lw	s1,64(s3)
   1615e:	c0d9                	beqz	s1,161e4 <__pow5mult+0xa6>
   16160:	00147793          	andi	a5,s0,1
   16164:	8405                	srai	s0,s0,0x1
   16166:	eb81                	bnez	a5,16176 <__pow5mult+0x38>
   16168:	4088                	lw	a0,0(s1)
   1616a:	c91d                	beqz	a0,161a0 <__pow5mult+0x62>
   1616c:	84aa                	mv	s1,a0
   1616e:	00147793          	andi	a5,s0,1
   16172:	8405                	srai	s0,s0,0x1
   16174:	dbf5                	beqz	a5,16168 <__pow5mult+0x2a>
   16176:	8626                	mv	a2,s1
   16178:	85ca                	mv	a1,s2
   1617a:	854e                	mv	a0,s3
   1617c:	3d09                	jal	15f8e <__multiply>
   1617e:	00090d63          	beqz	s2,16198 <__pow5mult+0x5a>
   16182:	00492703          	lw	a4,4(s2)
   16186:	0449a783          	lw	a5,68(s3)
   1618a:	070a                	slli	a4,a4,0x2
   1618c:	97ba                	add	a5,a5,a4
   1618e:	4398                	lw	a4,0(a5)
   16190:	00e92023          	sw	a4,0(s2)
   16194:	0127a023          	sw	s2,0(a5)
   16198:	cc09                	beqz	s0,161b2 <__pow5mult+0x74>
   1619a:	892a                	mv	s2,a0
   1619c:	4088                	lw	a0,0(s1)
   1619e:	f579                	bnez	a0,1616c <__pow5mult+0x2e>
   161a0:	8626                	mv	a2,s1
   161a2:	85a6                	mv	a1,s1
   161a4:	854e                	mv	a0,s3
   161a6:	33e5                	jal	15f8e <__multiply>
   161a8:	c088                	sw	a0,0(s1)
   161aa:	00052023          	sw	zero,0(a0)
   161ae:	84aa                	mv	s1,a0
   161b0:	bf7d                	j	1616e <__pow5mult+0x30>
   161b2:	40f2                	lw	ra,28(sp)
   161b4:	4462                	lw	s0,24(sp)
   161b6:	44d2                	lw	s1,20(sp)
   161b8:	4942                	lw	s2,16(sp)
   161ba:	49b2                	lw	s3,12(sp)
   161bc:	6105                	addi	sp,sp,32
   161be:	8082                	ret
   161c0:	40f2                	lw	ra,28(sp)
   161c2:	4462                	lw	s0,24(sp)
   161c4:	49b2                	lw	s3,12(sp)
   161c6:	854a                	mv	a0,s2
   161c8:	4942                	lw	s2,16(sp)
   161ca:	6105                	addi	sp,sp,32
   161cc:	8082                	ret
   161ce:	676d                	lui	a4,0x1b
   161d0:	c6c70713          	addi	a4,a4,-916 # 1ac6c <p05.0>
   161d4:	078a                	slli	a5,a5,0x2
   161d6:	97ba                	add	a5,a5,a4
   161d8:	ffc7a603          	lw	a2,-4(a5)
   161dc:	4681                	li	a3,0
   161de:	34bd                	jal	15c4c <__multadd>
   161e0:	892a                	mv	s2,a0
   161e2:	bf8d                	j	16154 <__pow5mult+0x16>
   161e4:	4585                	li	a1,1
   161e6:	854e                	mv	a0,s3
   161e8:	32f5                	jal	15bd4 <_Balloc>
   161ea:	84aa                	mv	s1,a0
   161ec:	c919                	beqz	a0,16202 <__pow5mult+0xc4>
   161ee:	27100713          	li	a4,625
   161f2:	4785                	li	a5,1
   161f4:	c958                	sw	a4,20(a0)
   161f6:	c91c                	sw	a5,16(a0)
   161f8:	04a9a023          	sw	a0,64(s3)
   161fc:	00052023          	sw	zero,0(a0)
   16200:	b785                	j	16160 <__pow5mult+0x22>
   16202:	66ed                	lui	a3,0x1b
   16204:	656d                	lui	a0,0x1b
   16206:	9a868693          	addi	a3,a3,-1624 # 1a9a8 <__clzsi2+0x96>
   1620a:	a2050513          	addi	a0,a0,-1504 # 1aa20 <__clzsi2+0x10e>
   1620e:	4601                	li	a2,0
   16210:	14500593          	li	a1,325
   16214:	605000ef          	jal	17018 <__assert_func>

00016218 <__lshift>:
   16218:	7179                	addi	sp,sp,-48
   1621a:	d04a                	sw	s2,32(sp)
   1621c:	0105a903          	lw	s2,16(a1)
   16220:	459c                	lw	a5,8(a1)
   16222:	cc52                	sw	s4,24(sp)
   16224:	40565a13          	srai	s4,a2,0x5
   16228:	9952                	add	s2,s2,s4
   1622a:	d422                	sw	s0,40(sp)
   1622c:	d226                	sw	s1,36(sp)
   1622e:	ce4e                	sw	s3,28(sp)
   16230:	d606                	sw	ra,44(sp)
   16232:	00190413          	addi	s0,s2,1
   16236:	84ae                	mv	s1,a1
   16238:	89aa                	mv	s3,a0
   1623a:	41cc                	lw	a1,4(a1)
   1623c:	0087d663          	bge	a5,s0,16248 <__lshift+0x30>
   16240:	0786                	slli	a5,a5,0x1
   16242:	0585                	addi	a1,a1,1
   16244:	fe87cee3          	blt	a5,s0,16240 <__lshift+0x28>
   16248:	854e                	mv	a0,s3
   1624a:	c632                	sw	a2,12(sp)
   1624c:	3261                	jal	15bd4 <_Balloc>
   1624e:	4632                	lw	a2,12(sp)
   16250:	c95d                	beqz	a0,16306 <__lshift+0xee>
   16252:	01450593          	addi	a1,a0,20
   16256:	01405e63          	blez	s4,16272 <__lshift+0x5a>
   1625a:	005a0713          	addi	a4,s4,5
   1625e:	070a                	slli	a4,a4,0x2
   16260:	972a                	add	a4,a4,a0
   16262:	87ae                	mv	a5,a1
   16264:	0791                	addi	a5,a5,4
   16266:	fe07ae23          	sw	zero,-4(a5)
   1626a:	fee79de3          	bne	a5,a4,16264 <__lshift+0x4c>
   1626e:	0a0a                	slli	s4,s4,0x2
   16270:	95d2                	add	a1,a1,s4
   16272:	0104a803          	lw	a6,16(s1)
   16276:	01448793          	addi	a5,s1,20
   1627a:	8a7d                	andi	a2,a2,31
   1627c:	080a                	slli	a6,a6,0x2
   1627e:	983e                	add	a6,a6,a5
   16280:	c625                	beqz	a2,162e8 <__lshift+0xd0>
   16282:	02000313          	li	t1,32
   16286:	40c30333          	sub	t1,t1,a2
   1628a:	88ae                	mv	a7,a1
   1628c:	4681                	li	a3,0
   1628e:	4398                	lw	a4,0(a5)
   16290:	0891                	addi	a7,a7,4
   16292:	0791                	addi	a5,a5,4
   16294:	00c71733          	sll	a4,a4,a2
   16298:	8f55                	or	a4,a4,a3
   1629a:	fee8ae23          	sw	a4,-4(a7)
   1629e:	ffc7a683          	lw	a3,-4(a5)
   162a2:	0066d6b3          	srl	a3,a3,t1
   162a6:	ff07e4e3          	bltu	a5,a6,1628e <__lshift+0x76>
   162aa:	01548793          	addi	a5,s1,21
   162ae:	4701                	li	a4,0
   162b0:	00f86763          	bltu	a6,a5,162be <__lshift+0xa6>
   162b4:	40980833          	sub	a6,a6,s1
   162b8:	182d                	addi	a6,a6,-21
   162ba:	ffc87713          	andi	a4,a6,-4
   162be:	95ba                	add	a1,a1,a4
   162c0:	c1d4                	sw	a3,4(a1)
   162c2:	e291                	bnez	a3,162c6 <__lshift+0xae>
   162c4:	844a                	mv	s0,s2
   162c6:	40d8                	lw	a4,4(s1)
   162c8:	0449a783          	lw	a5,68(s3)
   162cc:	50b2                	lw	ra,44(sp)
   162ce:	070a                	slli	a4,a4,0x2
   162d0:	97ba                	add	a5,a5,a4
   162d2:	4398                	lw	a4,0(a5)
   162d4:	c900                	sw	s0,16(a0)
   162d6:	5422                	lw	s0,40(sp)
   162d8:	c098                	sw	a4,0(s1)
   162da:	c384                	sw	s1,0(a5)
   162dc:	5902                	lw	s2,32(sp)
   162de:	5492                	lw	s1,36(sp)
   162e0:	49f2                	lw	s3,28(sp)
   162e2:	4a62                	lw	s4,24(sp)
   162e4:	6145                	addi	sp,sp,48
   162e6:	8082                	ret
   162e8:	4398                	lw	a4,0(a5)
   162ea:	0791                	addi	a5,a5,4
   162ec:	0591                	addi	a1,a1,4
   162ee:	fee5ae23          	sw	a4,-4(a1)
   162f2:	fd07f9e3          	bgeu	a5,a6,162c4 <__lshift+0xac>
   162f6:	4398                	lw	a4,0(a5)
   162f8:	0791                	addi	a5,a5,4
   162fa:	0591                	addi	a1,a1,4
   162fc:	fee5ae23          	sw	a4,-4(a1)
   16300:	ff07e4e3          	bltu	a5,a6,162e8 <__lshift+0xd0>
   16304:	b7c1                	j	162c4 <__lshift+0xac>
   16306:	66ed                	lui	a3,0x1b
   16308:	656d                	lui	a0,0x1b
   1630a:	9a868693          	addi	a3,a3,-1624 # 1a9a8 <__clzsi2+0x96>
   1630e:	a2050513          	addi	a0,a0,-1504 # 1aa20 <__clzsi2+0x10e>
   16312:	4601                	li	a2,0
   16314:	1de00593          	li	a1,478
   16318:	501000ef          	jal	17018 <__assert_func>

0001631c <__mcmp>:
   1631c:	4918                	lw	a4,16(a0)
   1631e:	499c                	lw	a5,16(a1)
   16320:	862a                	mv	a2,a0
   16322:	40f70533          	sub	a0,a4,a5
   16326:	02f71763          	bne	a4,a5,16354 <__mcmp+0x38>
   1632a:	078a                	slli	a5,a5,0x2
   1632c:	0651                	addi	a2,a2,20
   1632e:	05d1                	addi	a1,a1,20
   16330:	95be                	add	a1,a1,a5
   16332:	97b2                	add	a5,a5,a2
   16334:	a019                	j	1633a <__mcmp+0x1e>
   16336:	00f67f63          	bgeu	a2,a5,16354 <__mcmp+0x38>
   1633a:	ffc7a683          	lw	a3,-4(a5)
   1633e:	ffc5a703          	lw	a4,-4(a1)
   16342:	17f1                	addi	a5,a5,-4
   16344:	15f1                	addi	a1,a1,-4
   16346:	fee688e3          	beq	a3,a4,16336 <__mcmp+0x1a>
   1634a:	4505                	li	a0,1
   1634c:	00e6f463          	bgeu	a3,a4,16354 <__mcmp+0x38>
   16350:	557d                	li	a0,-1
   16352:	8082                	ret
   16354:	8082                	ret

00016356 <__mdiff>:
   16356:	4998                	lw	a4,16(a1)
   16358:	4a1c                	lw	a5,16(a2)
   1635a:	1101                	addi	sp,sp,-32
   1635c:	ce06                	sw	ra,28(sp)
   1635e:	8f2e                	mv	t5,a1
   16360:	40f708b3          	sub	a7,a4,a5
   16364:	02f71963          	bne	a4,a5,16396 <__mdiff+0x40>
   16368:	00279693          	slli	a3,a5,0x2
   1636c:	05d1                	addi	a1,a1,20
   1636e:	01460713          	addi	a4,a2,20
   16372:	00d587b3          	add	a5,a1,a3
   16376:	9736                	add	a4,a4,a3
   16378:	a019                	j	1637e <__mdiff+0x28>
   1637a:	10f5ff63          	bgeu	a1,a5,16498 <__mdiff+0x142>
   1637e:	ffc7a803          	lw	a6,-4(a5)
   16382:	ffc72683          	lw	a3,-4(a4)
   16386:	17f1                	addi	a5,a5,-4
   16388:	1771                	addi	a4,a4,-4
   1638a:	fed808e3          	beq	a6,a3,1637a <__mdiff+0x24>
   1638e:	12d87063          	bgeu	a6,a3,164ae <__mdiff+0x158>
   16392:	4885                	li	a7,1
   16394:	a039                	j	163a2 <__mdiff+0x4c>
   16396:	fe08cee3          	bltz	a7,16392 <__mdiff+0x3c>
   1639a:	87b2                	mv	a5,a2
   1639c:	4881                	li	a7,0
   1639e:	862e                	mv	a2,a1
   163a0:	8f3e                	mv	t5,a5
   163a2:	424c                	lw	a1,4(a2)
   163a4:	c67a                	sw	t5,12(sp)
   163a6:	c446                	sw	a7,8(sp)
   163a8:	c232                	sw	a2,4(sp)
   163aa:	302d                	jal	15bd4 <_Balloc>
   163ac:	4612                	lw	a2,4(sp)
   163ae:	48a2                	lw	a7,8(sp)
   163b0:	4f32                	lw	t5,12(sp)
   163b2:	10050d63          	beqz	a0,164cc <__mdiff+0x176>
   163b6:	01062803          	lw	a6,16(a2)
   163ba:	010f2f83          	lw	t6,16(t5)
   163be:	01460293          	addi	t0,a2,20
   163c2:	00281713          	slli	a4,a6,0x2
   163c6:	0f8a                	slli	t6,t6,0x2
   163c8:	014f0613          	addi	a2,t5,20
   163cc:	01450393          	addi	t2,a0,20
   163d0:	01152623          	sw	a7,12(a0)
   163d4:	00e28333          	add	t1,t0,a4
   163d8:	9fb2                	add	t6,t6,a2
   163da:	8e96                	mv	t4,t0
   163dc:	8e1e                	mv	t3,t2
   163de:	4881                	li	a7,0
   163e0:	000ea703          	lw	a4,0(t4)
   163e4:	4214                	lw	a3,0(a2)
   163e6:	0e11                	addi	t3,t3,4
   163e8:	01071793          	slli	a5,a4,0x10
   163ec:	01069593          	slli	a1,a3,0x10
   163f0:	83c1                	srli	a5,a5,0x10
   163f2:	81c1                	srli	a1,a1,0x10
   163f4:	8f8d                	sub	a5,a5,a1
   163f6:	97c6                	add	a5,a5,a7
   163f8:	82c1                	srli	a3,a3,0x10
   163fa:	8341                	srli	a4,a4,0x10
   163fc:	8f15                	sub	a4,a4,a3
   163fe:	4107d693          	srai	a3,a5,0x10
   16402:	9736                	add	a4,a4,a3
   16404:	07c2                	slli	a5,a5,0x10
   16406:	83c1                	srli	a5,a5,0x10
   16408:	01071693          	slli	a3,a4,0x10
   1640c:	8fd5                	or	a5,a5,a3
   1640e:	0611                	addi	a2,a2,4
   16410:	fefe2e23          	sw	a5,-4(t3)
   16414:	0e91                	addi	t4,t4,4
   16416:	41075893          	srai	a7,a4,0x10
   1641a:	fdf663e3          	bltu	a2,t6,163e0 <__mdiff+0x8a>
   1641e:	015f0693          	addi	a3,t5,21
   16422:	4701                	li	a4,0
   16424:	00dfe763          	bltu	t6,a3,16432 <__mdiff+0xdc>
   16428:	41ef8fb3          	sub	t6,t6,t5
   1642c:	1fad                	addi	t6,t6,-21
   1642e:	ffcff713          	andi	a4,t6,-4
   16432:	00e28eb3          	add	t4,t0,a4
   16436:	0e91                	addi	t4,t4,4
   16438:	971e                	add	a4,a4,t2
   1643a:	40538e33          	sub	t3,t2,t0
   1643e:	8676                	mv	a2,t4
   16440:	00470f13          	addi	t5,a4,4
   16444:	026eff63          	bgeu	t4,t1,16482 <__mdiff+0x12c>
   16448:	4214                	lw	a3,0(a2)
   1644a:	01c605b3          	add	a1,a2,t3
   1644e:	0611                	addi	a2,a2,4
   16450:	01069713          	slli	a4,a3,0x10
   16454:	8341                	srli	a4,a4,0x10
   16456:	9746                	add	a4,a4,a7
   16458:	011687b3          	add	a5,a3,a7
   1645c:	8741                	srai	a4,a4,0x10
   1645e:	82c1                	srli	a3,a3,0x10
   16460:	9736                	add	a4,a4,a3
   16462:	07c2                	slli	a5,a5,0x10
   16464:	83c1                	srli	a5,a5,0x10
   16466:	01071693          	slli	a3,a4,0x10
   1646a:	8fd5                	or	a5,a5,a3
   1646c:	c19c                	sw	a5,0(a1)
   1646e:	41075893          	srai	a7,a4,0x10
   16472:	fc666be3          	bltu	a2,t1,16448 <__mdiff+0xf2>
   16476:	fff30713          	addi	a4,t1,-1
   1647a:	41d70733          	sub	a4,a4,t4
   1647e:	9b71                	andi	a4,a4,-4
   16480:	977a                	add	a4,a4,t5
   16482:	e791                	bnez	a5,1648e <__mdiff+0x138>
   16484:	ffc72783          	lw	a5,-4(a4)
   16488:	1771                	addi	a4,a4,-4
   1648a:	187d                	addi	a6,a6,-1
   1648c:	dfe5                	beqz	a5,16484 <__mdiff+0x12e>
   1648e:	40f2                	lw	ra,28(sp)
   16490:	01052823          	sw	a6,16(a0)
   16494:	6105                	addi	sp,sp,32
   16496:	8082                	ret
   16498:	4581                	li	a1,0
   1649a:	f3aff0ef          	jal	15bd4 <_Balloc>
   1649e:	cd01                	beqz	a0,164b6 <__mdiff+0x160>
   164a0:	40f2                	lw	ra,28(sp)
   164a2:	4785                	li	a5,1
   164a4:	00052a23          	sw	zero,20(a0)
   164a8:	c91c                	sw	a5,16(a0)
   164aa:	6105                	addi	sp,sp,32
   164ac:	8082                	ret
   164ae:	87b2                	mv	a5,a2
   164b0:	867a                	mv	a2,t5
   164b2:	8f3e                	mv	t5,a5
   164b4:	b5fd                	j	163a2 <__mdiff+0x4c>
   164b6:	66ed                	lui	a3,0x1b
   164b8:	656d                	lui	a0,0x1b
   164ba:	9a868693          	addi	a3,a3,-1624 # 1a9a8 <__clzsi2+0x96>
   164be:	a2050513          	addi	a0,a0,-1504 # 1aa20 <__clzsi2+0x10e>
   164c2:	4601                	li	a2,0
   164c4:	23700593          	li	a1,567
   164c8:	351000ef          	jal	17018 <__assert_func>
   164cc:	66ed                	lui	a3,0x1b
   164ce:	656d                	lui	a0,0x1b
   164d0:	9a868693          	addi	a3,a3,-1624 # 1a9a8 <__clzsi2+0x96>
   164d4:	a2050513          	addi	a0,a0,-1504 # 1aa20 <__clzsi2+0x10e>
   164d8:	4601                	li	a2,0
   164da:	24500593          	li	a1,581
   164de:	33b000ef          	jal	17018 <__assert_func>

000164e2 <__ulp>:
   164e2:	1141                	addi	sp,sp,-16
   164e4:	a42a                	fsd	fa0,8(sp)
   164e6:	46b2                	lw	a3,12(sp)
   164e8:	7ff007b7          	lui	a5,0x7ff00
   164ec:	fcc00737          	lui	a4,0xfcc00
   164f0:	8ff5                	and	a5,a5,a3
   164f2:	97ba                	add	a5,a5,a4
   164f4:	4701                	li	a4,0
   164f6:	00f05763          	blez	a5,16504 <__ulp+0x22>
   164fa:	c43a                	sw	a4,8(sp)
   164fc:	c63e                	sw	a5,12(sp)
   164fe:	2522                	fld	fa0,8(sp)
   16500:	0141                	addi	sp,sp,16
   16502:	8082                	ret
   16504:	40f007b3          	neg	a5,a5
   16508:	87d1                	srai	a5,a5,0x14
   1650a:	474d                	li	a4,19
   1650c:	00f74c63          	blt	a4,a5,16524 <__ulp+0x42>
   16510:	00080737          	lui	a4,0x80
   16514:	40f757b3          	sra	a5,a4,a5
   16518:	4701                	li	a4,0
   1651a:	c43a                	sw	a4,8(sp)
   1651c:	c63e                	sw	a5,12(sp)
   1651e:	2522                	fld	fa0,8(sp)
   16520:	0141                	addi	sp,sp,16
   16522:	8082                	ret
   16524:	17b1                	addi	a5,a5,-20 # 7fefffec <__BSS_END__+0x7fee3438>
   16526:	46f9                	li	a3,30
   16528:	4705                	li	a4,1
   1652a:	00f6c663          	blt	a3,a5,16536 <__ulp+0x54>
   1652e:	80000737          	lui	a4,0x80000
   16532:	00f75733          	srl	a4,a4,a5
   16536:	4781                	li	a5,0
   16538:	c43a                	sw	a4,8(sp)
   1653a:	c63e                	sw	a5,12(sp)
   1653c:	2522                	fld	fa0,8(sp)
   1653e:	0141                	addi	sp,sp,16
   16540:	8082                	ret

00016542 <__b2d>:
   16542:	7179                	addi	sp,sp,-48
   16544:	d422                	sw	s0,40(sp)
   16546:	4900                	lw	s0,16(a0)
   16548:	d226                	sw	s1,36(sp)
   1654a:	01450493          	addi	s1,a0,20
   1654e:	040a                	slli	s0,s0,0x2
   16550:	9426                	add	s0,s0,s1
   16552:	d04a                	sw	s2,32(sp)
   16554:	ffc42903          	lw	s2,-4(s0)
   16558:	ce4e                	sw	s3,28(sp)
   1655a:	c42e                	sw	a1,8(sp)
   1655c:	854a                	mv	a0,s2
   1655e:	d606                	sw	ra,44(sp)
   16560:	3055                	jal	15e04 <__hi0bits>
   16562:	45a2                	lw	a1,8(sp)
   16564:	02000713          	li	a4,32
   16568:	40a707b3          	sub	a5,a4,a0
   1656c:	c19c                	sw	a5,0(a1)
   1656e:	47a9                	li	a5,10
   16570:	ffc40993          	addi	s3,s0,-4
   16574:	06a7da63          	bge	a5,a0,165e8 <__b2d+0xa6>
   16578:	ff550693          	addi	a3,a0,-11
   1657c:	0334fc63          	bgeu	s1,s3,165b4 <__b2d+0x72>
   16580:	ff842783          	lw	a5,-8(s0)
   16584:	c6a1                	beqz	a3,165cc <__b2d+0x8a>
   16586:	8f15                	sub	a4,a4,a3
   16588:	00d91933          	sll	s2,s2,a3
   1658c:	00e7d633          	srl	a2,a5,a4
   16590:	00c96933          	or	s2,s2,a2
   16594:	3ff00537          	lui	a0,0x3ff00
   16598:	ff840593          	addi	a1,s0,-8
   1659c:	00d797b3          	sll	a5,a5,a3
   165a0:	00a966b3          	or	a3,s2,a0
   165a4:	02b4f863          	bgeu	s1,a1,165d4 <__b2d+0x92>
   165a8:	ff442583          	lw	a1,-12(s0)
   165ac:	00e5d733          	srl	a4,a1,a4
   165b0:	8fd9                	or	a5,a5,a4
   165b2:	a00d                	j	165d4 <__b2d+0x92>
   165b4:	47ad                	li	a5,11
   165b6:	00f50a63          	beq	a0,a5,165ca <__b2d+0x88>
   165ba:	3ff007b7          	lui	a5,0x3ff00
   165be:	00d91933          	sll	s2,s2,a3
   165c2:	00f966b3          	or	a3,s2,a5
   165c6:	4781                	li	a5,0
   165c8:	a031                	j	165d4 <__b2d+0x92>
   165ca:	4781                	li	a5,0
   165cc:	3ff00737          	lui	a4,0x3ff00
   165d0:	00e966b3          	or	a3,s2,a4
   165d4:	50b2                	lw	ra,44(sp)
   165d6:	5422                	lw	s0,40(sp)
   165d8:	c43e                	sw	a5,8(sp)
   165da:	c636                	sw	a3,12(sp)
   165dc:	2522                	fld	fa0,8(sp)
   165de:	5492                	lw	s1,36(sp)
   165e0:	5902                	lw	s2,32(sp)
   165e2:	49f2                	lw	s3,28(sp)
   165e4:	6145                	addi	sp,sp,48
   165e6:	8082                	ret
   165e8:	472d                	li	a4,11
   165ea:	8f09                	sub	a4,a4,a0
   165ec:	3ff007b7          	lui	a5,0x3ff00
   165f0:	00e955b3          	srl	a1,s2,a4
   165f4:	00f5e6b3          	or	a3,a1,a5
   165f8:	4781                	li	a5,0
   165fa:	0134f663          	bgeu	s1,s3,16606 <__b2d+0xc4>
   165fe:	ff842783          	lw	a5,-8(s0)
   16602:	00e7d7b3          	srl	a5,a5,a4
   16606:	0555                	addi	a0,a0,21 # 3ff00015 <__BSS_END__+0x3fee3461>
   16608:	00a91933          	sll	s2,s2,a0
   1660c:	00f967b3          	or	a5,s2,a5
   16610:	b7d1                	j	165d4 <__b2d+0x92>

00016612 <__d2b>:
   16612:	7139                	addi	sp,sp,-64
   16614:	d256                	sw	s5,36(sp)
   16616:	a42a                	fsd	fa0,8(sp)
   16618:	8aae                	mv	s5,a1
   1661a:	4585                	li	a1,1
   1661c:	d84a                	sw	s2,48(sp)
   1661e:	d64e                	sw	s3,44(sp)
   16620:	d452                	sw	s4,40(sp)
   16622:	de06                	sw	ra,60(sp)
   16624:	dc22                	sw	s0,56(sp)
   16626:	da26                	sw	s1,52(sp)
   16628:	4922                	lw	s2,8(sp)
   1662a:	49b2                	lw	s3,12(sp)
   1662c:	8a32                	mv	s4,a2
   1662e:	da6ff0ef          	jal	15bd4 <_Balloc>
   16632:	c55d                	beqz	a0,166e0 <__d2b+0xce>
   16634:	00100737          	lui	a4,0x100
   16638:	0149d413          	srli	s0,s3,0x14
   1663c:	fff70793          	addi	a5,a4,-1 # fffff <__BSS_END__+0xe344b>
   16640:	7ff47413          	andi	s0,s0,2047
   16644:	84aa                	mv	s1,a0
   16646:	0137f7b3          	and	a5,a5,s3
   1664a:	c011                	beqz	s0,1664e <__d2b+0x3c>
   1664c:	8fd9                	or	a5,a5,a4
   1664e:	ce3e                	sw	a5,28(sp)
   16650:	04091163          	bnez	s2,16692 <__d2b+0x80>
   16654:	0868                	addi	a0,sp,28
   16656:	3819                	jal	15e6c <__lo0bits>
   16658:	46f2                	lw	a3,28(sp)
   1665a:	4905                	li	s2,1
   1665c:	0124a823          	sw	s2,16(s1)
   16660:	c8d4                	sw	a3,20(s1)
   16662:	02050713          	addi	a4,a0,32
   16666:	cc31                	beqz	s0,166c2 <__d2b+0xb0>
   16668:	bcd40413          	addi	s0,s0,-1075
   1666c:	943a                	add	s0,s0,a4
   1666e:	03500793          	li	a5,53
   16672:	008aa023          	sw	s0,0(s5)
   16676:	40e78533          	sub	a0,a5,a4
   1667a:	50f2                	lw	ra,60(sp)
   1667c:	5462                	lw	s0,56(sp)
   1667e:	00aa2023          	sw	a0,0(s4)
   16682:	5942                	lw	s2,48(sp)
   16684:	59b2                	lw	s3,44(sp)
   16686:	5a22                	lw	s4,40(sp)
   16688:	5a92                	lw	s5,36(sp)
   1668a:	8526                	mv	a0,s1
   1668c:	54d2                	lw	s1,52(sp)
   1668e:	6121                	addi	sp,sp,64
   16690:	8082                	ret
   16692:	0828                	addi	a0,sp,24
   16694:	cc4a                	sw	s2,24(sp)
   16696:	fd6ff0ef          	jal	15e6c <__lo0bits>
   1669a:	46f2                	lw	a3,28(sp)
   1669c:	4662                	lw	a2,24(sp)
   1669e:	872a                	mv	a4,a0
   166a0:	c909                	beqz	a0,166b2 <__d2b+0xa0>
   166a2:	02000793          	li	a5,32
   166a6:	8f89                	sub	a5,a5,a0
   166a8:	00f697b3          	sll	a5,a3,a5
   166ac:	8e5d                	or	a2,a2,a5
   166ae:	00a6d6b3          	srl	a3,a3,a0
   166b2:	00d03933          	snez	s2,a3
   166b6:	0905                	addi	s2,s2,1
   166b8:	c8d0                	sw	a2,20(s1)
   166ba:	cc94                	sw	a3,24(s1)
   166bc:	0124a823          	sw	s2,16(s1)
   166c0:	f445                	bnez	s0,16668 <__d2b+0x56>
   166c2:	00291693          	slli	a3,s2,0x2
   166c6:	96a6                	add	a3,a3,s1
   166c8:	4a88                	lw	a0,16(a3)
   166ca:	bce70713          	addi	a4,a4,-1074
   166ce:	00eaa023          	sw	a4,0(s5)
   166d2:	f32ff0ef          	jal	15e04 <__hi0bits>
   166d6:	00591793          	slli	a5,s2,0x5
   166da:	40a78533          	sub	a0,a5,a0
   166de:	bf71                	j	1667a <__d2b+0x68>
   166e0:	66ed                	lui	a3,0x1b
   166e2:	656d                	lui	a0,0x1b
   166e4:	9a868693          	addi	a3,a3,-1624 # 1a9a8 <__clzsi2+0x96>
   166e8:	a2050513          	addi	a0,a0,-1504 # 1aa20 <__clzsi2+0x10e>
   166ec:	4601                	li	a2,0
   166ee:	30f00593          	li	a1,783
   166f2:	127000ef          	jal	17018 <__assert_func>

000166f6 <__ratio>:
   166f6:	7139                	addi	sp,sp,-64
   166f8:	dc22                	sw	s0,56(sp)
   166fa:	842e                	mv	s0,a1
   166fc:	082c                	addi	a1,sp,24
   166fe:	de06                	sw	ra,60(sp)
   16700:	da26                	sw	s1,52(sp)
   16702:	d84a                	sw	s2,48(sp)
   16704:	84aa                	mv	s1,a0
   16706:	d64e                	sw	s3,44(sp)
   16708:	3d2d                	jal	16542 <__b2d>
   1670a:	a02a                	fsd	fa0,0(sp)
   1670c:	4782                	lw	a5,0(sp)
   1670e:	086c                	addi	a1,sp,28
   16710:	8522                	mv	a0,s0
   16712:	893e                	mv	s2,a5
   16714:	353d                	jal	16542 <__b2d>
   16716:	4810                	lw	a2,16(s0)
   16718:	489c                	lw	a5,16(s1)
   1671a:	4762                	lw	a4,24(sp)
   1671c:	46f2                	lw	a3,28(sp)
   1671e:	8f91                	sub	a5,a5,a2
   16720:	0796                	slli	a5,a5,0x5
   16722:	8f15                	sub	a4,a4,a3
   16724:	a42a                	fsd	fa0,8(sp)
   16726:	97ba                	add	a5,a5,a4
   16728:	4622                	lw	a2,8(sp)
   1672a:	02f05363          	blez	a5,16750 <__ratio+0x5a>
   1672e:	4712                	lw	a4,4(sp)
   16730:	07d2                	slli	a5,a5,0x14
   16732:	c04a                	sw	s2,0(sp)
   16734:	00e789b3          	add	s3,a5,a4
   16738:	c24e                	sw	s3,4(sp)
   1673a:	2782                	fld	fa5,0(sp)
   1673c:	2722                	fld	fa4,8(sp)
   1673e:	50f2                	lw	ra,60(sp)
   16740:	5462                	lw	s0,56(sp)
   16742:	54d2                	lw	s1,52(sp)
   16744:	5942                	lw	s2,48(sp)
   16746:	59b2                	lw	s3,44(sp)
   16748:	1ae7f553          	fdiv.d	fa0,fa5,fa4
   1674c:	6121                	addi	sp,sp,64
   1674e:	8082                	ret
   16750:	4732                	lw	a4,12(sp)
   16752:	07d2                	slli	a5,a5,0x14
   16754:	c432                	sw	a2,8(sp)
   16756:	40f706b3          	sub	a3,a4,a5
   1675a:	c636                	sw	a3,12(sp)
   1675c:	bff9                	j	1673a <__ratio+0x44>

0001675e <_mprec_log10>:
   1675e:	47dd                	li	a5,23
   16760:	00a7db63          	bge	a5,a0,16776 <_mprec_log10+0x18>
   16764:	ef81b507          	fld	fa0,-264(gp) # 1c828 <__SDATA_BEGIN__+0x30>
   16768:	f001b787          	fld	fa5,-256(gp) # 1c830 <__SDATA_BEGIN__+0x38>
   1676c:	157d                	addi	a0,a0,-1
   1676e:	12f57553          	fmul.d	fa0,fa0,fa5
   16772:	fd6d                	bnez	a0,1676c <_mprec_log10+0xe>
   16774:	8082                	ret
   16776:	67ed                	lui	a5,0x1b
   16778:	050e                	slli	a0,a0,0x3
   1677a:	cc878793          	addi	a5,a5,-824 # 1acc8 <__mprec_tens>
   1677e:	97aa                	add	a5,a5,a0
   16780:	2388                	fld	fa0,0(a5)
   16782:	8082                	ret

00016784 <__copybits>:
   16784:	4a14                	lw	a3,16(a2)
   16786:	15fd                	addi	a1,a1,-1
   16788:	8595                	srai	a1,a1,0x5
   1678a:	0585                	addi	a1,a1,1
   1678c:	068a                	slli	a3,a3,0x2
   1678e:	01460793          	addi	a5,a2,20
   16792:	058a                	slli	a1,a1,0x2
   16794:	96be                	add	a3,a3,a5
   16796:	95aa                	add	a1,a1,a0
   16798:	02d7f063          	bgeu	a5,a3,167b8 <__copybits+0x34>
   1679c:	872a                	mv	a4,a0
   1679e:	0007a803          	lw	a6,0(a5)
   167a2:	0791                	addi	a5,a5,4
   167a4:	0711                	addi	a4,a4,4
   167a6:	ff072e23          	sw	a6,-4(a4)
   167aa:	fed7eae3          	bltu	a5,a3,1679e <__copybits+0x1a>
   167ae:	8e91                	sub	a3,a3,a2
   167b0:	16ad                	addi	a3,a3,-21
   167b2:	9af1                	andi	a3,a3,-4
   167b4:	0511                	addi	a0,a0,4
   167b6:	9536                	add	a0,a0,a3
   167b8:	00b57763          	bgeu	a0,a1,167c6 <__copybits+0x42>
   167bc:	0511                	addi	a0,a0,4
   167be:	fe052e23          	sw	zero,-4(a0)
   167c2:	feb56de3          	bltu	a0,a1,167bc <__copybits+0x38>
   167c6:	8082                	ret

000167c8 <__any_on>:
   167c8:	4918                	lw	a4,16(a0)
   167ca:	4055d613          	srai	a2,a1,0x5
   167ce:	01450693          	addi	a3,a0,20
   167d2:	00c75d63          	bge	a4,a2,167ec <__any_on+0x24>
   167d6:	070a                	slli	a4,a4,0x2
   167d8:	00e687b3          	add	a5,a3,a4
   167dc:	02f6f863          	bgeu	a3,a5,1680c <__any_on+0x44>
   167e0:	ffc7a703          	lw	a4,-4(a5)
   167e4:	17f1                	addi	a5,a5,-4
   167e6:	db7d                	beqz	a4,167dc <__any_on+0x14>
   167e8:	4505                	li	a0,1
   167ea:	8082                	ret
   167ec:	00261793          	slli	a5,a2,0x2
   167f0:	97b6                	add	a5,a5,a3
   167f2:	fee655e3          	bge	a2,a4,167dc <__any_on+0x14>
   167f6:	89fd                	andi	a1,a1,31
   167f8:	d1f5                	beqz	a1,167dc <__any_on+0x14>
   167fa:	4390                	lw	a2,0(a5)
   167fc:	4505                	li	a0,1
   167fe:	00b65733          	srl	a4,a2,a1
   16802:	00b71733          	sll	a4,a4,a1
   16806:	fce60be3          	beq	a2,a4,167dc <__any_on+0x14>
   1680a:	8082                	ret
   1680c:	4501                	li	a0,0
   1680e:	8082                	ret

00016810 <_realloc_r>:
   16810:	16058063          	beqz	a1,16970 <_realloc_r+0x160>
   16814:	1101                	addi	sp,sp,-32
   16816:	cc22                	sw	s0,24(sp)
   16818:	ca26                	sw	s1,20(sp)
   1681a:	842e                	mv	s0,a1
   1681c:	ce06                	sw	ra,28(sp)
   1681e:	84aa                	mv	s1,a0
   16820:	c032                	sw	a2,0(sp)
   16822:	ba3fa0ef          	jal	113c4 <__malloc_lock>
   16826:	4582                	lw	a1,0(sp)
   16828:	4759                	li	a4,22
   1682a:	00b58793          	addi	a5,a1,11
   1682e:	0ef77163          	bgeu	a4,a5,16910 <_realloc_r+0x100>
   16832:	9be1                	andi	a5,a5,-8
   16834:	86be                	mv	a3,a5
   16836:	01f7d713          	srli	a4,a5,0x1f
   1683a:	14b7ef63          	bltu	a5,a1,16998 <_realloc_r+0x188>
   1683e:	14071d63          	bnez	a4,16998 <_realloc_r+0x188>
   16842:	ffc42603          	lw	a2,-4(s0)
   16846:	ff840813          	addi	a6,s0,-8
   1684a:	ffc67713          	andi	a4,a2,-4
   1684e:	0cd75c63          	bge	a4,a3,16926 <_realloc_r+0x116>
   16852:	6e71                	lui	t3,0x1c
   16854:	280e0e13          	addi	t3,t3,640 # 1c280 <__malloc_av_>
   16858:	008e2883          	lw	a7,8(t3)
   1685c:	00e80333          	add	t1,a6,a4
   16860:	00432503          	lw	a0,4(t1)
   16864:	14688363          	beq	a7,t1,169aa <_realloc_r+0x19a>
   16868:	ffe57893          	andi	a7,a0,-2
   1686c:	989a                	add	a7,a7,t1
   1686e:	0048a883          	lw	a7,4(a7)
   16872:	0018f893          	andi	a7,a7,1
   16876:	0e089363          	bnez	a7,1695c <_realloc_r+0x14c>
   1687a:	9971                	andi	a0,a0,-4
   1687c:	00a708b3          	add	a7,a4,a0
   16880:	08d8dc63          	bge	a7,a3,16918 <_realloc_r+0x108>
   16884:	8a05                	andi	a2,a2,1
   16886:	e20d                	bnez	a2,168a8 <_realloc_r+0x98>
   16888:	ff842e83          	lw	t4,-8(s0)
   1688c:	41d80eb3          	sub	t4,a6,t4
   16890:	004ea603          	lw	a2,4(t4)
   16894:	9a71                	andi	a2,a2,-4
   16896:	9532                	add	a0,a0,a2
   16898:	00e508b3          	add	a7,a0,a4
   1689c:	22d8d563          	bge	a7,a3,16ac6 <_realloc_r+0x2b6>
   168a0:	00c708b3          	add	a7,a4,a2
   168a4:	1cd8d363          	bge	a7,a3,16a6a <_realloc_r+0x25a>
   168a8:	8526                	mv	a0,s1
   168aa:	c43a                	sw	a4,8(sp)
   168ac:	c242                	sw	a6,4(sp)
   168ae:	c03e                	sw	a5,0(sp)
   168b0:	d0cfa0ef          	jal	10dbc <_malloc_r>
   168b4:	4782                	lw	a5,0(sp)
   168b6:	4812                	lw	a6,4(sp)
   168b8:	4722                	lw	a4,8(sp)
   168ba:	86aa                	mv	a3,a0
   168bc:	2e050863          	beqz	a0,16bac <_realloc_r+0x39c>
   168c0:	ffc42603          	lw	a2,-4(s0)
   168c4:	ff850593          	addi	a1,a0,-8
   168c8:	9a79                	andi	a2,a2,-2
   168ca:	9642                	add	a2,a2,a6
   168cc:	16b60e63          	beq	a2,a1,16a48 <_realloc_r+0x238>
   168d0:	ffc70613          	addi	a2,a4,-4
   168d4:	02400793          	li	a5,36
   168d8:	1ec7e163          	bltu	a5,a2,16aba <_realloc_r+0x2aa>
   168dc:	474d                	li	a4,19
   168de:	16c76a63          	bltu	a4,a2,16a52 <_realloc_r+0x242>
   168e2:	87aa                	mv	a5,a0
   168e4:	8722                	mv	a4,s0
   168e6:	4310                	lw	a2,0(a4)
   168e8:	c390                	sw	a2,0(a5)
   168ea:	4350                	lw	a2,4(a4)
   168ec:	c3d0                	sw	a2,4(a5)
   168ee:	4718                	lw	a4,8(a4)
   168f0:	c798                	sw	a4,8(a5)
   168f2:	85a2                	mv	a1,s0
   168f4:	8526                	mv	a0,s1
   168f6:	c036                	sw	a3,0(sp)
   168f8:	aa8fa0ef          	jal	10ba0 <_free_r>
   168fc:	8526                	mv	a0,s1
   168fe:	ac9fa0ef          	jal	113c6 <__malloc_unlock>
   16902:	4682                	lw	a3,0(sp)
   16904:	40f2                	lw	ra,28(sp)
   16906:	4462                	lw	s0,24(sp)
   16908:	44d2                	lw	s1,20(sp)
   1690a:	8536                	mv	a0,a3
   1690c:	6105                	addi	sp,sp,32
   1690e:	8082                	ret
   16910:	46c1                	li	a3,16
   16912:	87b6                	mv	a5,a3
   16914:	4701                	li	a4,0
   16916:	b715                	j	1683a <_realloc_r+0x2a>
   16918:	00c32683          	lw	a3,12(t1)
   1691c:	00832603          	lw	a2,8(t1)
   16920:	8746                	mv	a4,a7
   16922:	c654                	sw	a3,12(a2)
   16924:	c690                	sw	a2,8(a3)
   16926:	00482683          	lw	a3,4(a6)
   1692a:	40f70533          	sub	a0,a4,a5
   1692e:	45bd                	li	a1,15
   16930:	8a85                	andi	a3,a3,1
   16932:	00e80633          	add	a2,a6,a4
   16936:	04a5e063          	bltu	a1,a0,16976 <_realloc_r+0x166>
   1693a:	8ed9                	or	a3,a3,a4
   1693c:	00d82223          	sw	a3,4(a6)
   16940:	425c                	lw	a5,4(a2)
   16942:	0017e793          	ori	a5,a5,1
   16946:	c25c                	sw	a5,4(a2)
   16948:	8526                	mv	a0,s1
   1694a:	a7dfa0ef          	jal	113c6 <__malloc_unlock>
   1694e:	86a2                	mv	a3,s0
   16950:	40f2                	lw	ra,28(sp)
   16952:	4462                	lw	s0,24(sp)
   16954:	44d2                	lw	s1,20(sp)
   16956:	8536                	mv	a0,a3
   16958:	6105                	addi	sp,sp,32
   1695a:	8082                	ret
   1695c:	8a05                	andi	a2,a2,1
   1695e:	f629                	bnez	a2,168a8 <_realloc_r+0x98>
   16960:	ff842e83          	lw	t4,-8(s0)
   16964:	41d80eb3          	sub	t4,a6,t4
   16968:	004ea603          	lw	a2,4(t4)
   1696c:	9a71                	andi	a2,a2,-4
   1696e:	bf0d                	j	168a0 <_realloc_r+0x90>
   16970:	85b2                	mv	a1,a2
   16972:	c4afa06f          	j	10dbc <_malloc_r>
   16976:	8edd                	or	a3,a3,a5
   16978:	00d82223          	sw	a3,4(a6)
   1697c:	00f805b3          	add	a1,a6,a5
   16980:	00156513          	ori	a0,a0,1
   16984:	c1c8                	sw	a0,4(a1)
   16986:	425c                	lw	a5,4(a2)
   16988:	05a1                	addi	a1,a1,8
   1698a:	8526                	mv	a0,s1
   1698c:	0017e793          	ori	a5,a5,1
   16990:	c25c                	sw	a5,4(a2)
   16992:	a0efa0ef          	jal	10ba0 <_free_r>
   16996:	bf4d                	j	16948 <_realloc_r+0x138>
   16998:	47b1                	li	a5,12
   1699a:	c09c                	sw	a5,0(s1)
   1699c:	4681                	li	a3,0
   1699e:	40f2                	lw	ra,28(sp)
   169a0:	4462                	lw	s0,24(sp)
   169a2:	44d2                	lw	s1,20(sp)
   169a4:	8536                	mv	a0,a3
   169a6:	6105                	addi	sp,sp,32
   169a8:	8082                	ret
   169aa:	9971                	andi	a0,a0,-4
   169ac:	00e508b3          	add	a7,a0,a4
   169b0:	01078313          	addi	t1,a5,16
   169b4:	1868df63          	bge	a7,t1,16b52 <_realloc_r+0x342>
   169b8:	8a05                	andi	a2,a2,1
   169ba:	ee0617e3          	bnez	a2,168a8 <_realloc_r+0x98>
   169be:	ff842e83          	lw	t4,-8(s0)
   169c2:	41d80eb3          	sub	t4,a6,t4
   169c6:	004ea603          	lw	a2,4(t4)
   169ca:	9a71                	andi	a2,a2,-4
   169cc:	9532                	add	a0,a0,a2
   169ce:	00e508b3          	add	a7,a0,a4
   169d2:	ec68c7e3          	blt	a7,t1,168a0 <_realloc_r+0x90>
   169d6:	00cea683          	lw	a3,12(t4)
   169da:	008ea583          	lw	a1,8(t4)
   169de:	ffc70613          	addi	a2,a4,-4
   169e2:	02400713          	li	a4,36
   169e6:	c5d4                	sw	a3,12(a1)
   169e8:	c68c                	sw	a1,8(a3)
   169ea:	008e8693          	addi	a3,t4,8
   169ee:	1ec76b63          	bltu	a4,a2,16be4 <_realloc_r+0x3d4>
   169f2:	45cd                	li	a1,19
   169f4:	8736                	mv	a4,a3
   169f6:	00c5fe63          	bgeu	a1,a2,16a12 <_realloc_r+0x202>
   169fa:	400c                	lw	a1,0(s0)
   169fc:	476d                	li	a4,27
   169fe:	00bea423          	sw	a1,8(t4)
   16a02:	404c                	lw	a1,4(s0)
   16a04:	00bea623          	sw	a1,12(t4)
   16a08:	20c76963          	bltu	a4,a2,16c1a <_realloc_r+0x40a>
   16a0c:	0421                	addi	s0,s0,8
   16a0e:	010e8713          	addi	a4,t4,16
   16a12:	4010                	lw	a2,0(s0)
   16a14:	c310                	sw	a2,0(a4)
   16a16:	4050                	lw	a2,4(s0)
   16a18:	c350                	sw	a2,4(a4)
   16a1a:	4410                	lw	a2,8(s0)
   16a1c:	c710                	sw	a2,8(a4)
   16a1e:	00fe8633          	add	a2,t4,a5
   16a22:	40f88733          	sub	a4,a7,a5
   16a26:	00ce2423          	sw	a2,8(t3)
   16a2a:	00176713          	ori	a4,a4,1
   16a2e:	c258                	sw	a4,4(a2)
   16a30:	004ea703          	lw	a4,4(t4)
   16a34:	8526                	mv	a0,s1
   16a36:	c036                	sw	a3,0(sp)
   16a38:	8b05                	andi	a4,a4,1
   16a3a:	8fd9                	or	a5,a5,a4
   16a3c:	00fea223          	sw	a5,4(t4)
   16a40:	987fa0ef          	jal	113c6 <__malloc_unlock>
   16a44:	4682                	lw	a3,0(sp)
   16a46:	b729                	j	16950 <_realloc_r+0x140>
   16a48:	ffc52683          	lw	a3,-4(a0)
   16a4c:	9af1                	andi	a3,a3,-4
   16a4e:	9736                	add	a4,a4,a3
   16a50:	bdd9                	j	16926 <_realloc_r+0x116>
   16a52:	400c                	lw	a1,0(s0)
   16a54:	476d                	li	a4,27
   16a56:	c10c                	sw	a1,0(a0)
   16a58:	404c                	lw	a1,4(s0)
   16a5a:	c14c                	sw	a1,4(a0)
   16a5c:	0cc76363          	bltu	a4,a2,16b22 <_realloc_r+0x312>
   16a60:	00840713          	addi	a4,s0,8
   16a64:	00850793          	addi	a5,a0,8
   16a68:	bdbd                	j	168e6 <_realloc_r+0xd6>
   16a6a:	00cea683          	lw	a3,12(t4)
   16a6e:	008ea583          	lw	a1,8(t4)
   16a72:	ffc70613          	addi	a2,a4,-4
   16a76:	02400513          	li	a0,36
   16a7a:	c5d4                	sw	a3,12(a1)
   16a7c:	c68c                	sw	a1,8(a3)
   16a7e:	008e8693          	addi	a3,t4,8
   16a82:	0ac56b63          	bltu	a0,a2,16b38 <_realloc_r+0x328>
   16a86:	45cd                	li	a1,19
   16a88:	8736                	mv	a4,a3
   16a8a:	00c5fe63          	bgeu	a1,a2,16aa6 <_realloc_r+0x296>
   16a8e:	400c                	lw	a1,0(s0)
   16a90:	476d                	li	a4,27
   16a92:	00bea423          	sw	a1,8(t4)
   16a96:	404c                	lw	a1,4(s0)
   16a98:	00bea623          	sw	a1,12(t4)
   16a9c:	0ec76c63          	bltu	a4,a2,16b94 <_realloc_r+0x384>
   16aa0:	0421                	addi	s0,s0,8
   16aa2:	010e8713          	addi	a4,t4,16
   16aa6:	4010                	lw	a2,0(s0)
   16aa8:	c310                	sw	a2,0(a4)
   16aaa:	4050                	lw	a2,4(s0)
   16aac:	c350                	sw	a2,4(a4)
   16aae:	4410                	lw	a2,8(s0)
   16ab0:	c710                	sw	a2,8(a4)
   16ab2:	8436                	mv	s0,a3
   16ab4:	8746                	mv	a4,a7
   16ab6:	8876                	mv	a6,t4
   16ab8:	b5bd                	j	16926 <_realloc_r+0x116>
   16aba:	85a2                	mv	a1,s0
   16abc:	c02a                	sw	a0,0(sp)
   16abe:	caafd0ef          	jal	13f68 <memmove>
   16ac2:	4682                	lw	a3,0(sp)
   16ac4:	b53d                	j	168f2 <_realloc_r+0xe2>
   16ac6:	00c32683          	lw	a3,12(t1)
   16aca:	00832583          	lw	a1,8(t1)
   16ace:	ffc70613          	addi	a2,a4,-4
   16ad2:	02400513          	li	a0,36
   16ad6:	c5d4                	sw	a3,12(a1)
   16ad8:	c68c                	sw	a1,8(a3)
   16ada:	00cea703          	lw	a4,12(t4)
   16ade:	008ea683          	lw	a3,8(t4)
   16ae2:	008e8813          	addi	a6,t4,8
   16ae6:	c6d8                	sw	a4,12(a3)
   16ae8:	c714                	sw	a3,8(a4)
   16aea:	08c56863          	bltu	a0,a2,16b7a <_realloc_r+0x36a>
   16aee:	46cd                	li	a3,19
   16af0:	8742                	mv	a4,a6
   16af2:	00c6fe63          	bgeu	a3,a2,16b0e <_realloc_r+0x2fe>
   16af6:	4014                	lw	a3,0(s0)
   16af8:	476d                	li	a4,27
   16afa:	00dea423          	sw	a3,8(t4)
   16afe:	4054                	lw	a3,4(s0)
   16b00:	00dea623          	sw	a3,12(t4)
   16b04:	0cc76263          	bltu	a4,a2,16bc8 <_realloc_r+0x3b8>
   16b08:	0421                	addi	s0,s0,8
   16b0a:	010e8713          	addi	a4,t4,16
   16b0e:	4014                	lw	a3,0(s0)
   16b10:	c314                	sw	a3,0(a4)
   16b12:	4054                	lw	a3,4(s0)
   16b14:	c354                	sw	a3,4(a4)
   16b16:	4414                	lw	a3,8(s0)
   16b18:	c714                	sw	a3,8(a4)
   16b1a:	8442                	mv	s0,a6
   16b1c:	8746                	mv	a4,a7
   16b1e:	8876                	mv	a6,t4
   16b20:	b519                	j	16926 <_realloc_r+0x116>
   16b22:	4418                	lw	a4,8(s0)
   16b24:	c518                	sw	a4,8(a0)
   16b26:	4458                	lw	a4,12(s0)
   16b28:	c558                	sw	a4,12(a0)
   16b2a:	08f60663          	beq	a2,a5,16bb6 <_realloc_r+0x3a6>
   16b2e:	01040713          	addi	a4,s0,16
   16b32:	01050793          	addi	a5,a0,16
   16b36:	bb45                	j	168e6 <_realloc_r+0xd6>
   16b38:	8536                	mv	a0,a3
   16b3a:	85a2                	mv	a1,s0
   16b3c:	c676                	sw	t4,12(sp)
   16b3e:	c43e                	sw	a5,8(sp)
   16b40:	c246                	sw	a7,4(sp)
   16b42:	c036                	sw	a3,0(sp)
   16b44:	c24fd0ef          	jal	13f68 <memmove>
   16b48:	4eb2                	lw	t4,12(sp)
   16b4a:	47a2                	lw	a5,8(sp)
   16b4c:	4892                	lw	a7,4(sp)
   16b4e:	4682                	lw	a3,0(sp)
   16b50:	b78d                	j	16ab2 <_realloc_r+0x2a2>
   16b52:	983e                	add	a6,a6,a5
   16b54:	40f88733          	sub	a4,a7,a5
   16b58:	010e2423          	sw	a6,8(t3)
   16b5c:	00176713          	ori	a4,a4,1
   16b60:	00e82223          	sw	a4,4(a6)
   16b64:	ffc42703          	lw	a4,-4(s0)
   16b68:	8526                	mv	a0,s1
   16b6a:	8b05                	andi	a4,a4,1
   16b6c:	8fd9                	or	a5,a5,a4
   16b6e:	fef42e23          	sw	a5,-4(s0)
   16b72:	855fa0ef          	jal	113c6 <__malloc_unlock>
   16b76:	86a2                	mv	a3,s0
   16b78:	bbe1                	j	16950 <_realloc_r+0x140>
   16b7a:	8542                	mv	a0,a6
   16b7c:	85a2                	mv	a1,s0
   16b7e:	c676                	sw	t4,12(sp)
   16b80:	c43e                	sw	a5,8(sp)
   16b82:	c246                	sw	a7,4(sp)
   16b84:	c042                	sw	a6,0(sp)
   16b86:	be2fd0ef          	jal	13f68 <memmove>
   16b8a:	4802                	lw	a6,0(sp)
   16b8c:	4892                	lw	a7,4(sp)
   16b8e:	47a2                	lw	a5,8(sp)
   16b90:	4eb2                	lw	t4,12(sp)
   16b92:	b761                	j	16b1a <_realloc_r+0x30a>
   16b94:	4418                	lw	a4,8(s0)
   16b96:	00eea823          	sw	a4,16(t4)
   16b9a:	4458                	lw	a4,12(s0)
   16b9c:	00eeaa23          	sw	a4,20(t4)
   16ba0:	06a60263          	beq	a2,a0,16c04 <_realloc_r+0x3f4>
   16ba4:	0441                	addi	s0,s0,16
   16ba6:	018e8713          	addi	a4,t4,24
   16baa:	bdf5                	j	16aa6 <_realloc_r+0x296>
   16bac:	8526                	mv	a0,s1
   16bae:	819fa0ef          	jal	113c6 <__malloc_unlock>
   16bb2:	4681                	li	a3,0
   16bb4:	b3ed                	j	1699e <_realloc_r+0x18e>
   16bb6:	4810                	lw	a2,16(s0)
   16bb8:	01840713          	addi	a4,s0,24
   16bbc:	01850793          	addi	a5,a0,24
   16bc0:	c910                	sw	a2,16(a0)
   16bc2:	4850                	lw	a2,20(s0)
   16bc4:	c950                	sw	a2,20(a0)
   16bc6:	b305                	j	168e6 <_realloc_r+0xd6>
   16bc8:	4414                	lw	a3,8(s0)
   16bca:	02400713          	li	a4,36
   16bce:	00dea823          	sw	a3,16(t4)
   16bd2:	4454                	lw	a3,12(s0)
   16bd4:	00deaa23          	sw	a3,20(t4)
   16bd8:	04e60f63          	beq	a2,a4,16c36 <_realloc_r+0x426>
   16bdc:	0441                	addi	s0,s0,16
   16bde:	018e8713          	addi	a4,t4,24
   16be2:	b735                	j	16b0e <_realloc_r+0x2fe>
   16be4:	8536                	mv	a0,a3
   16be6:	85a2                	mv	a1,s0
   16be8:	c676                	sw	t4,12(sp)
   16bea:	c43e                	sw	a5,8(sp)
   16bec:	c246                	sw	a7,4(sp)
   16bee:	c036                	sw	a3,0(sp)
   16bf0:	b78fd0ef          	jal	13f68 <memmove>
   16bf4:	67f1                	lui	a5,0x1c
   16bf6:	28078e13          	addi	t3,a5,640 # 1c280 <__malloc_av_>
   16bfa:	4eb2                	lw	t4,12(sp)
   16bfc:	47a2                	lw	a5,8(sp)
   16bfe:	4892                	lw	a7,4(sp)
   16c00:	4682                	lw	a3,0(sp)
   16c02:	bd31                	j	16a1e <_realloc_r+0x20e>
   16c04:	4810                	lw	a2,16(s0)
   16c06:	020e8713          	addi	a4,t4,32
   16c0a:	0461                	addi	s0,s0,24
   16c0c:	00ceac23          	sw	a2,24(t4)
   16c10:	ffc42603          	lw	a2,-4(s0)
   16c14:	00ceae23          	sw	a2,28(t4)
   16c18:	b579                	j	16aa6 <_realloc_r+0x296>
   16c1a:	440c                	lw	a1,8(s0)
   16c1c:	02400713          	li	a4,36
   16c20:	00bea823          	sw	a1,16(t4)
   16c24:	444c                	lw	a1,12(s0)
   16c26:	00beaa23          	sw	a1,20(t4)
   16c2a:	02e60163          	beq	a2,a4,16c4c <_realloc_r+0x43c>
   16c2e:	0441                	addi	s0,s0,16
   16c30:	018e8713          	addi	a4,t4,24
   16c34:	bbf9                	j	16a12 <_realloc_r+0x202>
   16c36:	4814                	lw	a3,16(s0)
   16c38:	020e8713          	addi	a4,t4,32
   16c3c:	0461                	addi	s0,s0,24
   16c3e:	00deac23          	sw	a3,24(t4)
   16c42:	ffc42683          	lw	a3,-4(s0)
   16c46:	00deae23          	sw	a3,28(t4)
   16c4a:	b5d1                	j	16b0e <_realloc_r+0x2fe>
   16c4c:	4810                	lw	a2,16(s0)
   16c4e:	020e8713          	addi	a4,t4,32
   16c52:	00ceac23          	sw	a2,24(t4)
   16c56:	4850                	lw	a2,20(s0)
   16c58:	0461                	addi	s0,s0,24
   16c5a:	00ceae23          	sw	a2,28(t4)
   16c5e:	bb55                	j	16a12 <_realloc_r+0x202>

00016c60 <__smakebuf_r>:
   16c60:	00c59783          	lh	a5,12(a1)
   16c64:	0027f713          	andi	a4,a5,2
   16c68:	cb01                	beqz	a4,16c78 <__smakebuf_r+0x18>
   16c6a:	04358793          	addi	a5,a1,67
   16c6e:	4705                	li	a4,1
   16c70:	c19c                	sw	a5,0(a1)
   16c72:	c99c                	sw	a5,16(a1)
   16c74:	c9d8                	sw	a4,20(a1)
   16c76:	8082                	ret
   16c78:	872e                	mv	a4,a1
   16c7a:	00e59583          	lh	a1,14(a1)
   16c7e:	7119                	addi	sp,sp,-128
   16c80:	dca2                	sw	s0,120(sp)
   16c82:	de86                	sw	ra,124(sp)
   16c84:	842a                	mv	s0,a0
   16c86:	0605c663          	bltz	a1,16cf2 <__smakebuf_r+0x92>
   16c8a:	0830                	addi	a2,sp,24
   16c8c:	c43a                	sw	a4,8(sp)
   16c8e:	2411                	jal	16e92 <_fstat_r>
   16c90:	4722                	lw	a4,8(sp)
   16c92:	04054e63          	bltz	a0,16cee <__smakebuf_r+0x8e>
   16c96:	40000593          	li	a1,1024
   16c9a:	8522                	mv	a0,s0
   16c9c:	daa6                	sw	s1,116(sp)
   16c9e:	c43a                	sw	a4,8(sp)
   16ca0:	44f2                	lw	s1,28(sp)
   16ca2:	91afa0ef          	jal	10dbc <_malloc_r>
   16ca6:	4722                	lw	a4,8(sp)
   16ca8:	00c71783          	lh	a5,12(a4)
   16cac:	c541                	beqz	a0,16d34 <__smakebuf_r+0xd4>
   16cae:	40000693          	li	a3,1024
   16cb2:	0807e793          	ori	a5,a5,128
   16cb6:	cb54                	sw	a3,20(a4)
   16cb8:	40c4d693          	srai	a3,s1,0xc
   16cbc:	00f71623          	sh	a5,12(a4)
   16cc0:	c308                	sw	a0,0(a4)
   16cc2:	cb08                	sw	a0,16(a4)
   16cc4:	8abd                	andi	a3,a3,15
   16cc6:	4609                	li	a2,2
   16cc8:	08c69663          	bne	a3,a2,16d54 <__smakebuf_r+0xf4>
   16ccc:	00e71583          	lh	a1,14(a4)
   16cd0:	8522                	mv	a0,s0
   16cd2:	c43a                	sw	a4,8(sp)
   16cd4:	2ae5                	jal	16ecc <_isatty_r>
   16cd6:	4722                	lw	a4,8(sp)
   16cd8:	00c71783          	lh	a5,12(a4)
   16cdc:	cd25                	beqz	a0,16d54 <__smakebuf_r+0xf4>
   16cde:	9bf1                	andi	a5,a5,-4
   16ce0:	6685                	lui	a3,0x1
   16ce2:	54d6                	lw	s1,116(sp)
   16ce4:	0017e793          	ori	a5,a5,1
   16ce8:	80068693          	addi	a3,a3,-2048 # 800 <exit-0xf8b4>
   16cec:	a82d                	j	16d26 <__smakebuf_r+0xc6>
   16cee:	00c71783          	lh	a5,12(a4)
   16cf2:	0807f793          	andi	a5,a5,128
   16cf6:	0017b793          	seqz	a5,a5
   16cfa:	40f007b3          	neg	a5,a5
   16cfe:	3c07f593          	andi	a1,a5,960
   16d02:	04058593          	addi	a1,a1,64
   16d06:	8522                	mv	a0,s0
   16d08:	c63a                	sw	a4,12(sp)
   16d0a:	c42e                	sw	a1,8(sp)
   16d0c:	8b0fa0ef          	jal	10dbc <_malloc_r>
   16d10:	4732                	lw	a4,12(sp)
   16d12:	45a2                	lw	a1,8(sp)
   16d14:	00c71783          	lh	a5,12(a4)
   16d18:	cd19                	beqz	a0,16d36 <__smakebuf_r+0xd6>
   16d1a:	0807e793          	ori	a5,a5,128
   16d1e:	c308                	sw	a0,0(a4)
   16d20:	cb08                	sw	a0,16(a4)
   16d22:	cb4c                	sw	a1,20(a4)
   16d24:	4681                	li	a3,0
   16d26:	8fd5                	or	a5,a5,a3
   16d28:	00f71623          	sh	a5,12(a4)
   16d2c:	50f6                	lw	ra,124(sp)
   16d2e:	5466                	lw	s0,120(sp)
   16d30:	6109                	addi	sp,sp,128
   16d32:	8082                	ret
   16d34:	54d6                	lw	s1,116(sp)
   16d36:	2007f693          	andi	a3,a5,512
   16d3a:	faed                	bnez	a3,16d2c <__smakebuf_r+0xcc>
   16d3c:	9bf1                	andi	a5,a5,-4
   16d3e:	04370693          	addi	a3,a4,67
   16d42:	0027e793          	ori	a5,a5,2
   16d46:	4605                	li	a2,1
   16d48:	00f71623          	sh	a5,12(a4)
   16d4c:	c314                	sw	a3,0(a4)
   16d4e:	cb14                	sw	a3,16(a4)
   16d50:	cb50                	sw	a2,20(a4)
   16d52:	bfe9                	j	16d2c <__smakebuf_r+0xcc>
   16d54:	6685                	lui	a3,0x1
   16d56:	54d6                	lw	s1,116(sp)
   16d58:	80068693          	addi	a3,a3,-2048 # 800 <exit-0xf8b4>
   16d5c:	b7e9                	j	16d26 <__smakebuf_r+0xc6>

00016d5e <__swhatbuf_r>:
   16d5e:	87ae                	mv	a5,a1
   16d60:	00e59583          	lh	a1,14(a1)
   16d64:	8732                	mv	a4,a2
   16d66:	0405cd63          	bltz	a1,16dc0 <__swhatbuf_r+0x62>
   16d6a:	7119                	addi	sp,sp,-128
   16d6c:	c432                	sw	a2,8(sp)
   16d6e:	0830                	addi	a2,sp,24
   16d70:	c636                	sw	a3,12(sp)
   16d72:	c23e                	sw	a5,4(sp)
   16d74:	de86                	sw	ra,124(sp)
   16d76:	2a31                	jal	16e92 <_fstat_r>
   16d78:	4792                	lw	a5,4(sp)
   16d7a:	4722                	lw	a4,8(sp)
   16d7c:	46b2                	lw	a3,12(sp)
   16d7e:	02054363          	bltz	a0,16da4 <__swhatbuf_r+0x46>
   16d82:	47f2                	lw	a5,28(sp)
   16d84:	65bd                	lui	a1,0xf
   16d86:	7679                	lui	a2,0xffffe
   16d88:	8fed                	and	a5,a5,a1
   16d8a:	97b2                	add	a5,a5,a2
   16d8c:	50f6                	lw	ra,124(sp)
   16d8e:	0017b793          	seqz	a5,a5
   16d92:	c29c                	sw	a5,0(a3)
   16d94:	40000613          	li	a2,1024
   16d98:	6505                	lui	a0,0x1
   16d9a:	c310                	sw	a2,0(a4)
   16d9c:	80050513          	addi	a0,a0,-2048 # 800 <exit-0xf8b4>
   16da0:	6109                	addi	sp,sp,128
   16da2:	8082                	ret
   16da4:	00c7d783          	lhu	a5,12(a5)
   16da8:	0807f793          	andi	a5,a5,128
   16dac:	c78d                	beqz	a5,16dd6 <__swhatbuf_r+0x78>
   16dae:	50f6                	lw	ra,124(sp)
   16db0:	4781                	li	a5,0
   16db2:	c29c                	sw	a5,0(a3)
   16db4:	04000613          	li	a2,64
   16db8:	c310                	sw	a2,0(a4)
   16dba:	4501                	li	a0,0
   16dbc:	6109                	addi	sp,sp,128
   16dbe:	8082                	ret
   16dc0:	00c7d783          	lhu	a5,12(a5)
   16dc4:	0807f793          	andi	a5,a5,128
   16dc8:	ef99                	bnez	a5,16de6 <__swhatbuf_r+0x88>
   16dca:	40000613          	li	a2,1024
   16dce:	c29c                	sw	a5,0(a3)
   16dd0:	4501                	li	a0,0
   16dd2:	c310                	sw	a2,0(a4)
   16dd4:	8082                	ret
   16dd6:	50f6                	lw	ra,124(sp)
   16dd8:	c29c                	sw	a5,0(a3)
   16dda:	40000613          	li	a2,1024
   16dde:	c310                	sw	a2,0(a4)
   16de0:	4501                	li	a0,0
   16de2:	6109                	addi	sp,sp,128
   16de4:	8082                	ret
   16de6:	4781                	li	a5,0
   16de8:	04000613          	li	a2,64
   16dec:	c29c                	sw	a5,0(a3)
   16dee:	4501                	li	a0,0
   16df0:	c310                	sw	a2,0(a4)
   16df2:	8082                	ret

00016df4 <_setlocale_r>:
   16df4:	c215                	beqz	a2,16e18 <_setlocale_r+0x24>
   16df6:	65ed                	lui	a1,0x1b
   16df8:	1101                	addi	sp,sp,-32
   16dfa:	a8058593          	addi	a1,a1,-1408 # 1aa80 <__clzsi2+0x16e>
   16dfe:	8532                	mv	a0,a2
   16e00:	cc22                	sw	s0,24(sp)
   16e02:	ce06                	sw	ra,28(sp)
   16e04:	8432                	mv	s0,a2
   16e06:	28f5                	jal	16f02 <strcmp>
   16e08:	67ed                	lui	a5,0x1b
   16e0a:	e919                	bnez	a0,16e20 <_setlocale_r+0x2c>
   16e0c:	a7c78513          	addi	a0,a5,-1412 # 1aa7c <__clzsi2+0x16a>
   16e10:	40f2                	lw	ra,28(sp)
   16e12:	4462                	lw	s0,24(sp)
   16e14:	6105                	addi	sp,sp,32
   16e16:	8082                	ret
   16e18:	67ed                	lui	a5,0x1b
   16e1a:	a7c78513          	addi	a0,a5,-1412 # 1aa7c <__clzsi2+0x16a>
   16e1e:	8082                	ret
   16e20:	a7c78593          	addi	a1,a5,-1412
   16e24:	8522                	mv	a0,s0
   16e26:	c63e                	sw	a5,12(sp)
   16e28:	28e9                	jal	16f02 <strcmp>
   16e2a:	47b2                	lw	a5,12(sp)
   16e2c:	d165                	beqz	a0,16e0c <_setlocale_r+0x18>
   16e2e:	65ed                	lui	a1,0x1b
   16e30:	8522                	mv	a0,s0
   16e32:	a9858593          	addi	a1,a1,-1384 # 1aa98 <__clzsi2+0x186>
   16e36:	20f1                	jal	16f02 <strcmp>
   16e38:	47b2                	lw	a5,12(sp)
   16e3a:	d969                	beqz	a0,16e0c <_setlocale_r+0x18>
   16e3c:	4501                	li	a0,0
   16e3e:	bfc9                	j	16e10 <_setlocale_r+0x1c>

00016e40 <__locale_mb_cur_max>:
   16e40:	e801c503          	lbu	a0,-384(gp) # 1c7b0 <__global_locale+0x128>
   16e44:	8082                	ret

00016e46 <setlocale>:
   16e46:	c195                	beqz	a1,16e6a <setlocale+0x24>
   16e48:	1101                	addi	sp,sp,-32
   16e4a:	cc22                	sw	s0,24(sp)
   16e4c:	852e                	mv	a0,a1
   16e4e:	842e                	mv	s0,a1
   16e50:	65ed                	lui	a1,0x1b
   16e52:	a8058593          	addi	a1,a1,-1408 # 1aa80 <__clzsi2+0x16e>
   16e56:	ce06                	sw	ra,28(sp)
   16e58:	206d                	jal	16f02 <strcmp>
   16e5a:	67ed                	lui	a5,0x1b
   16e5c:	e919                	bnez	a0,16e72 <setlocale+0x2c>
   16e5e:	a7c78513          	addi	a0,a5,-1412 # 1aa7c <__clzsi2+0x16a>
   16e62:	40f2                	lw	ra,28(sp)
   16e64:	4462                	lw	s0,24(sp)
   16e66:	6105                	addi	sp,sp,32
   16e68:	8082                	ret
   16e6a:	67ed                	lui	a5,0x1b
   16e6c:	a7c78513          	addi	a0,a5,-1412 # 1aa7c <__clzsi2+0x16a>
   16e70:	8082                	ret
   16e72:	a7c78593          	addi	a1,a5,-1412
   16e76:	8522                	mv	a0,s0
   16e78:	c63e                	sw	a5,12(sp)
   16e7a:	2061                	jal	16f02 <strcmp>
   16e7c:	47b2                	lw	a5,12(sp)
   16e7e:	d165                	beqz	a0,16e5e <setlocale+0x18>
   16e80:	65ed                	lui	a1,0x1b
   16e82:	8522                	mv	a0,s0
   16e84:	a9858593          	addi	a1,a1,-1384 # 1aa98 <__clzsi2+0x186>
   16e88:	28ad                	jal	16f02 <strcmp>
   16e8a:	47b2                	lw	a5,12(sp)
   16e8c:	d969                	beqz	a0,16e5e <setlocale+0x18>
   16e8e:	4501                	li	a0,0
   16e90:	bfc9                	j	16e62 <setlocale+0x1c>

00016e92 <_fstat_r>:
   16e92:	1141                	addi	sp,sp,-16
   16e94:	87ae                	mv	a5,a1
   16e96:	c422                	sw	s0,8(sp)
   16e98:	c226                	sw	s1,4(sp)
   16e9a:	85b2                	mv	a1,a2
   16e9c:	84aa                	mv	s1,a0
   16e9e:	853e                	mv	a0,a5
   16ea0:	c606                	sw	ra,12(sp)
   16ea2:	f401a623          	sw	zero,-180(gp) # 1c87c <errno>
   16ea6:	59a010ef          	jal	18440 <_fstat>
   16eaa:	57fd                	li	a5,-1
   16eac:	00f50763          	beq	a0,a5,16eba <_fstat_r+0x28>
   16eb0:	40b2                	lw	ra,12(sp)
   16eb2:	4422                	lw	s0,8(sp)
   16eb4:	4492                	lw	s1,4(sp)
   16eb6:	0141                	addi	sp,sp,16
   16eb8:	8082                	ret
   16eba:	f4c1a783          	lw	a5,-180(gp) # 1c87c <errno>
   16ebe:	dbed                	beqz	a5,16eb0 <_fstat_r+0x1e>
   16ec0:	40b2                	lw	ra,12(sp)
   16ec2:	4422                	lw	s0,8(sp)
   16ec4:	c09c                	sw	a5,0(s1)
   16ec6:	4492                	lw	s1,4(sp)
   16ec8:	0141                	addi	sp,sp,16
   16eca:	8082                	ret

00016ecc <_isatty_r>:
   16ecc:	1141                	addi	sp,sp,-16
   16ece:	c422                	sw	s0,8(sp)
   16ed0:	c226                	sw	s1,4(sp)
   16ed2:	84aa                	mv	s1,a0
   16ed4:	852e                	mv	a0,a1
   16ed6:	c606                	sw	ra,12(sp)
   16ed8:	f401a623          	sw	zero,-180(gp) # 1c87c <errno>
   16edc:	5a0010ef          	jal	1847c <_isatty>
   16ee0:	57fd                	li	a5,-1
   16ee2:	00f50763          	beq	a0,a5,16ef0 <_isatty_r+0x24>
   16ee6:	40b2                	lw	ra,12(sp)
   16ee8:	4422                	lw	s0,8(sp)
   16eea:	4492                	lw	s1,4(sp)
   16eec:	0141                	addi	sp,sp,16
   16eee:	8082                	ret
   16ef0:	f4c1a783          	lw	a5,-180(gp) # 1c87c <errno>
   16ef4:	dbed                	beqz	a5,16ee6 <_isatty_r+0x1a>
   16ef6:	40b2                	lw	ra,12(sp)
   16ef8:	4422                	lw	s0,8(sp)
   16efa:	c09c                	sw	a5,0(s1)
   16efc:	4492                	lw	s1,4(sp)
   16efe:	0141                	addi	sp,sp,16
   16f00:	8082                	ret

00016f02 <strcmp>:
   16f02:	53fd                	li	t2,-1
   16f04:	7f7f87b7          	lui	a5,0x7f7f8
   16f08:	f7f78793          	addi	a5,a5,-129 # 7f7f7f7f <__BSS_END__+0x7f7db3cb>
   16f0c:	4110                	lw	a2,0(a0)
   16f0e:	4194                	lw	a3,0(a1)
   16f10:	00f67733          	and	a4,a2,a5
   16f14:	00f66333          	or	t1,a2,a5
   16f18:	973e                	add	a4,a4,a5
   16f1a:	00676733          	or	a4,a4,t1
   16f1e:	0c771763          	bne	a4,t2,16fec <strcmp+0xea>
   16f22:	06d61863          	bne	a2,a3,16f92 <strcmp+0x90>
   16f26:	4150                	lw	a2,4(a0)
   16f28:	41d4                	lw	a3,4(a1)
   16f2a:	00f67733          	and	a4,a2,a5
   16f2e:	00f66333          	or	t1,a2,a5
   16f32:	973e                	add	a4,a4,a5
   16f34:	00676733          	or	a4,a4,t1
   16f38:	0a771863          	bne	a4,t2,16fe8 <strcmp+0xe6>
   16f3c:	04d61b63          	bne	a2,a3,16f92 <strcmp+0x90>
   16f40:	4510                	lw	a2,8(a0)
   16f42:	4594                	lw	a3,8(a1)
   16f44:	00f67733          	and	a4,a2,a5
   16f48:	00f66333          	or	t1,a2,a5
   16f4c:	973e                	add	a4,a4,a5
   16f4e:	00676733          	or	a4,a4,t1
   16f52:	0a771163          	bne	a4,t2,16ff4 <strcmp+0xf2>
   16f56:	02d61e63          	bne	a2,a3,16f92 <strcmp+0x90>
   16f5a:	4550                	lw	a2,12(a0)
   16f5c:	45d4                	lw	a3,12(a1)
   16f5e:	00f67733          	and	a4,a2,a5
   16f62:	00f66333          	or	t1,a2,a5
   16f66:	973e                	add	a4,a4,a5
   16f68:	00676733          	or	a4,a4,t1
   16f6c:	08771a63          	bne	a4,t2,17000 <strcmp+0xfe>
   16f70:	02d61163          	bne	a2,a3,16f92 <strcmp+0x90>
   16f74:	4910                	lw	a2,16(a0)
   16f76:	4994                	lw	a3,16(a1)
   16f78:	00f67733          	and	a4,a2,a5
   16f7c:	00f66333          	or	t1,a2,a5
   16f80:	973e                	add	a4,a4,a5
   16f82:	00676733          	or	a4,a4,t1
   16f86:	08771363          	bne	a4,t2,1700c <strcmp+0x10a>
   16f8a:	0551                	addi	a0,a0,20
   16f8c:	05d1                	addi	a1,a1,20
   16f8e:	f6d60fe3          	beq	a2,a3,16f0c <strcmp+0xa>
   16f92:	01061713          	slli	a4,a2,0x10
   16f96:	01069793          	slli	a5,a3,0x10
   16f9a:	00f71c63          	bne	a4,a5,16fb2 <strcmp+0xb0>
   16f9e:	01065713          	srli	a4,a2,0x10
   16fa2:	0106d793          	srli	a5,a3,0x10
   16fa6:	40f70533          	sub	a0,a4,a5
   16faa:	0ff57593          	zext.b	a1,a0
   16fae:	e991                	bnez	a1,16fc2 <strcmp+0xc0>
   16fb0:	8082                	ret
   16fb2:	8341                	srli	a4,a4,0x10
   16fb4:	83c1                	srli	a5,a5,0x10
   16fb6:	40f70533          	sub	a0,a4,a5
   16fba:	0ff57593          	zext.b	a1,a0
   16fbe:	e191                	bnez	a1,16fc2 <strcmp+0xc0>
   16fc0:	8082                	ret
   16fc2:	0ff77713          	zext.b	a4,a4
   16fc6:	0ff7f793          	zext.b	a5,a5
   16fca:	40f70533          	sub	a0,a4,a5
   16fce:	8082                	ret
   16fd0:	00054603          	lbu	a2,0(a0)
   16fd4:	0005c683          	lbu	a3,0(a1)
   16fd8:	0505                	addi	a0,a0,1
   16fda:	0585                	addi	a1,a1,1
   16fdc:	00d61363          	bne	a2,a3,16fe2 <strcmp+0xe0>
   16fe0:	fa65                	bnez	a2,16fd0 <strcmp+0xce>
   16fe2:	40d60533          	sub	a0,a2,a3
   16fe6:	8082                	ret
   16fe8:	0511                	addi	a0,a0,4
   16fea:	0591                	addi	a1,a1,4
   16fec:	fed612e3          	bne	a2,a3,16fd0 <strcmp+0xce>
   16ff0:	4501                	li	a0,0
   16ff2:	8082                	ret
   16ff4:	0521                	addi	a0,a0,8
   16ff6:	05a1                	addi	a1,a1,8
   16ff8:	fcd61ce3          	bne	a2,a3,16fd0 <strcmp+0xce>
   16ffc:	4501                	li	a0,0
   16ffe:	8082                	ret
   17000:	0531                	addi	a0,a0,12
   17002:	05b1                	addi	a1,a1,12
   17004:	fcd616e3          	bne	a2,a3,16fd0 <strcmp+0xce>
   17008:	4501                	li	a0,0
   1700a:	8082                	ret
   1700c:	0541                	addi	a0,a0,16
   1700e:	05c1                	addi	a1,a1,16
   17010:	fcd610e3          	bne	a2,a3,16fd0 <strcmp+0xce>
   17014:	4501                	li	a0,0
   17016:	8082                	ret

00017018 <__assert_func>:
   17018:	f3c1a783          	lw	a5,-196(gp) # 1c86c <_impure_ptr>
   1701c:	1141                	addi	sp,sp,-16
   1701e:	8832                	mv	a6,a2
   17020:	c606                	sw	ra,12(sp)
   17022:	832a                	mv	t1,a0
   17024:	872e                	mv	a4,a1
   17026:	47c8                	lw	a0,12(a5)
   17028:	8636                	mv	a2,a3
   1702a:	00080c63          	beqz	a6,17042 <__assert_func+0x2a>
   1702e:	67ed                	lui	a5,0x1b
   17030:	a8c78793          	addi	a5,a5,-1396 # 1aa8c <__clzsi2+0x17a>
   17034:	65ed                	lui	a1,0x1b
   17036:	869a                	mv	a3,t1
   17038:	a9c58593          	addi	a1,a1,-1380 # 1aa9c <__clzsi2+0x18a>
   1703c:	22a1                	jal	17184 <fiprintf>
   1703e:	06c010ef          	jal	180aa <abort>
   17042:	67ed                	lui	a5,0x1b
   17044:	a9878793          	addi	a5,a5,-1384 # 1aa98 <__clzsi2+0x186>
   17048:	883e                	mv	a6,a5
   1704a:	b7ed                	j	17034 <__assert_func+0x1c>

0001704c <__assert>:
   1704c:	1141                	addi	sp,sp,-16
   1704e:	86b2                	mv	a3,a2
   17050:	4601                	li	a2,0
   17052:	c606                	sw	ra,12(sp)
   17054:	37d1                	jal	17018 <__assert_func>

00017056 <_calloc_r>:
   17056:	02c5b7b3          	mulhu	a5,a1,a2
   1705a:	1101                	addi	sp,sp,-32
   1705c:	ce06                	sw	ra,28(sp)
   1705e:	02c585b3          	mul	a1,a1,a2
   17062:	efa5                	bnez	a5,170da <_calloc_r+0x84>
   17064:	d59f90ef          	jal	10dbc <_malloc_r>
   17068:	87aa                	mv	a5,a0
   1706a:	cd25                	beqz	a0,170e2 <_calloc_r+0x8c>
   1706c:	ffc52603          	lw	a2,-4(a0)
   17070:	02400693          	li	a3,36
   17074:	9a71                	andi	a2,a2,-4
   17076:	1671                	addi	a2,a2,-4 # ffffdffc <__BSS_END__+0xfffe1448>
   17078:	02c6ef63          	bltu	a3,a2,170b6 <_calloc_r+0x60>
   1707c:	45cd                	li	a1,19
   1707e:	872a                	mv	a4,a0
   17080:	02c5f163          	bgeu	a1,a2,170a2 <_calloc_r+0x4c>
   17084:	00052023          	sw	zero,0(a0)
   17088:	00052223          	sw	zero,4(a0)
   1708c:	476d                	li	a4,27
   1708e:	02c77d63          	bgeu	a4,a2,170c8 <_calloc_r+0x72>
   17092:	00052423          	sw	zero,8(a0)
   17096:	00052623          	sw	zero,12(a0)
   1709a:	01050713          	addi	a4,a0,16
   1709e:	04d60763          	beq	a2,a3,170ec <_calloc_r+0x96>
   170a2:	00072023          	sw	zero,0(a4)
   170a6:	00072223          	sw	zero,4(a4)
   170aa:	00072423          	sw	zero,8(a4)
   170ae:	40f2                	lw	ra,28(sp)
   170b0:	853e                	mv	a0,a5
   170b2:	6105                	addi	sp,sp,32
   170b4:	8082                	ret
   170b6:	4581                	li	a1,0
   170b8:	c62a                	sw	a0,12(sp)
   170ba:	faaf90ef          	jal	10864 <memset>
   170be:	47b2                	lw	a5,12(sp)
   170c0:	40f2                	lw	ra,28(sp)
   170c2:	853e                	mv	a0,a5
   170c4:	6105                	addi	sp,sp,32
   170c6:	8082                	ret
   170c8:	00850713          	addi	a4,a0,8
   170cc:	00072023          	sw	zero,0(a4)
   170d0:	00072223          	sw	zero,4(a4)
   170d4:	00072423          	sw	zero,8(a4)
   170d8:	bfd9                	j	170ae <_calloc_r+0x58>
   170da:	7cb000ef          	jal	180a4 <__errno>
   170de:	47b1                	li	a5,12
   170e0:	c11c                	sw	a5,0(a0)
   170e2:	40f2                	lw	ra,28(sp)
   170e4:	4781                	li	a5,0
   170e6:	853e                	mv	a0,a5
   170e8:	6105                	addi	sp,sp,32
   170ea:	8082                	ret
   170ec:	00052823          	sw	zero,16(a0)
   170f0:	00052a23          	sw	zero,20(a0)
   170f4:	01850713          	addi	a4,a0,24
   170f8:	b76d                	j	170a2 <_calloc_r+0x4c>

000170fa <_mbtowc_r>:
   170fa:	e3c1a783          	lw	a5,-452(gp) # 1c76c <__global_locale+0xe4>
   170fe:	8782                	jr	a5

00017100 <__ascii_mbtowc>:
   17100:	c999                	beqz	a1,17116 <__ascii_mbtowc+0x16>
   17102:	c61d                	beqz	a2,17130 <__ascii_mbtowc+0x30>
   17104:	ca95                	beqz	a3,17138 <__ascii_mbtowc+0x38>
   17106:	00064783          	lbu	a5,0(a2)
   1710a:	c19c                	sw	a5,0(a1)
   1710c:	00064503          	lbu	a0,0(a2)
   17110:	00a03533          	snez	a0,a0
   17114:	8082                	ret
   17116:	1141                	addi	sp,sp,-16
   17118:	006c                	addi	a1,sp,12
   1711a:	ce09                	beqz	a2,17134 <__ascii_mbtowc+0x34>
   1711c:	c285                	beqz	a3,1713c <__ascii_mbtowc+0x3c>
   1711e:	00064783          	lbu	a5,0(a2)
   17122:	c19c                	sw	a5,0(a1)
   17124:	00064503          	lbu	a0,0(a2)
   17128:	00a03533          	snez	a0,a0
   1712c:	0141                	addi	sp,sp,16
   1712e:	8082                	ret
   17130:	4501                	li	a0,0
   17132:	8082                	ret
   17134:	4501                	li	a0,0
   17136:	bfdd                	j	1712c <__ascii_mbtowc+0x2c>
   17138:	5579                	li	a0,-2
   1713a:	8082                	ret
   1713c:	5579                	li	a0,-2
   1713e:	b7fd                	j	1712c <__ascii_mbtowc+0x2c>

00017140 <_wctomb_r>:
   17140:	e381a783          	lw	a5,-456(gp) # 1c768 <__global_locale+0xe0>
   17144:	8782                	jr	a5

00017146 <__ascii_wctomb>:
   17146:	cd91                	beqz	a1,17162 <__ascii_wctomb+0x1c>
   17148:	0ff00793          	li	a5,255
   1714c:	00c7e663          	bltu	a5,a2,17158 <__ascii_wctomb+0x12>
   17150:	00c58023          	sb	a2,0(a1)
   17154:	4505                	li	a0,1
   17156:	8082                	ret
   17158:	08a00793          	li	a5,138
   1715c:	c11c                	sw	a5,0(a0)
   1715e:	557d                	li	a0,-1
   17160:	8082                	ret
   17162:	4501                	li	a0,0
   17164:	8082                	ret

00017166 <_fiprintf_r>:
   17166:	7139                	addi	sp,sp,-64
   17168:	02c10313          	addi	t1,sp,44
   1716c:	d636                	sw	a3,44(sp)
   1716e:	869a                	mv	a3,t1
   17170:	ce06                	sw	ra,28(sp)
   17172:	d83a                	sw	a4,48(sp)
   17174:	da3e                	sw	a5,52(sp)
   17176:	dc42                	sw	a6,56(sp)
   17178:	de46                	sw	a7,60(sp)
   1717a:	c61a                	sw	t1,12(sp)
   1717c:	2815                	jal	171b0 <_vfiprintf_r>
   1717e:	40f2                	lw	ra,28(sp)
   17180:	6121                	addi	sp,sp,64
   17182:	8082                	ret

00017184 <fiprintf>:
   17184:	7139                	addi	sp,sp,-64
   17186:	8eaa                	mv	t4,a0
   17188:	f3c1a503          	lw	a0,-196(gp) # 1c86c <_impure_ptr>
   1718c:	8e2e                	mv	t3,a1
   1718e:	02810313          	addi	t1,sp,40
   17192:	d432                	sw	a2,40(sp)
   17194:	d636                	sw	a3,44(sp)
   17196:	85f6                	mv	a1,t4
   17198:	8672                	mv	a2,t3
   1719a:	869a                	mv	a3,t1
   1719c:	ce06                	sw	ra,28(sp)
   1719e:	d83a                	sw	a4,48(sp)
   171a0:	da3e                	sw	a5,52(sp)
   171a2:	dc42                	sw	a6,56(sp)
   171a4:	de46                	sw	a7,60(sp)
   171a6:	c61a                	sw	t1,12(sp)
   171a8:	2021                	jal	171b0 <_vfiprintf_r>
   171aa:	40f2                	lw	ra,28(sp)
   171ac:	6121                	addi	sp,sp,64
   171ae:	8082                	ret

000171b0 <_vfiprintf_r>:
   171b0:	7169                	addi	sp,sp,-304
   171b2:	12912223          	sw	s1,292(sp)
   171b6:	11312e23          	sw	s3,284(sp)
   171ba:	11412c23          	sw	s4,280(sp)
   171be:	11512a23          	sw	s5,276(sp)
   171c2:	12112623          	sw	ra,300(sp)
   171c6:	11812423          	sw	s8,264(sp)
   171ca:	8aaa                	mv	s5,a0
   171cc:	84b2                	mv	s1,a2
   171ce:	8a36                	mv	s4,a3
   171d0:	89ae                	mv	s3,a1
   171d2:	c501                	beqz	a0,171da <_vfiprintf_r+0x2a>
   171d4:	595c                	lw	a5,52(a0)
   171d6:	400788e3          	beqz	a5,17de6 <_vfiprintf_r+0xc36>
   171da:	00c99703          	lh	a4,12(s3)
   171de:	0649a783          	lw	a5,100(s3)
   171e2:	6609                	lui	a2,0x2
   171e4:	01271693          	slli	a3,a4,0x12
   171e8:	0006ca63          	bltz	a3,171fc <_vfiprintf_r+0x4c>
   171ec:	76f9                	lui	a3,0xffffe
   171ee:	16fd                	addi	a3,a3,-1 # ffffdfff <__BSS_END__+0xfffe144b>
   171f0:	8f51                	or	a4,a4,a2
   171f2:	8ff5                	and	a5,a5,a3
   171f4:	00e99623          	sh	a4,12(s3)
   171f8:	06f9a223          	sw	a5,100(s3)
   171fc:	01279713          	slli	a4,a5,0x12
   17200:	5a074fe3          	bltz	a4,17fbe <_vfiprintf_r+0xe0e>
   17204:	00c99783          	lh	a5,12(s3)
   17208:	0087f713          	andi	a4,a5,8
   1720c:	1a070b63          	beqz	a4,173c2 <_vfiprintf_r+0x212>
   17210:	0109a703          	lw	a4,16(s3)
   17214:	1a070763          	beqz	a4,173c2 <_vfiprintf_r+0x212>
   17218:	8be9                	andi	a5,a5,26
   1721a:	4729                	li	a4,10
   1721c:	1ae78f63          	beq	a5,a4,173da <_vfiprintf_r+0x22a>
   17220:	11912223          	sw	s9,260(sp)
   17224:	6ced                	lui	s9,0x1b
   17226:	11612823          	sw	s6,272(sp)
   1722a:	11712623          	sw	s7,268(sp)
   1722e:	04c10b13          	addi	s6,sp,76
   17232:	6bed                	lui	s7,0x1b
   17234:	e94c8713          	addi	a4,s9,-364 # 1ae94 <_ctype_+0x104>
   17238:	13212023          	sw	s2,288(sp)
   1723c:	12812423          	sw	s0,296(sp)
   17240:	11a12023          	sw	s10,256(sp)
   17244:	dfee                	sw	s11,252(sp)
   17246:	c482                	sw	zero,72(sp)
   17248:	c282                	sw	zero,68(sp)
   1724a:	c0da                	sw	s6,64(sp)
   1724c:	87da                	mv	a5,s6
   1724e:	c63a                	sw	a4,12(sp)
   17250:	000b8b93          	mv	s7,s7
   17254:	ce02                	sw	zero,28(sp)
   17256:	d002                	sw	zero,32(sp)
   17258:	d202                	sw	zero,36(sp)
   1725a:	4c01                	li	s8,0
   1725c:	4941                	li	s2,16
   1725e:	0004c703          	lbu	a4,0(s1)
   17262:	8426                	mv	s0,s1
   17264:	fdb70693          	addi	a3,a4,-37
   17268:	ce95                	beqz	a3,172a4 <_vfiprintf_r+0xf4>
   1726a:	cf0d                	beqz	a4,172a4 <_vfiprintf_r+0xf4>
   1726c:	8ca2                	mv	s9,s0
   1726e:	00144703          	lbu	a4,1(s0)
   17272:	0405                	addi	s0,s0,1
   17274:	c701                	beqz	a4,1727c <_vfiprintf_r+0xcc>
   17276:	fdb70693          	addi	a3,a4,-37
   1727a:	faed                	bnez	a3,1726c <_vfiprintf_r+0xbc>
   1727c:	40940d33          	sub	s10,s0,s1
   17280:	02940263          	beq	s0,s1,172a4 <_vfiprintf_r+0xf4>
   17284:	46a6                	lw	a3,72(sp)
   17286:	4716                	lw	a4,68(sp)
   17288:	c384                	sw	s1,0(a5)
   1728a:	96ea                	add	a3,a3,s10
   1728c:	0705                	addi	a4,a4,1
   1728e:	01a7a223          	sw	s10,4(a5)
   17292:	c4b6                	sw	a3,72(sp)
   17294:	c2ba                	sw	a4,68(sp)
   17296:	469d                	li	a3,7
   17298:	07a1                	addi	a5,a5,8
   1729a:	16e6c763          	blt	a3,a4,17408 <_vfiprintf_r+0x258>
   1729e:	001cc703          	lbu	a4,1(s9)
   172a2:	9c6a                	add	s8,s8,s10
   172a4:	16070a63          	beqz	a4,17418 <_vfiprintf_r+0x268>
   172a8:	00144683          	lbu	a3,1(s0)
   172ac:	00140493          	addi	s1,s0,1
   172b0:	02010da3          	sb	zero,59(sp)
   172b4:	547d                	li	s0,-1
   172b6:	4c81                	li	s9,0
   172b8:	4d01                	li	s10,0
   172ba:	05a00d93          	li	s11,90
   172be:	0485                	addi	s1,s1,1
   172c0:	fe068713          	addi	a4,a3,-32
   172c4:	02edeb63          	bltu	s11,a4,172fa <_vfiprintf_r+0x14a>
   172c8:	4632                	lw	a2,12(sp)
   172ca:	070a                	slli	a4,a4,0x2
   172cc:	9732                	add	a4,a4,a2
   172ce:	4318                	lw	a4,0(a4)
   172d0:	8702                	jr	a4
   172d2:	fd068713          	addi	a4,a3,-48
   172d6:	4c81                	li	s9,0
   172d8:	45a5                	li	a1,9
   172da:	002c9613          	slli	a2,s9,0x2
   172de:	0004c683          	lbu	a3,0(s1)
   172e2:	9cb2                	add	s9,s9,a2
   172e4:	0c86                	slli	s9,s9,0x1
   172e6:	9cba                	add	s9,s9,a4
   172e8:	fd068713          	addi	a4,a3,-48
   172ec:	0485                	addi	s1,s1,1
   172ee:	fee5f6e3          	bgeu	a1,a4,172da <_vfiprintf_r+0x12a>
   172f2:	fe068713          	addi	a4,a3,-32
   172f6:	fcedf9e3          	bgeu	s11,a4,172c8 <_vfiprintf_r+0x118>
   172fa:	10068f63          	beqz	a3,17418 <_vfiprintf_r+0x268>
   172fe:	4305                	li	t1,1
   17300:	08d10623          	sb	a3,140(sp)
   17304:	02010da3          	sb	zero,59(sp)
   17308:	881a                	mv	a6,t1
   1730a:	4401                	li	s0,0
   1730c:	08c10d93          	addi	s11,sp,140
   17310:	45a6                	lw	a1,72(sp)
   17312:	4616                	lw	a2,68(sp)
   17314:	084d7893          	andi	a7,s10,132
   17318:	86ae                	mv	a3,a1
   1731a:	8732                	mv	a4,a2
   1731c:	04089663          	bnez	a7,17368 <_vfiprintf_r+0x1b8>
   17320:	410c8e33          	sub	t3,s9,a6
   17324:	7fc04063          	bgtz	t3,17b04 <_vfiprintf_r+0x954>
   17328:	03b14603          	lbu	a2,59(sp)
   1732c:	c231                	beqz	a2,17370 <_vfiprintf_r+0x1c0>
   1732e:	4881                	li	a7,0
   17330:	4e81                	li	t4,0
   17332:	03b10613          	addi	a2,sp,59
   17336:	c390                	sw	a2,0(a5)
   17338:	0685                	addi	a3,a3,1
   1733a:	4605                	li	a2,1
   1733c:	0705                	addi	a4,a4,1
   1733e:	c3d0                	sw	a2,4(a5)
   17340:	c4b6                	sw	a3,72(sp)
   17342:	c2ba                	sw	a4,68(sp)
   17344:	461d                	li	a2,7
   17346:	07a1                	addi	a5,a5,8
   17348:	10e64d63          	blt	a2,a4,17462 <_vfiprintf_r+0x2b2>
   1734c:	000e8e63          	beqz	t4,17368 <_vfiprintf_r+0x1b8>
   17350:	1870                	addi	a2,sp,60
   17352:	c390                	sw	a2,0(a5)
   17354:	0689                	addi	a3,a3,2
   17356:	4609                	li	a2,2
   17358:	0705                	addi	a4,a4,1
   1735a:	c3d0                	sw	a2,4(a5)
   1735c:	c4b6                	sw	a3,72(sp)
   1735e:	c2ba                	sw	a4,68(sp)
   17360:	461d                	li	a2,7
   17362:	07a1                	addi	a5,a5,8
   17364:	72e64e63          	blt	a2,a4,17aa0 <_vfiprintf_r+0x8f0>
   17368:	08000613          	li	a2,128
   1736c:	5ec88263          	beq	a7,a2,17950 <_vfiprintf_r+0x7a0>
   17370:	40640433          	sub	s0,s0,t1
   17374:	66804f63          	bgtz	s0,179f2 <_vfiprintf_r+0x842>
   17378:	969a                	add	a3,a3,t1
   1737a:	0705                	addi	a4,a4,1
   1737c:	01b7a023          	sw	s11,0(a5)
   17380:	0067a223          	sw	t1,4(a5)
   17384:	c4b6                	sw	a3,72(sp)
   17386:	c2ba                	sw	a4,68(sp)
   17388:	461d                	li	a2,7
   1738a:	07a1                	addi	a5,a5,8
   1738c:	6ee64663          	blt	a2,a4,17a78 <_vfiprintf_r+0x8c8>
   17390:	004d7d13          	andi	s10,s10,4
   17394:	000d0663          	beqz	s10,173a0 <_vfiprintf_r+0x1f0>
   17398:	410c8433          	sub	s0,s9,a6
   1739c:	0e804563          	bgtz	s0,17486 <_vfiprintf_r+0x2d6>
   173a0:	010cd363          	bge	s9,a6,173a6 <_vfiprintf_r+0x1f6>
   173a4:	8cc2                	mv	s9,a6
   173a6:	9c66                	add	s8,s8,s9
   173a8:	6e069463          	bnez	a3,17a90 <_vfiprintf_r+0x8e0>
   173ac:	c282                	sw	zero,68(sp)
   173ae:	87da                	mv	a5,s6
   173b0:	b57d                	j	1725e <_vfiprintf_r+0xae>
   173b2:	0004c683          	lbu	a3,0(s1)
   173b6:	b721                	j	172be <_vfiprintf_r+0x10e>
   173b8:	0004c683          	lbu	a3,0(s1)
   173bc:	020d6d13          	ori	s10,s10,32
   173c0:	bdfd                	j	172be <_vfiprintf_r+0x10e>
   173c2:	85ce                	mv	a1,s3
   173c4:	8556                	mv	a0,s5
   173c6:	9c7fc0ef          	jal	13d8c <__swsetup_r>
   173ca:	3e051ae3          	bnez	a0,17fbe <_vfiprintf_r+0xe0e>
   173ce:	00c99783          	lh	a5,12(s3)
   173d2:	4729                	li	a4,10
   173d4:	8be9                	andi	a5,a5,26
   173d6:	e4e795e3          	bne	a5,a4,17220 <_vfiprintf_r+0x70>
   173da:	00e99783          	lh	a5,14(s3)
   173de:	e407c1e3          	bltz	a5,17220 <_vfiprintf_r+0x70>
   173e2:	12c12083          	lw	ra,300(sp)
   173e6:	10812c03          	lw	s8,264(sp)
   173ea:	86d2                	mv	a3,s4
   173ec:	8626                	mv	a2,s1
   173ee:	11812a03          	lw	s4,280(sp)
   173f2:	12412483          	lw	s1,292(sp)
   173f6:	85ce                	mv	a1,s3
   173f8:	8556                	mv	a0,s5
   173fa:	11c12983          	lw	s3,284(sp)
   173fe:	11412a83          	lw	s5,276(sp)
   17402:	6155                	addi	sp,sp,304
   17404:	40f0006f          	j	18012 <__sbprintf>
   17408:	0090                	addi	a2,sp,64
   1740a:	85ce                	mv	a1,s3
   1740c:	8556                	mv	a0,s5
   1740e:	958fc0ef          	jal	13566 <__sprint_r>
   17412:	e511                	bnez	a0,1741e <_vfiprintf_r+0x26e>
   17414:	87da                	mv	a5,s6
   17416:	b561                	j	1729e <_vfiprintf_r+0xee>
   17418:	47a6                	lw	a5,72(sp)
   1741a:	280797e3          	bnez	a5,17ea8 <_vfiprintf_r+0xcf8>
   1741e:	00c9d783          	lhu	a5,12(s3)
   17422:	12812403          	lw	s0,296(sp)
   17426:	12012903          	lw	s2,288(sp)
   1742a:	0407f793          	andi	a5,a5,64
   1742e:	11012b03          	lw	s6,272(sp)
   17432:	10c12b83          	lw	s7,268(sp)
   17436:	10412c83          	lw	s9,260(sp)
   1743a:	10012d03          	lw	s10,256(sp)
   1743e:	5dfe                	lw	s11,252(sp)
   17440:	36079fe3          	bnez	a5,17fbe <_vfiprintf_r+0xe0e>
   17444:	12c12083          	lw	ra,300(sp)
   17448:	12412483          	lw	s1,292(sp)
   1744c:	11c12983          	lw	s3,284(sp)
   17450:	11812a03          	lw	s4,280(sp)
   17454:	11412a83          	lw	s5,276(sp)
   17458:	8562                	mv	a0,s8
   1745a:	10812c03          	lw	s8,264(sp)
   1745e:	6155                	addi	sp,sp,304
   17460:	8082                	ret
   17462:	0090                	addi	a2,sp,64
   17464:	85ce                	mv	a1,s3
   17466:	8556                	mv	a0,s5
   17468:	d41a                	sw	t1,40(sp)
   1746a:	cc46                	sw	a7,24(sp)
   1746c:	ca76                	sw	t4,20(sp)
   1746e:	c842                	sw	a6,16(sp)
   17470:	8f6fc0ef          	jal	13566 <__sprint_r>
   17474:	f54d                	bnez	a0,1741e <_vfiprintf_r+0x26e>
   17476:	46a6                	lw	a3,72(sp)
   17478:	4716                	lw	a4,68(sp)
   1747a:	5322                	lw	t1,40(sp)
   1747c:	48e2                	lw	a7,24(sp)
   1747e:	4ed2                	lw	t4,20(sp)
   17480:	4842                	lw	a6,16(sp)
   17482:	87da                	mv	a5,s6
   17484:	b5e1                	j	1734c <_vfiprintf_r+0x19c>
   17486:	4d41                	li	s10,16
   17488:	4716                	lw	a4,68(sp)
   1748a:	68ed                	lui	a7,0x1b
   1748c:	328d5ce3          	bge	s10,s0,17fc4 <_vfiprintf_r+0xe14>
   17490:	ca26                	sw	s1,20(sp)
   17492:	4d9d                	li	s11,7
   17494:	c842                	sw	a6,16(sp)
   17496:	01088493          	addi	s1,a7,16 # 1b010 <blanks.1>
   1749a:	a021                	j	174a2 <_vfiprintf_r+0x2f2>
   1749c:	1441                	addi	s0,s0,-16
   1749e:	028d5863          	bge	s10,s0,174ce <_vfiprintf_r+0x31e>
   174a2:	06c1                	addi	a3,a3,16
   174a4:	0705                	addi	a4,a4,1
   174a6:	c384                	sw	s1,0(a5)
   174a8:	01a7a223          	sw	s10,4(a5)
   174ac:	c4b6                	sw	a3,72(sp)
   174ae:	c2ba                	sw	a4,68(sp)
   174b0:	07a1                	addi	a5,a5,8
   174b2:	feedd5e3          	bge	s11,a4,1749c <_vfiprintf_r+0x2ec>
   174b6:	0090                	addi	a2,sp,64
   174b8:	85ce                	mv	a1,s3
   174ba:	8556                	mv	a0,s5
   174bc:	8aafc0ef          	jal	13566 <__sprint_r>
   174c0:	fd39                	bnez	a0,1741e <_vfiprintf_r+0x26e>
   174c2:	1441                	addi	s0,s0,-16
   174c4:	46a6                	lw	a3,72(sp)
   174c6:	4716                	lw	a4,68(sp)
   174c8:	87da                	mv	a5,s6
   174ca:	fc8d4ce3          	blt	s10,s0,174a2 <_vfiprintf_r+0x2f2>
   174ce:	88a6                	mv	a7,s1
   174d0:	4842                	lw	a6,16(sp)
   174d2:	44d2                	lw	s1,20(sp)
   174d4:	96a2                	add	a3,a3,s0
   174d6:	0705                	addi	a4,a4,1
   174d8:	0117a023          	sw	a7,0(a5)
   174dc:	c3c0                	sw	s0,4(a5)
   174de:	c4b6                	sw	a3,72(sp)
   174e0:	c2ba                	sw	a4,68(sp)
   174e2:	479d                	li	a5,7
   174e4:	eae7dee3          	bge	a5,a4,173a0 <_vfiprintf_r+0x1f0>
   174e8:	0090                	addi	a2,sp,64
   174ea:	85ce                	mv	a1,s3
   174ec:	8556                	mv	a0,s5
   174ee:	c842                	sw	a6,16(sp)
   174f0:	876fc0ef          	jal	13566 <__sprint_r>
   174f4:	f50d                	bnez	a0,1741e <_vfiprintf_r+0x26e>
   174f6:	46a6                	lw	a3,72(sp)
   174f8:	4842                	lw	a6,16(sp)
   174fa:	b55d                	j	173a0 <_vfiprintf_r+0x1f0>
   174fc:	020d7713          	andi	a4,s10,32
   17500:	e779                	bnez	a4,175ce <_vfiprintf_r+0x41e>
   17502:	010d7713          	andi	a4,s10,16
   17506:	000a2883          	lw	a7,0(s4)
   1750a:	004a0593          	addi	a1,s4,4
   1750e:	6c071563          	bnez	a4,17bd8 <_vfiprintf_r+0xa28>
   17512:	040d7713          	andi	a4,s10,64
   17516:	120709e3          	beqz	a4,17e48 <_vfiprintf_r+0xc98>
   1751a:	08c2                	slli	a7,a7,0x10
   1751c:	4108d893          	srai	a7,a7,0x10
   17520:	41f8d693          	srai	a3,a7,0x1f
   17524:	8a2e                	mv	s4,a1
   17526:	8636                	mv	a2,a3
   17528:	0a064e63          	bltz	a2,175e4 <_vfiprintf_r+0x434>
   1752c:	0c044b63          	bltz	s0,17602 <_vfiprintf_r+0x452>
   17530:	f7fd7d13          	andi	s10,s10,-129
   17534:	e479                	bnez	s0,17602 <_vfiprintf_r+0x452>
   17536:	00d8e733          	or	a4,a7,a3
   1753a:	e761                	bnez	a4,17602 <_vfiprintf_r+0x452>
   1753c:	03b14703          	lbu	a4,59(sp)
   17540:	4301                	li	t1,0
   17542:	4401                	li	s0,0
   17544:	0f010d93          	addi	s11,sp,240
   17548:	18070f63          	beqz	a4,176e6 <_vfiprintf_r+0x536>
   1754c:	4805                	li	a6,1
   1754e:	46a6                	lw	a3,72(sp)
   17550:	4716                	lw	a4,68(sp)
   17552:	084d7893          	andi	a7,s10,132
   17556:	85b6                	mv	a1,a3
   17558:	863a                	mv	a2,a4
   1755a:	dc0883e3          	beqz	a7,17320 <_vfiprintf_r+0x170>
   1755e:	4e81                	li	t4,0
   17560:	bbc9                	j	17332 <_vfiprintf_r+0x182>
   17562:	000a2d83          	lw	s11,0(s4)
   17566:	02010da3          	sb	zero,59(sp)
   1756a:	0a11                	addi	s4,s4,4
   1756c:	0a0d86e3          	beqz	s11,17e18 <_vfiprintf_r+0xc68>
   17570:	c83e                	sw	a5,16(sp)
   17572:	7a044863          	bltz	s0,17d22 <_vfiprintf_r+0xb72>
   17576:	8622                	mv	a2,s0
   17578:	4581                	li	a1,0
   1757a:	856e                	mv	a0,s11
   1757c:	e7bfc0ef          	jal	143f6 <memchr>
   17580:	03b14703          	lbu	a4,59(sp)
   17584:	47c2                	lw	a5,16(sp)
   17586:	220502e3          	beqz	a0,17faa <_vfiprintf_r+0xdfa>
   1758a:	41b50333          	sub	t1,a0,s11
   1758e:	fff34813          	not	a6,t1
   17592:	41f85813          	srai	a6,a6,0x1f
   17596:	01037833          	and	a6,t1,a6
   1759a:	7a070363          	beqz	a4,17d40 <_vfiprintf_r+0xb90>
   1759e:	0805                	addi	a6,a6,1
   175a0:	4401                	li	s0,0
   175a2:	b775                	j	1754e <_vfiprintf_r+0x39e>
   175a4:	000a2703          	lw	a4,0(s4)
   175a8:	4305                	li	t1,1
   175aa:	02010da3          	sb	zero,59(sp)
   175ae:	08e10623          	sb	a4,140(sp)
   175b2:	0a11                	addi	s4,s4,4
   175b4:	881a                	mv	a6,t1
   175b6:	4401                	li	s0,0
   175b8:	08c10d93          	addi	s11,sp,140
   175bc:	bb91                	j	17310 <_vfiprintf_r+0x160>
   175be:	020d7713          	andi	a4,s10,32
   175c2:	004a0593          	addi	a1,s4,4
   175c6:	010d6d13          	ori	s10,s10,16
   175ca:	60070763          	beqz	a4,17bd8 <_vfiprintf_r+0xa28>
   175ce:	007a0713          	addi	a4,s4,7
   175d2:	9b61                	andi	a4,a4,-8
   175d4:	4350                	lw	a2,4(a4)
   175d6:	00072883          	lw	a7,0(a4)
   175da:	00870a13          	addi	s4,a4,8
   175de:	86b2                	mv	a3,a2
   175e0:	f40656e3          	bgez	a2,1752c <_vfiprintf_r+0x37c>
   175e4:	01103733          	snez	a4,a7
   175e8:	40d006b3          	neg	a3,a3
   175ec:	8e99                	sub	a3,a3,a4
   175ee:	02d00713          	li	a4,45
   175f2:	02e10da3          	sb	a4,59(sp)
   175f6:	411008b3          	neg	a7,a7
   175fa:	00044463          	bltz	s0,17602 <_vfiprintf_r+0x452>
   175fe:	f7fd7d13          	andi	s10,s10,-129
   17602:	10069663          	bnez	a3,1770e <_vfiprintf_r+0x55e>
   17606:	4725                	li	a4,9
   17608:	11176363          	bltu	a4,a7,1770e <_vfiprintf_r+0x55e>
   1760c:	03088893          	addi	a7,a7,48
   17610:	0f1107a3          	sb	a7,239(sp)
   17614:	8822                	mv	a6,s0
   17616:	00804363          	bgtz	s0,1761c <_vfiprintf_r+0x46c>
   1761a:	4805                	li	a6,1
   1761c:	03b14703          	lbu	a4,59(sp)
   17620:	56071f63          	bnez	a4,17b9e <_vfiprintf_r+0x9ee>
   17624:	4305                	li	t1,1
   17626:	0ef10d93          	addi	s11,sp,239
   1762a:	b1dd                	j	17310 <_vfiprintf_r+0x160>
   1762c:	000a2c83          	lw	s9,0(s4)
   17630:	560cd263          	bgez	s9,17b94 <_vfiprintf_r+0x9e4>
   17634:	41900cb3          	neg	s9,s9
   17638:	0a11                	addi	s4,s4,4
   1763a:	0004c683          	lbu	a3,0(s1)
   1763e:	004d6d13          	ori	s10,s10,4
   17642:	b9b5                	j	172be <_vfiprintf_r+0x10e>
   17644:	02b00713          	li	a4,43
   17648:	0004c683          	lbu	a3,0(s1)
   1764c:	02e10da3          	sb	a4,59(sp)
   17650:	b1bd                	j	172be <_vfiprintf_r+0x10e>
   17652:	020d7713          	andi	a4,s10,32
   17656:	010d6813          	ori	a6,s10,16
   1765a:	004a0593          	addi	a1,s4,4
   1765e:	56070863          	beqz	a4,17bce <_vfiprintf_r+0xa1e>
   17662:	007a0693          	addi	a3,s4,7
   17666:	9ae1                	andi	a3,a3,-8
   17668:	4298                	lw	a4,0(a3)
   1766a:	42d0                	lw	a2,4(a3)
   1766c:	00868a13          	addi	s4,a3,8
   17670:	02010da3          	sb	zero,59(sp)
   17674:	bff87d13          	andi	s10,a6,-1025
   17678:	44044563          	bltz	s0,17ac2 <_vfiprintf_r+0x912>
   1767c:	b7f87d13          	andi	s10,a6,-1153
   17680:	44041163          	bnez	s0,17ac2 <_vfiprintf_r+0x912>
   17684:	00c766b3          	or	a3,a4,a2
   17688:	42069d63          	bnez	a3,17ac2 <_vfiprintf_r+0x912>
   1768c:	00187813          	andi	a6,a6,1
   17690:	5e080c63          	beqz	a6,17c88 <_vfiprintf_r+0xad8>
   17694:	03000713          	li	a4,48
   17698:	0ee107a3          	sb	a4,239(sp)
   1769c:	8342                	mv	t1,a6
   1769e:	0ef10d93          	addi	s11,sp,239
   176a2:	b1bd                	j	17310 <_vfiprintf_r+0x160>
   176a4:	0004c683          	lbu	a3,0(s1)
   176a8:	06800713          	li	a4,104
   176ac:	74e68863          	beq	a3,a4,17dfc <_vfiprintf_r+0xc4c>
   176b0:	040d6d13          	ori	s10,s10,64
   176b4:	b129                	j	172be <_vfiprintf_r+0x10e>
   176b6:	020d7713          	andi	a4,s10,32
   176ba:	004a0593          	addi	a1,s4,4
   176be:	010d6d13          	ori	s10,s10,16
   176c2:	eb05                	bnez	a4,176f2 <_vfiprintf_r+0x542>
   176c4:	02010da3          	sb	zero,59(sp)
   176c8:	000a2883          	lw	a7,0(s4)
   176cc:	4681                	li	a3,0
   176ce:	8a2e                	mv	s4,a1
   176d0:	f2044be3          	bltz	s0,17606 <_vfiprintf_r+0x456>
   176d4:	f7fd7d13          	andi	s10,s10,-129
   176d8:	f40d                	bnez	s0,17602 <_vfiprintf_r+0x452>
   176da:	00d8e733          	or	a4,a7,a3
   176de:	f315                	bnez	a4,17602 <_vfiprintf_r+0x452>
   176e0:	4301                	li	t1,0
   176e2:	0f010d93          	addi	s11,sp,240
   176e6:	4801                	li	a6,0
   176e8:	b125                	j	17310 <_vfiprintf_r+0x160>
   176ea:	020d7713          	andi	a4,s10,32
   176ee:	50070663          	beqz	a4,17bfa <_vfiprintf_r+0xa4a>
   176f2:	007a0713          	addi	a4,s4,7
   176f6:	9b61                	andi	a4,a4,-8
   176f8:	02010da3          	sb	zero,59(sp)
   176fc:	00072883          	lw	a7,0(a4)
   17700:	4354                	lw	a3,4(a4)
   17702:	00870a13          	addi	s4,a4,8
   17706:	fc0457e3          	bgez	s0,176d4 <_vfiprintf_r+0x524>
   1770a:	ee068ee3          	beqz	a3,17606 <_vfiprintf_r+0x456>
   1770e:	ccccd837          	lui	a6,0xccccd
   17712:	ccccd337          	lui	t1,0xccccd
   17716:	ccd80813          	addi	a6,a6,-819 # cccccccd <__BSS_END__+0xcccb0119>
   1771a:	ccc30313          	addi	t1,t1,-820 # cccccccc <__BSS_END__+0xcccb0118>
   1771e:	400d7e13          	andi	t3,s10,1024
   17722:	4501                	li	a0,0
   17724:	198c                	addi	a1,sp,240
   17726:	a095                	j	1778a <_vfiprintf_r+0x5da>
   17728:	4772                	lw	a4,28(sp)
   1772a:	00074703          	lbu	a4,0(a4)
   1772e:	00a71663          	bne	a4,a0,1773a <_vfiprintf_r+0x58a>
   17732:	f0170713          	addi	a4,a4,-255
   17736:	68071763          	bnez	a4,17dc4 <_vfiprintf_r+0xc14>
   1773a:	8ec6                	mv	t4,a7
   1773c:	8636                	mv	a2,a3
   1773e:	85ee                	mv	a1,s11
   17740:	00d88733          	add	a4,a7,a3
   17744:	01173f33          	sltu	t5,a4,a7
   17748:	977a                	add	a4,a4,t5
   1774a:	03073f33          	mulhu	t5,a4,a6
   1774e:	002f5f93          	srli	t6,t5,0x2
   17752:	ffcf7f13          	andi	t5,t5,-4
   17756:	9f7e                	add	t5,t5,t6
   17758:	41e70733          	sub	a4,a4,t5
   1775c:	40e88733          	sub	a4,a7,a4
   17760:	00e8b8b3          	sltu	a7,a7,a4
   17764:	411686b3          	sub	a3,a3,a7
   17768:	02670f33          	mul	t5,a4,t1
   1776c:	030686b3          	mul	a3,a3,a6
   17770:	030738b3          	mulhu	a7,a4,a6
   17774:	96fa                	add	a3,a3,t5
   17776:	03070733          	mul	a4,a4,a6
   1777a:	96c6                	add	a3,a3,a7
   1777c:	01f69893          	slli	a7,a3,0x1f
   17780:	8285                	srli	a3,a3,0x1
   17782:	8305                	srli	a4,a4,0x1
   17784:	98ba                	add	a7,a7,a4
   17786:	00060ee3          	beqz	a2,17fa2 <_vfiprintf_r+0xdf2>
   1778a:	00d88733          	add	a4,a7,a3
   1778e:	01173633          	sltu	a2,a4,a7
   17792:	963a                	add	a2,a2,a4
   17794:	03063eb3          	mulhu	t4,a2,a6
   17798:	0505                	addi	a0,a0,1
   1779a:	fff58d93          	addi	s11,a1,-1
   1779e:	002edf13          	srli	t5,t4,0x2
   177a2:	ffcefe93          	andi	t4,t4,-4
   177a6:	9efa                	add	t4,t4,t5
   177a8:	41d60633          	sub	a2,a2,t4
   177ac:	40c88633          	sub	a2,a7,a2
   177b0:	00c8beb3          	sltu	t4,a7,a2
   177b4:	41d68eb3          	sub	t4,a3,t4
   177b8:	03063f33          	mulhu	t5,a2,a6
   177bc:	030e8eb3          	mul	t4,t4,a6
   177c0:	03060633          	mul	a2,a2,a6
   177c4:	9efa                	add	t4,t4,t5
   177c6:	0efe                	slli	t4,t4,0x1f
   177c8:	8205                	srli	a2,a2,0x1
   177ca:	9676                	add	a2,a2,t4
   177cc:	00261e93          	slli	t4,a2,0x2
   177d0:	9676                	add	a2,a2,t4
   177d2:	0606                	slli	a2,a2,0x1
   177d4:	40c88633          	sub	a2,a7,a2
   177d8:	03060613          	addi	a2,a2,48 # 2030 <exit-0xe084>
   177dc:	fec58fa3          	sb	a2,-1(a1)
   177e0:	f40e14e3          	bnez	t3,17728 <_vfiprintf_r+0x578>
   177e4:	8ec6                	mv	t4,a7
   177e6:	8636                	mv	a2,a3
   177e8:	85ee                	mv	a1,s11
   177ea:	bfa9                	j	17744 <_vfiprintf_r+0x594>
   177ec:	8556                	mv	a0,s5
   177ee:	c83e                	sw	a5,16(sp)
   177f0:	f02fc0ef          	jal	13ef2 <_localeconv_r>
   177f4:	415c                	lw	a5,4(a0)
   177f6:	853e                	mv	a0,a5
   177f8:	d23e                	sw	a5,36(sp)
   177fa:	b99fc0ef          	jal	14392 <strlen>
   177fe:	d02a                	sw	a0,32(sp)
   17800:	8556                	mv	a0,s5
   17802:	ef0fc0ef          	jal	13ef2 <_localeconv_r>
   17806:	4510                	lw	a2,8(a0)
   17808:	5702                	lw	a4,32(sp)
   1780a:	0004c683          	lbu	a3,0(s1)
   1780e:	ce32                	sw	a2,28(sp)
   17810:	47c2                	lw	a5,16(sp)
   17812:	aa0706e3          	beqz	a4,172be <_vfiprintf_r+0x10e>
   17816:	aa0604e3          	beqz	a2,172be <_vfiprintf_r+0x10e>
   1781a:	00064703          	lbu	a4,0(a2)
   1781e:	aa0700e3          	beqz	a4,172be <_vfiprintf_r+0x10e>
   17822:	400d6d13          	ori	s10,s10,1024
   17826:	bc61                	j	172be <_vfiprintf_r+0x10e>
   17828:	0004c683          	lbu	a3,0(s1)
   1782c:	080d6d13          	ori	s10,s10,128
   17830:	b479                	j	172be <_vfiprintf_r+0x10e>
   17832:	0004c683          	lbu	a3,0(s1)
   17836:	02a00713          	li	a4,42
   1783a:	00148593          	addi	a1,s1,1
   1783e:	7ae68163          	beq	a3,a4,17fe0 <_vfiprintf_r+0xe30>
   17842:	fd068713          	addi	a4,a3,-48
   17846:	4525                	li	a0,9
   17848:	4401                	li	s0,0
   1784a:	02e56063          	bltu	a0,a4,1786a <_vfiprintf_r+0x6ba>
   1784e:	00241613          	slli	a2,s0,0x2
   17852:	0005c683          	lbu	a3,0(a1)
   17856:	9432                	add	s0,s0,a2
   17858:	0406                	slli	s0,s0,0x1
   1785a:	943a                	add	s0,s0,a4
   1785c:	fd068713          	addi	a4,a3,-48
   17860:	0585                	addi	a1,a1,1
   17862:	fee576e3          	bgeu	a0,a4,1784e <_vfiprintf_r+0x69e>
   17866:	42044763          	bltz	s0,17c94 <_vfiprintf_r+0xae4>
   1786a:	84ae                	mv	s1,a1
   1786c:	bc91                	j	172c0 <_vfiprintf_r+0x110>
   1786e:	0004c683          	lbu	a3,0(s1)
   17872:	001d6d13          	ori	s10,s10,1
   17876:	b4a1                	j	172be <_vfiprintf_r+0x10e>
   17878:	03b14703          	lbu	a4,59(sp)
   1787c:	0004c683          	lbu	a3,0(s1)
   17880:	a2071fe3          	bnez	a4,172be <_vfiprintf_r+0x10e>
   17884:	02000713          	li	a4,32
   17888:	02e10da3          	sb	a4,59(sp)
   1788c:	bc0d                	j	172be <_vfiprintf_r+0x10e>
   1788e:	6721                	lui	a4,0x8
   17890:	83070713          	addi	a4,a4,-2000 # 7830 <exit-0x8884>
   17894:	02e11e23          	sh	a4,60(sp)
   17898:	02010da3          	sb	zero,59(sp)
   1789c:	000a2703          	lw	a4,0(s4)
   178a0:	004a0693          	addi	a3,s4,4
   178a4:	4601                	li	a2,0
   178a6:	38044e63          	bltz	s0,17c42 <_vfiprintf_r+0xa92>
   178aa:	f7fd7d13          	andi	s10,s10,-129
   178ae:	002d6d13          	ori	s10,s10,2
   178b2:	74071263          	bnez	a4,17ff6 <_vfiprintf_r+0xe46>
   178b6:	74041063          	bnez	s0,17ff6 <_vfiprintf_r+0xe46>
   178ba:	8a36                	mv	s4,a3
   178bc:	4301                	li	t1,0
   178be:	4801                	li	a6,0
   178c0:	0f010d93          	addi	s11,sp,240
   178c4:	45a6                	lw	a1,72(sp)
   178c6:	4616                	lw	a2,68(sp)
   178c8:	084d7893          	andi	a7,s10,132
   178cc:	0809                	addi	a6,a6,2
   178ce:	86ae                	mv	a3,a1
   178d0:	8732                	mv	a4,a2
   178d2:	a6089fe3          	bnez	a7,17350 <_vfiprintf_r+0x1a0>
   178d6:	410c8e33          	sub	t3,s9,a6
   178da:	a7c05be3          	blez	t3,17350 <_vfiprintf_r+0x1a0>
   178de:	4e89                	li	t4,2
   178e0:	a41d                	j	17b06 <_vfiprintf_r+0x956>
   178e2:	020d7713          	andi	a4,s10,32
   178e6:	34071c63          	bnez	a4,17c3e <_vfiprintf_r+0xa8e>
   178ea:	010d7693          	andi	a3,s10,16
   178ee:	000a2703          	lw	a4,0(s4)
   178f2:	004a0593          	addi	a1,s4,4
   178f6:	2c069b63          	bnez	a3,17bcc <_vfiprintf_r+0xa1c>
   178fa:	040d7693          	andi	a3,s10,64
   178fe:	52068863          	beqz	a3,17e2e <_vfiprintf_r+0xc7e>
   17902:	0742                	slli	a4,a4,0x10
   17904:	8341                	srli	a4,a4,0x10
   17906:	8a2e                	mv	s4,a1
   17908:	886a                	mv	a6,s10
   1790a:	4601                	li	a2,0
   1790c:	b395                	j	17670 <_vfiprintf_r+0x4c0>
   1790e:	020d7713          	andi	a4,s10,32
   17912:	004a0693          	addi	a3,s4,4
   17916:	2c071863          	bnez	a4,17be6 <_vfiprintf_r+0xa36>
   1791a:	010d7713          	andi	a4,s10,16
   1791e:	4e071663          	bnez	a4,17e0a <_vfiprintf_r+0xc5a>
   17922:	040d7713          	andi	a4,s10,64
   17926:	54071563          	bnez	a4,17e70 <_vfiprintf_r+0xcc0>
   1792a:	200d7d13          	andi	s10,s10,512
   1792e:	4c0d0e63          	beqz	s10,17e0a <_vfiprintf_r+0xc5a>
   17932:	000a2703          	lw	a4,0(s4)
   17936:	8a36                	mv	s4,a3
   17938:	01870023          	sb	s8,0(a4)
   1793c:	b20d                	j	1725e <_vfiprintf_r+0xae>
   1793e:	0004c683          	lbu	a3,0(s1)
   17942:	06c00713          	li	a4,108
   17946:	4ae68463          	beq	a3,a4,17dee <_vfiprintf_r+0xc3e>
   1794a:	010d6d13          	ori	s10,s10,16
   1794e:	ba85                	j	172be <_vfiprintf_r+0x10e>
   17950:	410c88b3          	sub	a7,s9,a6
   17954:	a1105ee3          	blez	a7,17370 <_vfiprintf_r+0x1c0>
   17958:	4e41                	li	t3,16
   1795a:	6eed                	lui	t4,0x1b
   1795c:	671e5863          	bge	t3,a7,17fcc <_vfiprintf_r+0xe1c>
   17960:	ca22                	sw	s0,20(sp)
   17962:	d426                	sw	s1,40(sp)
   17964:	4f1d                	li	t5,7
   17966:	c842                	sw	a6,16(sp)
   17968:	8446                	mv	s0,a7
   1796a:	cc1a                	sw	t1,24(sp)
   1796c:	000e8493          	mv	s1,t4
   17970:	a021                	j	17978 <_vfiprintf_r+0x7c8>
   17972:	1441                	addi	s0,s0,-16
   17974:	028e5b63          	bge	t3,s0,179aa <_vfiprintf_r+0x7fa>
   17978:	06c1                	addi	a3,a3,16
   1797a:	0705                	addi	a4,a4,1
   1797c:	c384                	sw	s1,0(a5)
   1797e:	01c7a223          	sw	t3,4(a5)
   17982:	c4b6                	sw	a3,72(sp)
   17984:	c2ba                	sw	a4,68(sp)
   17986:	07a1                	addi	a5,a5,8
   17988:	feef55e3          	bge	t5,a4,17972 <_vfiprintf_r+0x7c2>
   1798c:	0090                	addi	a2,sp,64
   1798e:	85ce                	mv	a1,s3
   17990:	8556                	mv	a0,s5
   17992:	bd5fb0ef          	jal	13566 <__sprint_r>
   17996:	a80514e3          	bnez	a0,1741e <_vfiprintf_r+0x26e>
   1799a:	4e41                	li	t3,16
   1799c:	1441                	addi	s0,s0,-16
   1799e:	46a6                	lw	a3,72(sp)
   179a0:	4716                	lw	a4,68(sp)
   179a2:	87da                	mv	a5,s6
   179a4:	4f1d                	li	t5,7
   179a6:	fc8e49e3          	blt	t3,s0,17978 <_vfiprintf_r+0x7c8>
   179aa:	88a2                	mv	a7,s0
   179ac:	8ea6                	mv	t4,s1
   179ae:	4842                	lw	a6,16(sp)
   179b0:	4452                	lw	s0,20(sp)
   179b2:	4362                	lw	t1,24(sp)
   179b4:	54a2                	lw	s1,40(sp)
   179b6:	96c6                	add	a3,a3,a7
   179b8:	0705                	addi	a4,a4,1
   179ba:	01d7a023          	sw	t4,0(a5)
   179be:	0117a223          	sw	a7,4(a5)
   179c2:	c4b6                	sw	a3,72(sp)
   179c4:	c2ba                	sw	a4,68(sp)
   179c6:	461d                	li	a2,7
   179c8:	07a1                	addi	a5,a5,8
   179ca:	9ae653e3          	bge	a2,a4,17370 <_vfiprintf_r+0x1c0>
   179ce:	0090                	addi	a2,sp,64
   179d0:	85ce                	mv	a1,s3
   179d2:	8556                	mv	a0,s5
   179d4:	ca1a                	sw	t1,20(sp)
   179d6:	c842                	sw	a6,16(sp)
   179d8:	b8ffb0ef          	jal	13566 <__sprint_r>
   179dc:	a40511e3          	bnez	a0,1741e <_vfiprintf_r+0x26e>
   179e0:	4352                	lw	t1,20(sp)
   179e2:	46a6                	lw	a3,72(sp)
   179e4:	4716                	lw	a4,68(sp)
   179e6:	40640433          	sub	s0,s0,t1
   179ea:	4842                	lw	a6,16(sp)
   179ec:	87da                	mv	a5,s6
   179ee:	988055e3          	blez	s0,17378 <_vfiprintf_r+0x1c8>
   179f2:	6eed                	lui	t4,0x1b
   179f4:	000e8e93          	mv	t4,t4
   179f8:	04895663          	bge	s2,s0,17a44 <_vfiprintf_r+0x894>
   179fc:	489d                	li	a7,7
   179fe:	c842                	sw	a6,16(sp)
   17a00:	ca1a                	sw	t1,20(sp)
   17a02:	cc5e                	sw	s7,24(sp)
   17a04:	a021                	j	17a0c <_vfiprintf_r+0x85c>
   17a06:	1441                	addi	s0,s0,-16
   17a08:	02895b63          	bge	s2,s0,17a3e <_vfiprintf_r+0x88e>
   17a0c:	06c1                	addi	a3,a3,16
   17a0e:	0705                	addi	a4,a4,1
   17a10:	0177a023          	sw	s7,0(a5)
   17a14:	0127a223          	sw	s2,4(a5)
   17a18:	c4b6                	sw	a3,72(sp)
   17a1a:	c2ba                	sw	a4,68(sp)
   17a1c:	07a1                	addi	a5,a5,8
   17a1e:	fee8d4e3          	bge	a7,a4,17a06 <_vfiprintf_r+0x856>
   17a22:	0090                	addi	a2,sp,64
   17a24:	85ce                	mv	a1,s3
   17a26:	8556                	mv	a0,s5
   17a28:	b3ffb0ef          	jal	13566 <__sprint_r>
   17a2c:	9e0519e3          	bnez	a0,1741e <_vfiprintf_r+0x26e>
   17a30:	1441                	addi	s0,s0,-16
   17a32:	46a6                	lw	a3,72(sp)
   17a34:	4716                	lw	a4,68(sp)
   17a36:	87da                	mv	a5,s6
   17a38:	489d                	li	a7,7
   17a3a:	fc8949e3          	blt	s2,s0,17a0c <_vfiprintf_r+0x85c>
   17a3e:	4842                	lw	a6,16(sp)
   17a40:	4352                	lw	t1,20(sp)
   17a42:	4ee2                	lw	t4,24(sp)
   17a44:	96a2                	add	a3,a3,s0
   17a46:	0705                	addi	a4,a4,1
   17a48:	01d7a023          	sw	t4,0(a5)
   17a4c:	c3c0                	sw	s0,4(a5)
   17a4e:	c4b6                	sw	a3,72(sp)
   17a50:	c2ba                	sw	a4,68(sp)
   17a52:	461d                	li	a2,7
   17a54:	07a1                	addi	a5,a5,8
   17a56:	92e651e3          	bge	a2,a4,17378 <_vfiprintf_r+0x1c8>
   17a5a:	0090                	addi	a2,sp,64
   17a5c:	85ce                	mv	a1,s3
   17a5e:	8556                	mv	a0,s5
   17a60:	ca1a                	sw	t1,20(sp)
   17a62:	c842                	sw	a6,16(sp)
   17a64:	b03fb0ef          	jal	13566 <__sprint_r>
   17a68:	9a051be3          	bnez	a0,1741e <_vfiprintf_r+0x26e>
   17a6c:	46a6                	lw	a3,72(sp)
   17a6e:	4716                	lw	a4,68(sp)
   17a70:	4352                	lw	t1,20(sp)
   17a72:	4842                	lw	a6,16(sp)
   17a74:	87da                	mv	a5,s6
   17a76:	b209                	j	17378 <_vfiprintf_r+0x1c8>
   17a78:	0090                	addi	a2,sp,64
   17a7a:	85ce                	mv	a1,s3
   17a7c:	8556                	mv	a0,s5
   17a7e:	c842                	sw	a6,16(sp)
   17a80:	ae7fb0ef          	jal	13566 <__sprint_r>
   17a84:	98051de3          	bnez	a0,1741e <_vfiprintf_r+0x26e>
   17a88:	46a6                	lw	a3,72(sp)
   17a8a:	4842                	lw	a6,16(sp)
   17a8c:	87da                	mv	a5,s6
   17a8e:	b209                	j	17390 <_vfiprintf_r+0x1e0>
   17a90:	0090                	addi	a2,sp,64
   17a92:	85ce                	mv	a1,s3
   17a94:	8556                	mv	a0,s5
   17a96:	ad1fb0ef          	jal	13566 <__sprint_r>
   17a9a:	900509e3          	beqz	a0,173ac <_vfiprintf_r+0x1fc>
   17a9e:	b241                	j	1741e <_vfiprintf_r+0x26e>
   17aa0:	0090                	addi	a2,sp,64
   17aa2:	85ce                	mv	a1,s3
   17aa4:	8556                	mv	a0,s5
   17aa6:	cc1a                	sw	t1,24(sp)
   17aa8:	ca46                	sw	a7,20(sp)
   17aaa:	c842                	sw	a6,16(sp)
   17aac:	abbfb0ef          	jal	13566 <__sprint_r>
   17ab0:	960517e3          	bnez	a0,1741e <_vfiprintf_r+0x26e>
   17ab4:	46a6                	lw	a3,72(sp)
   17ab6:	4716                	lw	a4,68(sp)
   17ab8:	4362                	lw	t1,24(sp)
   17aba:	48d2                	lw	a7,20(sp)
   17abc:	4842                	lw	a6,16(sp)
   17abe:	87da                	mv	a5,s6
   17ac0:	b065                	j	17368 <_vfiprintf_r+0x1b8>
   17ac2:	0f010d93          	addi	s11,sp,240
   17ac6:	01d61593          	slli	a1,a2,0x1d
   17aca:	00777693          	andi	a3,a4,7
   17ace:	830d                	srli	a4,a4,0x3
   17ad0:	856e                	mv	a0,s11
   17ad2:	972e                	add	a4,a4,a1
   17ad4:	03068693          	addi	a3,a3,48
   17ad8:	820d                	srli	a2,a2,0x3
   17ada:	00c765b3          	or	a1,a4,a2
   17ade:	fedd8fa3          	sb	a3,-1(s11)
   17ae2:	1dfd                	addi	s11,s11,-1
   17ae4:	f1ed                	bnez	a1,17ac6 <_vfiprintf_r+0x916>
   17ae6:	fd068693          	addi	a3,a3,-48
   17aea:	c681                	beqz	a3,17af2 <_vfiprintf_r+0x942>
   17aec:	001d7713          	andi	a4,s10,1
   17af0:	ef5d                	bnez	a4,17bae <_vfiprintf_r+0x9fe>
   17af2:	1998                	addi	a4,sp,240
   17af4:	41b70333          	sub	t1,a4,s11
   17af8:	8822                	mv	a6,s0
   17afa:	80645be3          	bge	s0,t1,17310 <_vfiprintf_r+0x160>
   17afe:	881a                	mv	a6,t1
   17b00:	811ff06f          	j	17310 <_vfiprintf_r+0x160>
   17b04:	4e81                	li	t4,0
   17b06:	4fc1                	li	t6,16
   17b08:	86ae                	mv	a3,a1
   17b0a:	8732                	mv	a4,a2
   17b0c:	68ed                	lui	a7,0x1b
   17b0e:	4bcfd563          	bge	t6,t3,17fb8 <_vfiprintf_r+0xe08>
   17b12:	cc22                	sw	s0,24(sp)
   17b14:	d626                	sw	s1,44(sp)
   17b16:	4f1d                	li	t5,7
   17b18:	c842                	sw	a6,16(sp)
   17b1a:	ca76                	sw	t4,20(sp)
   17b1c:	8472                	mv	s0,t3
   17b1e:	d41a                	sw	t1,40(sp)
   17b20:	01088493          	addi	s1,a7,16 # 1b010 <blanks.1>
   17b24:	a021                	j	17b2c <_vfiprintf_r+0x97c>
   17b26:	1441                	addi	s0,s0,-16
   17b28:	028fdb63          	bge	t6,s0,17b5e <_vfiprintf_r+0x9ae>
   17b2c:	06c1                	addi	a3,a3,16
   17b2e:	0705                	addi	a4,a4,1
   17b30:	c384                	sw	s1,0(a5)
   17b32:	01f7a223          	sw	t6,4(a5)
   17b36:	c4b6                	sw	a3,72(sp)
   17b38:	c2ba                	sw	a4,68(sp)
   17b3a:	07a1                	addi	a5,a5,8
   17b3c:	feef55e3          	bge	t5,a4,17b26 <_vfiprintf_r+0x976>
   17b40:	0090                	addi	a2,sp,64
   17b42:	85ce                	mv	a1,s3
   17b44:	8556                	mv	a0,s5
   17b46:	a21fb0ef          	jal	13566 <__sprint_r>
   17b4a:	8c051ae3          	bnez	a0,1741e <_vfiprintf_r+0x26e>
   17b4e:	4fc1                	li	t6,16
   17b50:	1441                	addi	s0,s0,-16
   17b52:	46a6                	lw	a3,72(sp)
   17b54:	4716                	lw	a4,68(sp)
   17b56:	87da                	mv	a5,s6
   17b58:	4f1d                	li	t5,7
   17b5a:	fc8fc9e3          	blt	t6,s0,17b2c <_vfiprintf_r+0x97c>
   17b5e:	8e22                	mv	t3,s0
   17b60:	88a6                	mv	a7,s1
   17b62:	4842                	lw	a6,16(sp)
   17b64:	4ed2                	lw	t4,20(sp)
   17b66:	4462                	lw	s0,24(sp)
   17b68:	5322                	lw	t1,40(sp)
   17b6a:	54b2                	lw	s1,44(sp)
   17b6c:	96f2                	add	a3,a3,t3
   17b6e:	0705                	addi	a4,a4,1
   17b70:	c4b6                	sw	a3,72(sp)
   17b72:	c2ba                	sw	a4,68(sp)
   17b74:	0117a023          	sw	a7,0(a5)
   17b78:	01c7a223          	sw	t3,4(a5)
   17b7c:	461d                	li	a2,7
   17b7e:	1ee64b63          	blt	a2,a4,17d74 <_vfiprintf_r+0xbc4>
   17b82:	03b14603          	lbu	a2,59(sp)
   17b86:	07a1                	addi	a5,a5,8
   17b88:	e205                	bnez	a2,17ba8 <_vfiprintf_r+0x9f8>
   17b8a:	fe0e8363          	beqz	t4,17370 <_vfiprintf_r+0x1c0>
   17b8e:	4881                	li	a7,0
   17b90:	fc0ff06f          	j	17350 <_vfiprintf_r+0x1a0>
   17b94:	0004c683          	lbu	a3,0(s1)
   17b98:	0a11                	addi	s4,s4,4
   17b9a:	f24ff06f          	j	172be <_vfiprintf_r+0x10e>
   17b9e:	0805                	addi	a6,a6,1
   17ba0:	4305                	li	t1,1
   17ba2:	0ef10d93          	addi	s11,sp,239
   17ba6:	b265                	j	1754e <_vfiprintf_r+0x39e>
   17ba8:	4881                	li	a7,0
   17baa:	f88ff06f          	j	17332 <_vfiprintf_r+0x182>
   17bae:	1579                	addi	a0,a0,-2
   17bb0:	03000713          	li	a4,48
   17bb4:	1994                	addi	a3,sp,240
   17bb6:	40a68333          	sub	t1,a3,a0
   17bba:	feed8fa3          	sb	a4,-1(s11)
   17bbe:	8822                	mv	a6,s0
   17bc0:	00645363          	bge	s0,t1,17bc6 <_vfiprintf_r+0xa16>
   17bc4:	881a                	mv	a6,t1
   17bc6:	8daa                	mv	s11,a0
   17bc8:	f48ff06f          	j	17310 <_vfiprintf_r+0x160>
   17bcc:	886a                	mv	a6,s10
   17bce:	000a2703          	lw	a4,0(s4)
   17bd2:	4601                	li	a2,0
   17bd4:	8a2e                	mv	s4,a1
   17bd6:	bc69                	j	17670 <_vfiprintf_r+0x4c0>
   17bd8:	000a2883          	lw	a7,0(s4)
   17bdc:	8a2e                	mv	s4,a1
   17bde:	41f8d693          	srai	a3,a7,0x1f
   17be2:	8636                	mv	a2,a3
   17be4:	b291                	j	17528 <_vfiprintf_r+0x378>
   17be6:	000a2703          	lw	a4,0(s4)
   17bea:	41fc5613          	srai	a2,s8,0x1f
   17bee:	8a36                	mv	s4,a3
   17bf0:	01872023          	sw	s8,0(a4)
   17bf4:	c350                	sw	a2,4(a4)
   17bf6:	e68ff06f          	j	1725e <_vfiprintf_r+0xae>
   17bfa:	010d7813          	andi	a6,s10,16
   17bfe:	000a2883          	lw	a7,0(s4)
   17c02:	004a0593          	addi	a1,s4,4
   17c06:	aa081fe3          	bnez	a6,176c4 <_vfiprintf_r+0x514>
   17c0a:	040d7713          	andi	a4,s10,64
   17c0e:	12070c63          	beqz	a4,17d46 <_vfiprintf_r+0xb96>
   17c12:	08c2                	slli	a7,a7,0x10
   17c14:	02010da3          	sb	zero,59(sp)
   17c18:	0108d893          	srli	a7,a7,0x10
   17c1c:	4681                	li	a3,0
   17c1e:	12044f63          	bltz	s0,17d5c <_vfiprintf_r+0xbac>
   17c22:	f7fd7d13          	andi	s10,s10,-129
   17c26:	12041b63          	bnez	s0,17d5c <_vfiprintf_r+0xbac>
   17c2a:	00d8e733          	or	a4,a7,a3
   17c2e:	12071763          	bnez	a4,17d5c <_vfiprintf_r+0xbac>
   17c32:	8a2e                	mv	s4,a1
   17c34:	4301                	li	t1,0
   17c36:	0f010d93          	addi	s11,sp,240
   17c3a:	ed6ff06f          	j	17310 <_vfiprintf_r+0x160>
   17c3e:	886a                	mv	a6,s10
   17c40:	b40d                	j	17662 <_vfiprintf_r+0x4b2>
   17c42:	656d                	lui	a0,0x1b
   17c44:	002d6d13          	ori	s10,s10,2
   17c48:	8a36                	mv	s4,a3
   17c4a:	96450513          	addi	a0,a0,-1692 # 1a964 <__clzsi2+0x52>
   17c4e:	4589                	li	a1,2
   17c50:	0f010d93          	addi	s11,sp,240
   17c54:	00f77693          	andi	a3,a4,15
   17c58:	96aa                	add	a3,a3,a0
   17c5a:	0006c683          	lbu	a3,0(a3)
   17c5e:	01c61813          	slli	a6,a2,0x1c
   17c62:	8311                	srli	a4,a4,0x4
   17c64:	9742                	add	a4,a4,a6
   17c66:	8211                	srli	a2,a2,0x4
   17c68:	fedd8fa3          	sb	a3,-1(s11)
   17c6c:	00c766b3          	or	a3,a4,a2
   17c70:	1dfd                	addi	s11,s11,-1
   17c72:	f2ed                	bnez	a3,17c54 <_vfiprintf_r+0xaa4>
   17c74:	1998                	addi	a4,sp,240
   17c76:	41b70333          	sub	t1,a4,s11
   17c7a:	8822                	mv	a6,s0
   17c7c:	00645363          	bge	s0,t1,17c82 <_vfiprintf_r+0xad2>
   17c80:	881a                	mv	a6,t1
   17c82:	c40591e3          	bnez	a1,178c4 <_vfiprintf_r+0x714>
   17c86:	a8a1                	j	17cde <_vfiprintf_r+0xb2e>
   17c88:	4301                	li	t1,0
   17c8a:	4401                	li	s0,0
   17c8c:	0f010d93          	addi	s11,sp,240
   17c90:	e80ff06f          	j	17310 <_vfiprintf_r+0x160>
   17c94:	547d                	li	s0,-1
   17c96:	84ae                	mv	s1,a1
   17c98:	e28ff06f          	j	172c0 <_vfiprintf_r+0x110>
   17c9c:	656d                	lui	a0,0x1b
   17c9e:	020d7713          	andi	a4,s10,32
   17ca2:	97850513          	addi	a0,a0,-1672 # 1a978 <__clzsi2+0x66>
   17ca6:	c32d                	beqz	a4,17d08 <_vfiprintf_r+0xb58>
   17ca8:	007a0613          	addi	a2,s4,7
   17cac:	9a61                	andi	a2,a2,-8
   17cae:	4218                	lw	a4,0(a2)
   17cb0:	00860a13          	addi	s4,a2,8
   17cb4:	4250                	lw	a2,4(a2)
   17cb6:	001d7593          	andi	a1,s10,1
   17cba:	00c76833          	or	a6,a4,a2
   17cbe:	c199                	beqz	a1,17cc4 <_vfiprintf_r+0xb14>
   17cc0:	0e081263          	bnez	a6,17da4 <_vfiprintf_r+0xbf4>
   17cc4:	02010da3          	sb	zero,59(sp)
   17cc8:	0a044263          	bltz	s0,17d6c <_vfiprintf_r+0xbbc>
   17ccc:	b7fd7d13          	andi	s10,s10,-1153
   17cd0:	30041663          	bnez	s0,17fdc <_vfiprintf_r+0xe2c>
   17cd4:	30081463          	bnez	a6,17fdc <_vfiprintf_r+0xe2c>
   17cd8:	4301                	li	t1,0
   17cda:	0f010d93          	addi	s11,sp,240
   17cde:	46a6                	lw	a3,72(sp)
   17ce0:	4716                	lw	a4,68(sp)
   17ce2:	084d7893          	andi	a7,s10,132
   17ce6:	85b6                	mv	a1,a3
   17ce8:	863a                	mv	a2,a4
   17cea:	e2088b63          	beqz	a7,17320 <_vfiprintf_r+0x170>
   17cee:	03b14603          	lbu	a2,59(sp)
   17cf2:	4e81                	li	t4,0
   17cf4:	e2061f63          	bnez	a2,17332 <_vfiprintf_r+0x182>
   17cf8:	e70ff06f          	j	17368 <_vfiprintf_r+0x1b8>
   17cfc:	656d                	lui	a0,0x1b
   17cfe:	020d7713          	andi	a4,s10,32
   17d02:	96450513          	addi	a0,a0,-1692 # 1a964 <__clzsi2+0x52>
   17d06:	f34d                	bnez	a4,17ca8 <_vfiprintf_r+0xaf8>
   17d08:	010d7613          	andi	a2,s10,16
   17d0c:	000a2703          	lw	a4,0(s4)
   17d10:	0a11                	addi	s4,s4,4
   17d12:	ea39                	bnez	a2,17d68 <_vfiprintf_r+0xbb8>
   17d14:	040d7613          	andi	a2,s10,64
   17d18:	c621                	beqz	a2,17d60 <_vfiprintf_r+0xbb0>
   17d1a:	0742                	slli	a4,a4,0x10
   17d1c:	8341                	srli	a4,a4,0x10
   17d1e:	4601                	li	a2,0
   17d20:	bf59                	j	17cb6 <_vfiprintf_r+0xb06>
   17d22:	856e                	mv	a0,s11
   17d24:	e6efc0ef          	jal	14392 <strlen>
   17d28:	03b14703          	lbu	a4,59(sp)
   17d2c:	fff54813          	not	a6,a0
   17d30:	41f85813          	srai	a6,a6,0x1f
   17d34:	47c2                	lw	a5,16(sp)
   17d36:	832a                	mv	t1,a0
   17d38:	01057833          	and	a6,a0,a6
   17d3c:	860711e3          	bnez	a4,1759e <_vfiprintf_r+0x3ee>
   17d40:	4401                	li	s0,0
   17d42:	dceff06f          	j	17310 <_vfiprintf_r+0x160>
   17d46:	200d7713          	andi	a4,s10,512
   17d4a:	02010da3          	sb	zero,59(sp)
   17d4e:	14070763          	beqz	a4,17e9c <_vfiprintf_r+0xcec>
   17d52:	0ff8f893          	zext.b	a7,a7
   17d56:	4681                	li	a3,0
   17d58:	ec0455e3          	bgez	s0,17c22 <_vfiprintf_r+0xa72>
   17d5c:	8a2e                	mv	s4,a1
   17d5e:	b055                	j	17602 <_vfiprintf_r+0x452>
   17d60:	200d7613          	andi	a2,s10,512
   17d64:	12061363          	bnez	a2,17e8a <_vfiprintf_r+0xcda>
   17d68:	4601                	li	a2,0
   17d6a:	b7b1                	j	17cb6 <_vfiprintf_r+0xb06>
   17d6c:	bffd7d13          	andi	s10,s10,-1025
   17d70:	4581                	li	a1,0
   17d72:	bdf9                	j	17c50 <_vfiprintf_r+0xaa0>
   17d74:	0090                	addi	a2,sp,64
   17d76:	85ce                	mv	a1,s3
   17d78:	8556                	mv	a0,s5
   17d7a:	cc1a                	sw	t1,24(sp)
   17d7c:	ca76                	sw	t4,20(sp)
   17d7e:	c842                	sw	a6,16(sp)
   17d80:	fe6fb0ef          	jal	13566 <__sprint_r>
   17d84:	88aa                	mv	a7,a0
   17d86:	e8051c63          	bnez	a0,1741e <_vfiprintf_r+0x26e>
   17d8a:	03b14783          	lbu	a5,59(sp)
   17d8e:	46a6                	lw	a3,72(sp)
   17d90:	4716                	lw	a4,68(sp)
   17d92:	4842                	lw	a6,16(sp)
   17d94:	4ed2                	lw	t4,20(sp)
   17d96:	4362                	lw	t1,24(sp)
   17d98:	e7cd                	bnez	a5,17e42 <_vfiprintf_r+0xc92>
   17d9a:	87da                	mv	a5,s6
   17d9c:	da0e9a63          	bnez	t4,17350 <_vfiprintf_r+0x1a0>
   17da0:	dd0ff06f          	j	17370 <_vfiprintf_r+0x1c0>
   17da4:	02d10ea3          	sb	a3,61(sp)
   17da8:	03000693          	li	a3,48
   17dac:	02010da3          	sb	zero,59(sp)
   17db0:	02d10e23          	sb	a3,60(sp)
   17db4:	0a044663          	bltz	s0,17e60 <_vfiprintf_r+0xcb0>
   17db8:	b7fd7d13          	andi	s10,s10,-1153
   17dbc:	002d6d13          	ori	s10,s10,2
   17dc0:	4589                	li	a1,2
   17dc2:	b579                	j	17c50 <_vfiprintf_r+0xaa0>
   17dc4:	eaed                	bnez	a3,17eb6 <_vfiprintf_r+0xd06>
   17dc6:	4725                	li	a4,9
   17dc8:	0f176763          	bltu	a4,a7,17eb6 <_vfiprintf_r+0xd06>
   17dcc:	1998                	addi	a4,sp,240
   17dce:	41b70333          	sub	t1,a4,s11
   17dd2:	8822                	mv	a6,s0
   17dd4:	03b14703          	lbu	a4,59(sp)
   17dd8:	00645363          	bge	s0,t1,17dde <_vfiprintf_r+0xc2e>
   17ddc:	881a                	mv	a6,t1
   17dde:	00e03733          	snez	a4,a4
   17de2:	983a                	add	a6,a6,a4
   17de4:	bded                	j	17cde <_vfiprintf_r+0xb2e>
   17de6:	ed6f80ef          	jal	104bc <__sinit>
   17dea:	bf0ff06f          	j	171da <_vfiprintf_r+0x2a>
   17dee:	0014c683          	lbu	a3,1(s1)
   17df2:	020d6d13          	ori	s10,s10,32
   17df6:	0485                	addi	s1,s1,1
   17df8:	cc6ff06f          	j	172be <_vfiprintf_r+0x10e>
   17dfc:	0014c683          	lbu	a3,1(s1)
   17e00:	200d6d13          	ori	s10,s10,512
   17e04:	0485                	addi	s1,s1,1
   17e06:	cb8ff06f          	j	172be <_vfiprintf_r+0x10e>
   17e0a:	000a2703          	lw	a4,0(s4)
   17e0e:	8a36                	mv	s4,a3
   17e10:	01872023          	sw	s8,0(a4)
   17e14:	c4aff06f          	j	1725e <_vfiprintf_r+0xae>
   17e18:	4719                	li	a4,6
   17e1a:	8822                	mv	a6,s0
   17e1c:	04876863          	bltu	a4,s0,17e6c <_vfiprintf_r+0xcbc>
   17e20:	6ded                	lui	s11,0x1b
   17e22:	98cd8d93          	addi	s11,s11,-1652 # 1a98c <__clzsi2+0x7a>
   17e26:	8342                	mv	t1,a6
   17e28:	4401                	li	s0,0
   17e2a:	ce6ff06f          	j	17310 <_vfiprintf_r+0x160>
   17e2e:	200d7693          	andi	a3,s10,512
   17e32:	c2a5                	beqz	a3,17e92 <_vfiprintf_r+0xce2>
   17e34:	0ff77713          	zext.b	a4,a4
   17e38:	8a2e                	mv	s4,a1
   17e3a:	886a                	mv	a6,s10
   17e3c:	4601                	li	a2,0
   17e3e:	833ff06f          	j	17670 <_vfiprintf_r+0x4c0>
   17e42:	87da                	mv	a5,s6
   17e44:	ceeff06f          	j	17332 <_vfiprintf_r+0x182>
   17e48:	200d7713          	andi	a4,s10,512
   17e4c:	cb0d                	beqz	a4,17e7e <_vfiprintf_r+0xcce>
   17e4e:	08e2                	slli	a7,a7,0x18
   17e50:	4188d893          	srai	a7,a7,0x18
   17e54:	41f8d693          	srai	a3,a7,0x1f
   17e58:	8a2e                	mv	s4,a1
   17e5a:	8636                	mv	a2,a3
   17e5c:	eccff06f          	j	17528 <_vfiprintf_r+0x378>
   17e60:	bffd7d13          	andi	s10,s10,-1025
   17e64:	002d6d13          	ori	s10,s10,2
   17e68:	4589                	li	a1,2
   17e6a:	b3dd                	j	17c50 <_vfiprintf_r+0xaa0>
   17e6c:	883a                	mv	a6,a4
   17e6e:	bf4d                	j	17e20 <_vfiprintf_r+0xc70>
   17e70:	000a2703          	lw	a4,0(s4)
   17e74:	8a36                	mv	s4,a3
   17e76:	01871023          	sh	s8,0(a4)
   17e7a:	be4ff06f          	j	1725e <_vfiprintf_r+0xae>
   17e7e:	41f8d693          	srai	a3,a7,0x1f
   17e82:	8a2e                	mv	s4,a1
   17e84:	8636                	mv	a2,a3
   17e86:	ea2ff06f          	j	17528 <_vfiprintf_r+0x378>
   17e8a:	0ff77713          	zext.b	a4,a4
   17e8e:	4601                	li	a2,0
   17e90:	b51d                	j	17cb6 <_vfiprintf_r+0xb06>
   17e92:	8a2e                	mv	s4,a1
   17e94:	886a                	mv	a6,s10
   17e96:	4601                	li	a2,0
   17e98:	fd8ff06f          	j	17670 <_vfiprintf_r+0x4c0>
   17e9c:	4681                	li	a3,0
   17e9e:	8a2e                	mv	s4,a1
   17ea0:	d80451e3          	bgez	s0,17c22 <_vfiprintf_r+0xa72>
   17ea4:	f62ff06f          	j	17606 <_vfiprintf_r+0x456>
   17ea8:	8556                	mv	a0,s5
   17eaa:	0090                	addi	a2,sp,64
   17eac:	85ce                	mv	a1,s3
   17eae:	eb8fb0ef          	jal	13566 <__sprint_r>
   17eb2:	d6cff06f          	j	1741e <_vfiprintf_r+0x26e>
   17eb6:	5602                	lw	a2,32(sp)
   17eb8:	5592                	lw	a1,36(sp)
   17eba:	d636                	sw	a3,44(sp)
   17ebc:	40cd8eb3          	sub	t4,s11,a2
   17ec0:	8576                	mv	a0,t4
   17ec2:	d446                	sw	a7,40(sp)
   17ec4:	cc72                	sw	t3,24(sp)
   17ec6:	ca3e                	sw	a5,20(sp)
   17ec8:	c876                	sw	t4,16(sp)
   17eca:	fb3fb0ef          	jal	13e7c <strncpy>
   17ece:	58a2                	lw	a7,40(sp)
   17ed0:	56b2                	lw	a3,44(sp)
   17ed2:	47f2                	lw	a5,28(sp)
   17ed4:	ccccd537          	lui	a0,0xccccd
   17ed8:	00d88733          	add	a4,a7,a3
   17edc:	01173633          	sltu	a2,a4,a7
   17ee0:	9732                	add	a4,a4,a2
   17ee2:	ccccd637          	lui	a2,0xccccd
   17ee6:	ccd60613          	addi	a2,a2,-819 # cccccccd <__BSS_END__+0xcccb0119>
   17eea:	02c735b3          	mulhu	a1,a4,a2
   17eee:	0017cf03          	lbu	t5,1(a5)
   17ef2:	ccc50513          	addi	a0,a0,-820 # cccccccc <__BSS_END__+0xcccb0118>
   17ef6:	4ec2                	lw	t4,16(sp)
   17ef8:	01e03f33          	snez	t5,t5
   17efc:	97fa                	add	a5,a5,t5
   17efe:	ccccd837          	lui	a6,0xccccd
   17f02:	ccccd337          	lui	t1,0xccccd
   17f06:	ce3e                	sw	a5,28(sp)
   17f08:	4e62                	lw	t3,24(sp)
   17f0a:	0025df13          	srli	t5,a1,0x2
   17f0e:	99f1                	andi	a1,a1,-4
   17f10:	95fa                	add	a1,a1,t5
   17f12:	8f0d                	sub	a4,a4,a1
   17f14:	40e88733          	sub	a4,a7,a4
   17f18:	00e8b8b3          	sltu	a7,a7,a4
   17f1c:	411686b3          	sub	a3,a3,a7
   17f20:	02a70533          	mul	a0,a4,a0
   17f24:	47d2                	lw	a5,20(sp)
   17f26:	fffe8d93          	addi	s11,t4,-1 # 1afff <_ctype_+0x26f>
   17f2a:	ccd80813          	addi	a6,a6,-819 # cccccccd <__BSS_END__+0xcccb0119>
   17f2e:	ccc30313          	addi	t1,t1,-820 # cccccccc <__BSS_END__+0xcccb0118>
   17f32:	02c686b3          	mul	a3,a3,a2
   17f36:	02c735b3          	mulhu	a1,a4,a2
   17f3a:	96aa                	add	a3,a3,a0
   17f3c:	4505                	li	a0,1
   17f3e:	02c70733          	mul	a4,a4,a2
   17f42:	96ae                	add	a3,a3,a1
   17f44:	01f69593          	slli	a1,a3,0x1f
   17f48:	8285                	srli	a3,a3,0x1
   17f4a:	8305                	srli	a4,a4,0x1
   17f4c:	00e588b3          	add	a7,a1,a4
   17f50:	00d88733          	add	a4,a7,a3
   17f54:	011735b3          	sltu	a1,a4,a7
   17f58:	972e                	add	a4,a4,a1
   17f5a:	02c735b3          	mulhu	a1,a4,a2
   17f5e:	0025df13          	srli	t5,a1,0x2
   17f62:	99f1                	andi	a1,a1,-4
   17f64:	95fa                	add	a1,a1,t5
   17f66:	8f0d                	sub	a4,a4,a1
   17f68:	40e88733          	sub	a4,a7,a4
   17f6c:	00e8b5b3          	sltu	a1,a7,a4
   17f70:	40b685b3          	sub	a1,a3,a1
   17f74:	02c73f33          	mulhu	t5,a4,a2
   17f78:	02c585b3          	mul	a1,a1,a2
   17f7c:	02c70733          	mul	a4,a4,a2
   17f80:	01e58633          	add	a2,a1,t5
   17f84:	067e                	slli	a2,a2,0x1f
   17f86:	8305                	srli	a4,a4,0x1
   17f88:	9732                	add	a4,a4,a2
   17f8a:	00271613          	slli	a2,a4,0x2
   17f8e:	9732                	add	a4,a4,a2
   17f90:	0706                	slli	a4,a4,0x1
   17f92:	40e88733          	sub	a4,a7,a4
   17f96:	03070713          	addi	a4,a4,48
   17f9a:	feee8fa3          	sb	a4,-1(t4)
   17f9e:	f8aff06f          	j	17728 <_vfiprintf_r+0x578>
   17fa2:	4725                	li	a4,9
   17fa4:	ffd76363          	bltu	a4,t4,1778a <_vfiprintf_r+0x5da>
   17fa8:	b515                	j	17dcc <_vfiprintf_r+0xc1c>
   17faa:	c705                	beqz	a4,17fd2 <_vfiprintf_r+0xe22>
   17fac:	00140813          	addi	a6,s0,1
   17fb0:	8322                	mv	t1,s0
   17fb2:	4401                	li	s0,0
   17fb4:	d9aff06f          	j	1754e <_vfiprintf_r+0x39e>
   17fb8:	01088893          	addi	a7,a7,16
   17fbc:	be45                	j	17b6c <_vfiprintf_r+0x9bc>
   17fbe:	5c7d                	li	s8,-1
   17fc0:	c84ff06f          	j	17444 <_vfiprintf_r+0x294>
   17fc4:	01088893          	addi	a7,a7,16
   17fc8:	d0cff06f          	j	174d4 <_vfiprintf_r+0x324>
   17fcc:	000e8e93          	mv	t4,t4
   17fd0:	b2dd                	j	179b6 <_vfiprintf_r+0x806>
   17fd2:	8322                	mv	t1,s0
   17fd4:	8822                	mv	a6,s0
   17fd6:	4401                	li	s0,0
   17fd8:	b38ff06f          	j	17310 <_vfiprintf_r+0x160>
   17fdc:	4581                	li	a1,0
   17fde:	b98d                	j	17c50 <_vfiprintf_r+0xaa0>
   17fe0:	000a2403          	lw	s0,0(s4)
   17fe4:	0a11                	addi	s4,s4,4
   17fe6:	00045363          	bgez	s0,17fec <_vfiprintf_r+0xe3c>
   17fea:	547d                	li	s0,-1
   17fec:	0014c683          	lbu	a3,1(s1)
   17ff0:	84ae                	mv	s1,a1
   17ff2:	accff06f          	j	172be <_vfiprintf_r+0x10e>
   17ff6:	656d                	lui	a0,0x1b
   17ff8:	8a36                	mv	s4,a3
   17ffa:	96450513          	addi	a0,a0,-1692 # 1a964 <__clzsi2+0x52>
   17ffe:	4589                	li	a1,2
   18000:	b981                	j	17c50 <_vfiprintf_r+0xaa0>

00018002 <vfiprintf>:
   18002:	872a                	mv	a4,a0
   18004:	f3c1a503          	lw	a0,-196(gp) # 1c86c <_impure_ptr>
   18008:	86b2                	mv	a3,a2
   1800a:	862e                	mv	a2,a1
   1800c:	85ba                	mv	a1,a4
   1800e:	9a2ff06f          	j	171b0 <_vfiprintf_r>

00018012 <__sbprintf>:
   18012:	00c5d783          	lhu	a5,12(a1)
   18016:	0645ae83          	lw	t4,100(a1)
   1801a:	00e5de03          	lhu	t3,14(a1)
   1801e:	01c5a303          	lw	t1,28(a1)
   18022:	0245a883          	lw	a7,36(a1)
   18026:	b7010113          	addi	sp,sp,-1168
   1802a:	9bf5                	andi	a5,a5,-3
   1802c:	08010813          	addi	a6,sp,128
   18030:	40000713          	li	a4,1024
   18034:	48812423          	sw	s0,1160(sp)
   18038:	842e                	mv	s0,a1
   1803a:	082c                	addi	a1,sp,24
   1803c:	48912223          	sw	s1,1156(sp)
   18040:	02f11223          	sh	a5,36(sp)
   18044:	48112623          	sw	ra,1164(sp)
   18048:	d802                	sw	zero,48(sp)
   1804a:	def6                	sw	t4,124(sp)
   1804c:	03c11323          	sh	t3,38(sp)
   18050:	da1a                	sw	t1,52(sp)
   18052:	de46                	sw	a7,60(sp)
   18054:	cc42                	sw	a6,24(sp)
   18056:	d442                	sw	a6,40(sp)
   18058:	d03a                	sw	a4,32(sp)
   1805a:	d63a                	sw	a4,44(sp)
   1805c:	84aa                	mv	s1,a0
   1805e:	952ff0ef          	jal	171b0 <_vfiprintf_r>
   18062:	87aa                	mv	a5,a0
   18064:	02055763          	bgez	a0,18092 <__sbprintf+0x80>
   18068:	02415703          	lhu	a4,36(sp)
   1806c:	04077713          	andi	a4,a4,64
   18070:	c719                	beqz	a4,1807e <__sbprintf+0x6c>
   18072:	00c45703          	lhu	a4,12(s0)
   18076:	04076713          	ori	a4,a4,64
   1807a:	00e41623          	sh	a4,12(s0)
   1807e:	48c12083          	lw	ra,1164(sp)
   18082:	48812403          	lw	s0,1160(sp)
   18086:	48412483          	lw	s1,1156(sp)
   1808a:	853e                	mv	a0,a5
   1808c:	49010113          	addi	sp,sp,1168
   18090:	8082                	ret
   18092:	c62a                	sw	a0,12(sp)
   18094:	082c                	addi	a1,sp,24
   18096:	8526                	mv	a0,s1
   18098:	f44fb0ef          	jal	137dc <_fflush_r>
   1809c:	47b2                	lw	a5,12(sp)
   1809e:	d569                	beqz	a0,18068 <__sbprintf+0x56>
   180a0:	57fd                	li	a5,-1
   180a2:	b7d9                	j	18068 <__sbprintf+0x56>

000180a4 <__errno>:
   180a4:	f3c1a503          	lw	a0,-196(gp) # 1c86c <_impure_ptr>
   180a8:	8082                	ret

000180aa <abort>:
   180aa:	1141                	addi	sp,sp,-16
   180ac:	4519                	li	a0,6
   180ae:	c606                	sw	ra,12(sp)
   180b0:	2abd                	jal	1822e <raise>
   180b2:	4505                	li	a0,1
   180b4:	26b5                	jal	18420 <_exit>

000180b6 <_init_signal_r>:
   180b6:	11852703          	lw	a4,280(a0)
   180ba:	c319                	beqz	a4,180c0 <_init_signal_r+0xa>
   180bc:	4501                	li	a0,0
   180be:	8082                	ret
   180c0:	1101                	addi	sp,sp,-32
   180c2:	08000593          	li	a1,128
   180c6:	ce06                	sw	ra,28(sp)
   180c8:	c62a                	sw	a0,12(sp)
   180ca:	cf3f80ef          	jal	10dbc <_malloc_r>
   180ce:	47b2                	lw	a5,12(sp)
   180d0:	10a7ac23          	sw	a0,280(a5)
   180d4:	cd01                	beqz	a0,180ec <_init_signal_r+0x36>
   180d6:	08050793          	addi	a5,a0,128
   180da:	00052023          	sw	zero,0(a0)
   180de:	0511                	addi	a0,a0,4
   180e0:	fef51de3          	bne	a0,a5,180da <_init_signal_r+0x24>
   180e4:	4501                	li	a0,0
   180e6:	40f2                	lw	ra,28(sp)
   180e8:	6105                	addi	sp,sp,32
   180ea:	8082                	ret
   180ec:	557d                	li	a0,-1
   180ee:	bfe5                	j	180e6 <_init_signal_r+0x30>

000180f0 <_signal_r>:
   180f0:	477d                	li	a4,31
   180f2:	00b76a63          	bltu	a4,a1,18106 <_signal_r+0x16>
   180f6:	11852703          	lw	a4,280(a0)
   180fa:	cb11                	beqz	a4,1810e <_signal_r+0x1e>
   180fc:	058a                	slli	a1,a1,0x2
   180fe:	972e                	add	a4,a4,a1
   18100:	4308                	lw	a0,0(a4)
   18102:	c310                	sw	a2,0(a4)
   18104:	8082                	ret
   18106:	4759                	li	a4,22
   18108:	c118                	sw	a4,0(a0)
   1810a:	557d                	li	a0,-1
   1810c:	8082                	ret
   1810e:	1101                	addi	sp,sp,-32
   18110:	c22e                	sw	a1,4(sp)
   18112:	08000593          	li	a1,128
   18116:	c432                	sw	a2,8(sp)
   18118:	ce06                	sw	ra,28(sp)
   1811a:	c62a                	sw	a0,12(sp)
   1811c:	ca1f80ef          	jal	10dbc <_malloc_r>
   18120:	46b2                	lw	a3,12(sp)
   18122:	872a                	mv	a4,a0
   18124:	08050593          	addi	a1,a0,128
   18128:	10a6ac23          	sw	a0,280(a3)
   1812c:	4792                	lw	a5,4(sp)
   1812e:	86aa                	mv	a3,a0
   18130:	4622                	lw	a2,8(sp)
   18132:	557d                	li	a0,-1
   18134:	cb19                	beqz	a4,1814a <_signal_r+0x5a>
   18136:	0006a023          	sw	zero,0(a3)
   1813a:	0691                	addi	a3,a3,4
   1813c:	feb69de3          	bne	a3,a1,18136 <_signal_r+0x46>
   18140:	00279593          	slli	a1,a5,0x2
   18144:	972e                	add	a4,a4,a1
   18146:	4308                	lw	a0,0(a4)
   18148:	c310                	sw	a2,0(a4)
   1814a:	40f2                	lw	ra,28(sp)
   1814c:	6105                	addi	sp,sp,32
   1814e:	8082                	ret

00018150 <_raise_r>:
   18150:	47fd                	li	a5,31
   18152:	04b7eb63          	bltu	a5,a1,181a8 <_raise_r+0x58>
   18156:	11852783          	lw	a5,280(a0)
   1815a:	1101                	addi	sp,sp,-32
   1815c:	ce06                	sw	ra,28(sp)
   1815e:	872a                	mv	a4,a0
   18160:	862e                	mv	a2,a1
   18162:	c785                	beqz	a5,1818a <_raise_r+0x3a>
   18164:	00259693          	slli	a3,a1,0x2
   18168:	97b6                	add	a5,a5,a3
   1816a:	4394                	lw	a3,0(a5)
   1816c:	ce99                	beqz	a3,1818a <_raise_r+0x3a>
   1816e:	4505                	li	a0,1
   18170:	00a68963          	beq	a3,a0,18182 <_raise_r+0x32>
   18174:	55fd                	li	a1,-1
   18176:	02b68463          	beq	a3,a1,1819e <_raise_r+0x4e>
   1817a:	0007a023          	sw	zero,0(a5)
   1817e:	8532                	mv	a0,a2
   18180:	9682                	jalr	a3
   18182:	40f2                	lw	ra,28(sp)
   18184:	4501                	li	a0,0
   18186:	6105                	addi	sp,sp,32
   18188:	8082                	ret
   1818a:	853a                	mv	a0,a4
   1818c:	c632                	sw	a2,12(sp)
   1818e:	c43a                	sw	a4,8(sp)
   18190:	249d                	jal	183f6 <_getpid_r>
   18192:	4632                	lw	a2,12(sp)
   18194:	40f2                	lw	ra,28(sp)
   18196:	85aa                	mv	a1,a0
   18198:	4522                	lw	a0,8(sp)
   1819a:	6105                	addi	sp,sp,32
   1819c:	a40d                	j	183be <_kill_r>
   1819e:	40f2                	lw	ra,28(sp)
   181a0:	47d9                	li	a5,22
   181a2:	c31c                	sw	a5,0(a4)
   181a4:	6105                	addi	sp,sp,32
   181a6:	8082                	ret
   181a8:	47d9                	li	a5,22
   181aa:	c11c                	sw	a5,0(a0)
   181ac:	557d                	li	a0,-1
   181ae:	8082                	ret

000181b0 <__sigtramp_r>:
   181b0:	47fd                	li	a5,31
   181b2:	06b7ec63          	bltu	a5,a1,1822a <__sigtramp_r+0x7a>
   181b6:	11852783          	lw	a5,280(a0)
   181ba:	1101                	addi	sp,sp,-32
   181bc:	ce06                	sw	ra,28(sp)
   181be:	872e                	mv	a4,a1
   181c0:	cf95                	beqz	a5,181fc <__sigtramp_r+0x4c>
   181c2:	00271693          	slli	a3,a4,0x2
   181c6:	97b6                	add	a5,a5,a3
   181c8:	4394                	lw	a3,0(a5)
   181ca:	ce99                	beqz	a3,181e8 <__sigtramp_r+0x38>
   181cc:	567d                	li	a2,-1
   181ce:	02c68563          	beq	a3,a2,181f8 <__sigtramp_r+0x48>
   181d2:	4605                	li	a2,1
   181d4:	00c68e63          	beq	a3,a2,181f0 <__sigtramp_r+0x40>
   181d8:	853a                	mv	a0,a4
   181da:	0007a023          	sw	zero,0(a5)
   181de:	9682                	jalr	a3
   181e0:	4501                	li	a0,0
   181e2:	40f2                	lw	ra,28(sp)
   181e4:	6105                	addi	sp,sp,32
   181e6:	8082                	ret
   181e8:	40f2                	lw	ra,28(sp)
   181ea:	4505                	li	a0,1
   181ec:	6105                	addi	sp,sp,32
   181ee:	8082                	ret
   181f0:	40f2                	lw	ra,28(sp)
   181f2:	450d                	li	a0,3
   181f4:	6105                	addi	sp,sp,32
   181f6:	8082                	ret
   181f8:	4509                	li	a0,2
   181fa:	b7e5                	j	181e2 <__sigtramp_r+0x32>
   181fc:	c62e                	sw	a1,12(sp)
   181fe:	08000593          	li	a1,128
   18202:	c42a                	sw	a0,8(sp)
   18204:	bb9f80ef          	jal	10dbc <_malloc_r>
   18208:	46a2                	lw	a3,8(sp)
   1820a:	87aa                	mv	a5,a0
   1820c:	10a6ac23          	sw	a0,280(a3)
   18210:	c919                	beqz	a0,18226 <__sigtramp_r+0x76>
   18212:	4732                	lw	a4,12(sp)
   18214:	86aa                	mv	a3,a0
   18216:	08050613          	addi	a2,a0,128
   1821a:	0006a023          	sw	zero,0(a3)
   1821e:	0691                	addi	a3,a3,4
   18220:	fec69de3          	bne	a3,a2,1821a <__sigtramp_r+0x6a>
   18224:	bf79                	j	181c2 <__sigtramp_r+0x12>
   18226:	557d                	li	a0,-1
   18228:	bf6d                	j	181e2 <__sigtramp_r+0x32>
   1822a:	557d                	li	a0,-1
   1822c:	8082                	ret

0001822e <raise>:
   1822e:	47fd                	li	a5,31
   18230:	f3c1a803          	lw	a6,-196(gp) # 1c86c <_impure_ptr>
   18234:	04a7eb63          	bltu	a5,a0,1828a <raise+0x5c>
   18238:	11882783          	lw	a5,280(a6)
   1823c:	1101                	addi	sp,sp,-32
   1823e:	ce06                	sw	ra,28(sp)
   18240:	862a                	mv	a2,a0
   18242:	c39d                	beqz	a5,18268 <raise+0x3a>
   18244:	00251713          	slli	a4,a0,0x2
   18248:	97ba                	add	a5,a5,a4
   1824a:	4398                	lw	a4,0(a5)
   1824c:	cf11                	beqz	a4,18268 <raise+0x3a>
   1824e:	4685                	li	a3,1
   18250:	00d70863          	beq	a4,a3,18260 <raise+0x32>
   18254:	567d                	li	a2,-1
   18256:	02c70363          	beq	a4,a2,1827c <raise+0x4e>
   1825a:	0007a023          	sw	zero,0(a5)
   1825e:	9702                	jalr	a4
   18260:	40f2                	lw	ra,28(sp)
   18262:	4501                	li	a0,0
   18264:	6105                	addi	sp,sp,32
   18266:	8082                	ret
   18268:	8542                	mv	a0,a6
   1826a:	c632                	sw	a2,12(sp)
   1826c:	c442                	sw	a6,8(sp)
   1826e:	2261                	jal	183f6 <_getpid_r>
   18270:	4632                	lw	a2,12(sp)
   18272:	40f2                	lw	ra,28(sp)
   18274:	85aa                	mv	a1,a0
   18276:	4522                	lw	a0,8(sp)
   18278:	6105                	addi	sp,sp,32
   1827a:	a291                	j	183be <_kill_r>
   1827c:	40f2                	lw	ra,28(sp)
   1827e:	47d9                	li	a5,22
   18280:	00f82023          	sw	a5,0(a6)
   18284:	8536                	mv	a0,a3
   18286:	6105                	addi	sp,sp,32
   18288:	8082                	ret
   1828a:	47d9                	li	a5,22
   1828c:	00f82023          	sw	a5,0(a6)
   18290:	557d                	li	a0,-1
   18292:	8082                	ret

00018294 <signal>:
   18294:	47fd                	li	a5,31
   18296:	f3c1a603          	lw	a2,-196(gp) # 1c86c <_impure_ptr>
   1829a:	00a7ea63          	bltu	a5,a0,182ae <signal+0x1a>
   1829e:	11862703          	lw	a4,280(a2)
   182a2:	cb11                	beqz	a4,182b6 <signal+0x22>
   182a4:	050a                	slli	a0,a0,0x2
   182a6:	972a                	add	a4,a4,a0
   182a8:	4308                	lw	a0,0(a4)
   182aa:	c30c                	sw	a1,0(a4)
   182ac:	8082                	ret
   182ae:	47d9                	li	a5,22
   182b0:	c21c                	sw	a5,0(a2)
   182b2:	557d                	li	a0,-1
   182b4:	8082                	ret
   182b6:	1101                	addi	sp,sp,-32
   182b8:	c62e                	sw	a1,12(sp)
   182ba:	c42a                	sw	a0,8(sp)
   182bc:	08000593          	li	a1,128
   182c0:	8532                	mv	a0,a2
   182c2:	c232                	sw	a2,4(sp)
   182c4:	ce06                	sw	ra,28(sp)
   182c6:	af7f80ef          	jal	10dbc <_malloc_r>
   182ca:	4612                	lw	a2,4(sp)
   182cc:	872a                	mv	a4,a0
   182ce:	08050593          	addi	a1,a0,128
   182d2:	10a62c23          	sw	a0,280(a2)
   182d6:	47a2                	lw	a5,8(sp)
   182d8:	862a                	mv	a2,a0
   182da:	46b2                	lw	a3,12(sp)
   182dc:	557d                	li	a0,-1
   182de:	cb19                	beqz	a4,182f4 <signal+0x60>
   182e0:	00062023          	sw	zero,0(a2)
   182e4:	0611                	addi	a2,a2,4
   182e6:	fec59de3          	bne	a1,a2,182e0 <signal+0x4c>
   182ea:	00279513          	slli	a0,a5,0x2
   182ee:	972a                	add	a4,a4,a0
   182f0:	4308                	lw	a0,0(a4)
   182f2:	c314                	sw	a3,0(a4)
   182f4:	40f2                	lw	ra,28(sp)
   182f6:	6105                	addi	sp,sp,32
   182f8:	8082                	ret

000182fa <_init_signal>:
   182fa:	f3c1a783          	lw	a5,-196(gp) # 1c86c <_impure_ptr>
   182fe:	1187a703          	lw	a4,280(a5)
   18302:	c319                	beqz	a4,18308 <_init_signal+0xe>
   18304:	4501                	li	a0,0
   18306:	8082                	ret
   18308:	1101                	addi	sp,sp,-32
   1830a:	853e                	mv	a0,a5
   1830c:	08000593          	li	a1,128
   18310:	c63e                	sw	a5,12(sp)
   18312:	ce06                	sw	ra,28(sp)
   18314:	aa9f80ef          	jal	10dbc <_malloc_r>
   18318:	47b2                	lw	a5,12(sp)
   1831a:	10a7ac23          	sw	a0,280(a5)
   1831e:	cd01                	beqz	a0,18336 <_init_signal+0x3c>
   18320:	08050793          	addi	a5,a0,128
   18324:	00052023          	sw	zero,0(a0)
   18328:	0511                	addi	a0,a0,4
   1832a:	fef51de3          	bne	a0,a5,18324 <_init_signal+0x2a>
   1832e:	4501                	li	a0,0
   18330:	40f2                	lw	ra,28(sp)
   18332:	6105                	addi	sp,sp,32
   18334:	8082                	ret
   18336:	557d                	li	a0,-1
   18338:	bfe5                	j	18330 <_init_signal+0x36>

0001833a <__sigtramp>:
   1833a:	47fd                	li	a5,31
   1833c:	06a7ef63          	bltu	a5,a0,183ba <__sigtramp+0x80>
   18340:	f3c1a683          	lw	a3,-196(gp) # 1c86c <_impure_ptr>
   18344:	1101                	addi	sp,sp,-32
   18346:	ce06                	sw	ra,28(sp)
   18348:	1186a783          	lw	a5,280(a3)
   1834c:	872a                	mv	a4,a0
   1834e:	cf95                	beqz	a5,1838a <__sigtramp+0x50>
   18350:	00271693          	slli	a3,a4,0x2
   18354:	97b6                	add	a5,a5,a3
   18356:	4394                	lw	a3,0(a5)
   18358:	ce99                	beqz	a3,18376 <__sigtramp+0x3c>
   1835a:	567d                	li	a2,-1
   1835c:	02c68563          	beq	a3,a2,18386 <__sigtramp+0x4c>
   18360:	4605                	li	a2,1
   18362:	00c68e63          	beq	a3,a2,1837e <__sigtramp+0x44>
   18366:	853a                	mv	a0,a4
   18368:	0007a023          	sw	zero,0(a5)
   1836c:	9682                	jalr	a3
   1836e:	4501                	li	a0,0
   18370:	40f2                	lw	ra,28(sp)
   18372:	6105                	addi	sp,sp,32
   18374:	8082                	ret
   18376:	40f2                	lw	ra,28(sp)
   18378:	4505                	li	a0,1
   1837a:	6105                	addi	sp,sp,32
   1837c:	8082                	ret
   1837e:	40f2                	lw	ra,28(sp)
   18380:	450d                	li	a0,3
   18382:	6105                	addi	sp,sp,32
   18384:	8082                	ret
   18386:	4509                	li	a0,2
   18388:	b7e5                	j	18370 <__sigtramp+0x36>
   1838a:	c62a                	sw	a0,12(sp)
   1838c:	08000593          	li	a1,128
   18390:	8536                	mv	a0,a3
   18392:	c436                	sw	a3,8(sp)
   18394:	a29f80ef          	jal	10dbc <_malloc_r>
   18398:	46a2                	lw	a3,8(sp)
   1839a:	87aa                	mv	a5,a0
   1839c:	10a6ac23          	sw	a0,280(a3)
   183a0:	c919                	beqz	a0,183b6 <__sigtramp+0x7c>
   183a2:	4732                	lw	a4,12(sp)
   183a4:	86aa                	mv	a3,a0
   183a6:	08050613          	addi	a2,a0,128
   183aa:	0006a023          	sw	zero,0(a3)
   183ae:	0691                	addi	a3,a3,4
   183b0:	fed61de3          	bne	a2,a3,183aa <__sigtramp+0x70>
   183b4:	bf71                	j	18350 <__sigtramp+0x16>
   183b6:	557d                	li	a0,-1
   183b8:	bf65                	j	18370 <__sigtramp+0x36>
   183ba:	557d                	li	a0,-1
   183bc:	8082                	ret

000183be <_kill_r>:
   183be:	1141                	addi	sp,sp,-16
   183c0:	87ae                	mv	a5,a1
   183c2:	c422                	sw	s0,8(sp)
   183c4:	c226                	sw	s1,4(sp)
   183c6:	85b2                	mv	a1,a2
   183c8:	84aa                	mv	s1,a0
   183ca:	853e                	mv	a0,a5
   183cc:	c606                	sw	ra,12(sp)
   183ce:	f401a623          	sw	zero,-180(gp) # 1c87c <errno>
   183d2:	20f1                	jal	1849e <_kill>
   183d4:	57fd                	li	a5,-1
   183d6:	00f50763          	beq	a0,a5,183e4 <_kill_r+0x26>
   183da:	40b2                	lw	ra,12(sp)
   183dc:	4422                	lw	s0,8(sp)
   183de:	4492                	lw	s1,4(sp)
   183e0:	0141                	addi	sp,sp,16
   183e2:	8082                	ret
   183e4:	f4c1a783          	lw	a5,-180(gp) # 1c87c <errno>
   183e8:	dbed                	beqz	a5,183da <_kill_r+0x1c>
   183ea:	40b2                	lw	ra,12(sp)
   183ec:	4422                	lw	s0,8(sp)
   183ee:	c09c                	sw	a5,0(s1)
   183f0:	4492                	lw	s1,4(sp)
   183f2:	0141                	addi	sp,sp,16
   183f4:	8082                	ret

000183f6 <_getpid_r>:
   183f6:	a049                	j	18478 <_getpid>

000183f8 <_close>:
   183f8:	03900893          	li	a7,57
   183fc:	00000073          	ecall
   18400:	00054363          	bltz	a0,18406 <_close+0xe>
   18404:	8082                	ret
   18406:	1101                	addi	sp,sp,-32
   18408:	ce06                	sw	ra,28(sp)
   1840a:	c62a                	sw	a0,12(sp)
   1840c:	3961                	jal	180a4 <__errno>
   1840e:	47b2                	lw	a5,12(sp)
   18410:	40f2                	lw	ra,28(sp)
   18412:	40f007b3          	neg	a5,a5
   18416:	c11c                	sw	a5,0(a0)
   18418:	57fd                	li	a5,-1
   1841a:	853e                	mv	a0,a5
   1841c:	6105                	addi	sp,sp,32
   1841e:	8082                	ret

00018420 <_exit>:
   18420:	05d00893          	li	a7,93
   18424:	00000073          	ecall
   18428:	00054363          	bltz	a0,1842e <_exit+0xe>
   1842c:	a001                	j	1842c <_exit+0xc>
   1842e:	1101                	addi	sp,sp,-32
   18430:	ce06                	sw	ra,28(sp)
   18432:	c62a                	sw	a0,12(sp)
   18434:	3985                	jal	180a4 <__errno>
   18436:	47b2                	lw	a5,12(sp)
   18438:	40f007b3          	neg	a5,a5
   1843c:	c11c                	sw	a5,0(a0)
   1843e:	a001                	j	1843e <_exit+0x1e>

00018440 <_fstat>:
   18440:	7135                	addi	sp,sp,-160
   18442:	87ae                	mv	a5,a1
   18444:	cf06                	sw	ra,156(sp)
   18446:	cd22                	sw	s0,152(sp)
   18448:	05000893          	li	a7,80
   1844c:	080c                	addi	a1,sp,16
   1844e:	00000073          	ecall
   18452:	842a                	mv	s0,a0
   18454:	00054a63          	bltz	a0,18468 <_fstat+0x28>
   18458:	080c                	addi	a1,sp,16
   1845a:	853e                	mv	a0,a5
   1845c:	2a39                	jal	1857a <_conv_stat>
   1845e:	40fa                	lw	ra,156(sp)
   18460:	8522                	mv	a0,s0
   18462:	446a                	lw	s0,152(sp)
   18464:	610d                	addi	sp,sp,160
   18466:	8082                	ret
   18468:	c63e                	sw	a5,12(sp)
   1846a:	40800433          	neg	s0,s0
   1846e:	391d                	jal	180a4 <__errno>
   18470:	c100                	sw	s0,0(a0)
   18472:	47b2                	lw	a5,12(sp)
   18474:	547d                	li	s0,-1
   18476:	b7cd                	j	18458 <_fstat+0x18>

00018478 <_getpid>:
   18478:	4505                	li	a0,1
   1847a:	8082                	ret

0001847c <_isatty>:
   1847c:	7159                	addi	sp,sp,-112
   1847e:	002c                	addi	a1,sp,8
   18480:	d686                	sw	ra,108(sp)
   18482:	3f7d                	jal	18440 <_fstat>
   18484:	57fd                	li	a5,-1
   18486:	00f50863          	beq	a0,a5,18496 <_isatty+0x1a>
   1848a:	4532                	lw	a0,12(sp)
   1848c:	50b6                	lw	ra,108(sp)
   1848e:	8135                	srli	a0,a0,0xd
   18490:	8905                	andi	a0,a0,1
   18492:	6165                	addi	sp,sp,112
   18494:	8082                	ret
   18496:	50b6                	lw	ra,108(sp)
   18498:	4501                	li	a0,0
   1849a:	6165                	addi	sp,sp,112
   1849c:	8082                	ret

0001849e <_kill>:
   1849e:	1141                	addi	sp,sp,-16
   184a0:	c606                	sw	ra,12(sp)
   184a2:	3109                	jal	180a4 <__errno>
   184a4:	40b2                	lw	ra,12(sp)
   184a6:	47d9                	li	a5,22
   184a8:	c11c                	sw	a5,0(a0)
   184aa:	557d                	li	a0,-1
   184ac:	0141                	addi	sp,sp,16
   184ae:	8082                	ret

000184b0 <_lseek>:
   184b0:	03e00893          	li	a7,62
   184b4:	00000073          	ecall
   184b8:	00054363          	bltz	a0,184be <_lseek+0xe>
   184bc:	8082                	ret
   184be:	1101                	addi	sp,sp,-32
   184c0:	ce06                	sw	ra,28(sp)
   184c2:	c62a                	sw	a0,12(sp)
   184c4:	36c5                	jal	180a4 <__errno>
   184c6:	47b2                	lw	a5,12(sp)
   184c8:	40f2                	lw	ra,28(sp)
   184ca:	40f007b3          	neg	a5,a5
   184ce:	c11c                	sw	a5,0(a0)
   184d0:	57fd                	li	a5,-1
   184d2:	853e                	mv	a0,a5
   184d4:	6105                	addi	sp,sp,32
   184d6:	8082                	ret

000184d8 <_read>:
   184d8:	03f00893          	li	a7,63
   184dc:	00000073          	ecall
   184e0:	00054363          	bltz	a0,184e6 <_read+0xe>
   184e4:	8082                	ret
   184e6:	1101                	addi	sp,sp,-32
   184e8:	ce06                	sw	ra,28(sp)
   184ea:	c62a                	sw	a0,12(sp)
   184ec:	3e65                	jal	180a4 <__errno>
   184ee:	47b2                	lw	a5,12(sp)
   184f0:	40f2                	lw	ra,28(sp)
   184f2:	40f007b3          	neg	a5,a5
   184f6:	c11c                	sw	a5,0(a0)
   184f8:	57fd                	li	a5,-1
   184fa:	853e                	mv	a0,a5
   184fc:	6105                	addi	sp,sp,32
   184fe:	8082                	ret

00018500 <_sbrk>:
   18500:	f641a783          	lw	a5,-156(gp) # 1c894 <heap_end.0>
   18504:	1141                	addi	sp,sp,-16
   18506:	c606                	sw	ra,12(sp)
   18508:	872a                	mv	a4,a0
   1850a:	ef81                	bnez	a5,18522 <_sbrk+0x22>
   1850c:	0d600893          	li	a7,214
   18510:	4501                	li	a0,0
   18512:	00000073          	ecall
   18516:	57fd                	li	a5,-1
   18518:	02f50663          	beq	a0,a5,18544 <_sbrk+0x44>
   1851c:	87aa                	mv	a5,a0
   1851e:	f6a1a223          	sw	a0,-156(gp) # 1c894 <heap_end.0>
   18522:	00f70533          	add	a0,a4,a5
   18526:	0d600893          	li	a7,214
   1852a:	00000073          	ecall
   1852e:	f641a783          	lw	a5,-156(gp) # 1c894 <heap_end.0>
   18532:	973e                	add	a4,a4,a5
   18534:	00e51863          	bne	a0,a4,18544 <_sbrk+0x44>
   18538:	40b2                	lw	ra,12(sp)
   1853a:	f6a1a223          	sw	a0,-156(gp) # 1c894 <heap_end.0>
   1853e:	853e                	mv	a0,a5
   18540:	0141                	addi	sp,sp,16
   18542:	8082                	ret
   18544:	3685                	jal	180a4 <__errno>
   18546:	40b2                	lw	ra,12(sp)
   18548:	47b1                	li	a5,12
   1854a:	c11c                	sw	a5,0(a0)
   1854c:	557d                	li	a0,-1
   1854e:	0141                	addi	sp,sp,16
   18550:	8082                	ret

00018552 <_write>:
   18552:	04000893          	li	a7,64
   18556:	00000073          	ecall
   1855a:	00054363          	bltz	a0,18560 <_write+0xe>
   1855e:	8082                	ret
   18560:	1101                	addi	sp,sp,-32
   18562:	ce06                	sw	ra,28(sp)
   18564:	c62a                	sw	a0,12(sp)
   18566:	3e3d                	jal	180a4 <__errno>
   18568:	47b2                	lw	a5,12(sp)
   1856a:	40f2                	lw	ra,28(sp)
   1856c:	40f007b3          	neg	a5,a5
   18570:	c11c                	sw	a5,0(a0)
   18572:	57fd                	li	a5,-1
   18574:	853e                	mv	a0,a5
   18576:	6105                	addi	sp,sp,32
   18578:	8082                	ret

0001857a <_conv_stat>:
   1857a:	4194                	lw	a3,0(a1)
   1857c:	4598                	lw	a4,8(a1)
   1857e:	499c                	lw	a5,16(a1)
   18580:	0145a383          	lw	t2,20(a1)
   18584:	0185a283          	lw	t0,24(a1)
   18588:	01c5af83          	lw	t6,28(a1)
   1858c:	0205af03          	lw	t5,32(a1)
   18590:	0305ae83          	lw	t4,48(a1)
   18594:	0405ae03          	lw	t3,64(a1)
   18598:	0385a303          	lw	t1,56(a1)
   1859c:	0485a803          	lw	a6,72(a1)
   185a0:	04c5a883          	lw	a7,76(a1)
   185a4:	4db0                	lw	a2,88(a1)
   185a6:	00d51023          	sh	a3,0(a0)
   185aa:	00e51123          	sh	a4,2(a0)
   185ae:	4df4                	lw	a3,92(a1)
   185b0:	55b8                	lw	a4,104(a1)
   185b2:	c15c                	sw	a5,4(a0)
   185b4:	55fc                	lw	a5,108(a1)
   185b6:	00751423          	sh	t2,8(a0)
   185ba:	00551523          	sh	t0,10(a0)
   185be:	01f51623          	sh	t6,12(a0)
   185c2:	01e51723          	sh	t5,14(a0)
   185c6:	01d52823          	sw	t4,16(a0)
   185ca:	05c52623          	sw	t3,76(a0)
   185ce:	04652423          	sw	t1,72(a0)
   185d2:	01052c23          	sw	a6,24(a0)
   185d6:	01152e23          	sw	a7,28(a0)
   185da:	d510                	sw	a2,40(a0)
   185dc:	d554                	sw	a3,44(a0)
   185de:	dd18                	sw	a4,56(a0)
   185e0:	dd5c                	sw	a5,60(a0)
   185e2:	8082                	ret

000185e4 <__eqtf2>:
   185e4:	00052803          	lw	a6,0(a0)
   185e8:	00452383          	lw	t2,4(a0)
   185ec:	00852283          	lw	t0,8(a0)
   185f0:	00c52303          	lw	t1,12(a0)
   185f4:	419c                	lw	a5,0(a1)
   185f6:	0045a883          	lw	a7,4(a1)
   185fa:	0085ae83          	lw	t4,8(a1)
   185fe:	00c5ae03          	lw	t3,12(a1)
   18602:	1141                	addi	sp,sp,-16
   18604:	00202773          	frrm	a4
   18608:	6721                	lui	a4,0x8
   1860a:	01035593          	srli	a1,t1,0x10
   1860e:	177d                	addi	a4,a4,-1 # 7fff <exit-0x80b5>
   18610:	01031f13          	slli	t5,t1,0x10
   18614:	010e1f93          	slli	t6,t3,0x10
   18618:	010e5613          	srli	a2,t3,0x10
   1861c:	8df9                	and	a1,a1,a4
   1861e:	010f5f13          	srli	t5,t5,0x10
   18622:	01f35313          	srli	t1,t1,0x1f
   18626:	010fdf93          	srli	t6,t6,0x10
   1862a:	8e79                	and	a2,a2,a4
   1862c:	01fe5e13          	srli	t3,t3,0x1f
   18630:	00e59c63          	bne	a1,a4,18648 <__eqtf2+0x64>
   18634:	00786733          	or	a4,a6,t2
   18638:	00576733          	or	a4,a4,t0
   1863c:	01e76733          	or	a4,a4,t5
   18640:	e30d                	bnez	a4,18662 <__eqtf2+0x7e>
   18642:	06b61263          	bne	a2,a1,186a6 <__eqtf2+0xc2>
   18646:	a019                	j	1864c <__eqtf2+0x68>
   18648:	06e61163          	bne	a2,a4,186aa <__eqtf2+0xc6>
   1864c:	0117e733          	or	a4,a5,a7
   18650:	01d76733          	or	a4,a4,t4
   18654:	01f76733          	or	a4,a4,t6
   18658:	cb29                	beqz	a4,186aa <__eqtf2+0xc6>
   1865a:	6721                	lui	a4,0x8
   1865c:	177d                	addi	a4,a4,-1 # 7fff <exit-0x80b5>
   1865e:	02e59563          	bne	a1,a4,18688 <__eqtf2+0xa4>
   18662:	00786833          	or	a6,a6,t2
   18666:	00586833          	or	a6,a6,t0
   1866a:	01e86833          	or	a6,a6,t5
   1866e:	00080863          	beqz	a6,1867e <__eqtf2+0x9a>
   18672:	ffff4f13          	not	t5,t5
   18676:	010f1713          	slli	a4,t5,0x10
   1867a:	02074463          	bltz	a4,186a2 <__eqtf2+0xbe>
   1867e:	6721                	lui	a4,0x8
   18680:	177d                	addi	a4,a4,-1 # 7fff <exit-0x80b5>
   18682:	4505                	li	a0,1
   18684:	06e61763          	bne	a2,a4,186f2 <__eqtf2+0x10e>
   18688:	0117e7b3          	or	a5,a5,a7
   1868c:	01d7e7b3          	or	a5,a5,t4
   18690:	01f7e7b3          	or	a5,a5,t6
   18694:	cb89                	beqz	a5,186a6 <__eqtf2+0xc2>
   18696:	ffffcf93          	not	t6,t6
   1869a:	010f9793          	slli	a5,t6,0x10
   1869e:	0007d463          	bgez	a5,186a6 <__eqtf2+0xc2>
   186a2:	00186073          	csrsi	fflags,16
   186a6:	4505                	li	a0,1
   186a8:	a0a9                	j	186f2 <__eqtf2+0x10e>
   186aa:	40f806b3          	sub	a3,a6,a5
   186ae:	411388b3          	sub	a7,t2,a7
   186b2:	00d036b3          	snez	a3,a3
   186b6:	011038b3          	snez	a7,a7
   186ba:	40b60733          	sub	a4,a2,a1
   186be:	0116e6b3          	or	a3,a3,a7
   186c2:	00e03733          	snez	a4,a4
   186c6:	41d287b3          	sub	a5,t0,t4
   186ca:	8f55                	or	a4,a4,a3
   186cc:	00f037b3          	snez	a5,a5
   186d0:	8fd9                	or	a5,a5,a4
   186d2:	fbf1                	bnez	a5,186a6 <__eqtf2+0xc2>
   186d4:	fdff19e3          	bne	t5,t6,186a6 <__eqtf2+0xc2>
   186d8:	4501                	li	a0,0
   186da:	01c30c63          	beq	t1,t3,186f2 <__eqtf2+0x10e>
   186de:	4505                	li	a0,1
   186e0:	e989                	bnez	a1,186f2 <__eqtf2+0x10e>
   186e2:	00786533          	or	a0,a6,t2
   186e6:	00556533          	or	a0,a0,t0
   186ea:	01e56533          	or	a0,a0,t5
   186ee:	00a03533          	snez	a0,a0
   186f2:	0141                	addi	sp,sp,16
   186f4:	8082                	ret

000186f6 <__getf2>:
   186f6:	00052f03          	lw	t5,0(a0)
   186fa:	00452883          	lw	a7,4(a0)
   186fe:	00852f83          	lw	t6,8(a0)
   18702:	455c                	lw	a5,12(a0)
   18704:	0005a283          	lw	t0,0(a1)
   18708:	0045a303          	lw	t1,4(a1)
   1870c:	0085a383          	lw	t2,8(a1)
   18710:	45d4                	lw	a3,12(a1)
   18712:	1141                	addi	sp,sp,-16
   18714:	00202773          	frrm	a4
   18718:	6721                	lui	a4,0x8
   1871a:	0107d593          	srli	a1,a5,0x10
   1871e:	177d                	addi	a4,a4,-1 # 7fff <exit-0x80b5>
   18720:	01079e13          	slli	t3,a5,0x10
   18724:	0106d613          	srli	a2,a3,0x10
   18728:	8df9                	and	a1,a1,a4
   1872a:	010e5e13          	srli	t3,t3,0x10
   1872e:	83fd                	srli	a5,a5,0x1f
   18730:	8e79                	and	a2,a2,a4
   18732:	01f6de93          	srli	t4,a3,0x1f
   18736:	00e59963          	bne	a1,a4,18748 <__getf2+0x52>
   1873a:	011f6733          	or	a4,t5,a7
   1873e:	01f76733          	or	a4,a4,t6
   18742:	01c76733          	or	a4,a4,t3
   18746:	ef31                	bnez	a4,187a2 <__getf2+0xac>
   18748:	6721                	lui	a4,0x8
   1874a:	06c2                	slli	a3,a3,0x10
   1874c:	177d                	addi	a4,a4,-1 # 7fff <exit-0x80b5>
   1874e:	82c1                	srli	a3,a3,0x10
   18750:	8532                	mv	a0,a2
   18752:	00e61863          	bne	a2,a4,18762 <__getf2+0x6c>
   18756:	0062e733          	or	a4,t0,t1
   1875a:	00776733          	or	a4,a4,t2
   1875e:	8f55                	or	a4,a4,a3
   18760:	e329                	bnez	a4,187a2 <__getf2+0xac>
   18762:	4701                	li	a4,0
   18764:	e989                	bnez	a1,18776 <__getf2+0x80>
   18766:	011f6733          	or	a4,t5,a7
   1876a:	01f76733          	or	a4,a4,t6
   1876e:	01c76733          	or	a4,a4,t3
   18772:	00173713          	seqz	a4,a4
   18776:	ee05                	bnez	a2,187ae <__getf2+0xb8>
   18778:	0062e833          	or	a6,t0,t1
   1877c:	00786833          	or	a6,a6,t2
   18780:	00d86833          	or	a6,a6,a3
   18784:	c719                	beqz	a4,18792 <__getf2+0x9c>
   18786:	00080c63          	beqz	a6,1879e <__getf2+0xa8>
   1878a:	001e9513          	slli	a0,t4,0x1
   1878e:	157d                	addi	a0,a0,-1
   18790:	a039                	j	1879e <__getf2+0xa8>
   18792:	00081f63          	bnez	a6,187b0 <__getf2+0xba>
   18796:	40f00533          	neg	a0,a5
   1879a:	00156513          	ori	a0,a0,1
   1879e:	0141                	addi	sp,sp,16
   187a0:	8082                	ret
   187a2:	00186073          	csrsi	fflags,16
   187a6:	5579                	li	a0,-2
   187a8:	bfdd                	j	1879e <__getf2+0xa8>
   187aa:	4501                	li	a0,0
   187ac:	bfcd                	j	1879e <__getf2+0xa8>
   187ae:	ff71                	bnez	a4,1878a <__getf2+0x94>
   187b0:	fefe93e3          	bne	t4,a5,18796 <__getf2+0xa0>
   187b4:	41d00533          	neg	a0,t4
   187b8:	feb641e3          	blt	a2,a1,1879a <__getf2+0xa4>
   187bc:	fcc5c7e3          	blt	a1,a2,1878a <__getf2+0x94>
   187c0:	fdc6ebe3          	bltu	a3,t3,18796 <__getf2+0xa0>
   187c4:	02de1263          	bne	t3,a3,187e8 <__getf2+0xf2>
   187c8:	fdf3e7e3          	bltu	t2,t6,18796 <__getf2+0xa0>
   187cc:	007f9e63          	bne	t6,t2,187e8 <__getf2+0xf2>
   187d0:	fd1363e3          	bltu	t1,a7,18796 <__getf2+0xa0>
   187d4:	40688733          	sub	a4,a7,t1
   187d8:	01e2f363          	bgeu	t0,t5,187de <__getf2+0xe8>
   187dc:	df4d                	beqz	a4,18796 <__getf2+0xa0>
   187de:	0068e563          	bltu	a7,t1,187e8 <__getf2+0xf2>
   187e2:	fc5f74e3          	bgeu	t5,t0,187aa <__getf2+0xb4>
   187e6:	f371                	bnez	a4,187aa <__getf2+0xb4>
   187e8:	00179513          	slli	a0,a5,0x1
   187ec:	b74d                	j	1878e <__getf2+0x98>

000187ee <__letf2>:
   187ee:	00052f03          	lw	t5,0(a0)
   187f2:	00452883          	lw	a7,4(a0)
   187f6:	00852f83          	lw	t6,8(a0)
   187fa:	455c                	lw	a5,12(a0)
   187fc:	0005a283          	lw	t0,0(a1)
   18800:	0045a303          	lw	t1,4(a1)
   18804:	0085a383          	lw	t2,8(a1)
   18808:	45d4                	lw	a3,12(a1)
   1880a:	1141                	addi	sp,sp,-16
   1880c:	00202773          	frrm	a4
   18810:	6721                	lui	a4,0x8
   18812:	0107d593          	srli	a1,a5,0x10
   18816:	177d                	addi	a4,a4,-1 # 7fff <exit-0x80b5>
   18818:	01079e13          	slli	t3,a5,0x10
   1881c:	0106d613          	srli	a2,a3,0x10
   18820:	8df9                	and	a1,a1,a4
   18822:	010e5e13          	srli	t3,t3,0x10
   18826:	83fd                	srli	a5,a5,0x1f
   18828:	8e79                	and	a2,a2,a4
   1882a:	01f6de93          	srli	t4,a3,0x1f
   1882e:	00e59963          	bne	a1,a4,18840 <__letf2+0x52>
   18832:	011f6733          	or	a4,t5,a7
   18836:	01f76733          	or	a4,a4,t6
   1883a:	01c76733          	or	a4,a4,t3
   1883e:	ef31                	bnez	a4,1889a <__letf2+0xac>
   18840:	6721                	lui	a4,0x8
   18842:	06c2                	slli	a3,a3,0x10
   18844:	177d                	addi	a4,a4,-1 # 7fff <exit-0x80b5>
   18846:	82c1                	srli	a3,a3,0x10
   18848:	8532                	mv	a0,a2
   1884a:	00e61863          	bne	a2,a4,1885a <__letf2+0x6c>
   1884e:	0062e733          	or	a4,t0,t1
   18852:	00776733          	or	a4,a4,t2
   18856:	8f55                	or	a4,a4,a3
   18858:	e329                	bnez	a4,1889a <__letf2+0xac>
   1885a:	4701                	li	a4,0
   1885c:	e989                	bnez	a1,1886e <__letf2+0x80>
   1885e:	011f6733          	or	a4,t5,a7
   18862:	01f76733          	or	a4,a4,t6
   18866:	01c76733          	or	a4,a4,t3
   1886a:	00173713          	seqz	a4,a4
   1886e:	ee05                	bnez	a2,188a6 <__letf2+0xb8>
   18870:	0062e833          	or	a6,t0,t1
   18874:	00786833          	or	a6,a6,t2
   18878:	00d86833          	or	a6,a6,a3
   1887c:	c719                	beqz	a4,1888a <__letf2+0x9c>
   1887e:	00080c63          	beqz	a6,18896 <__letf2+0xa8>
   18882:	001e9513          	slli	a0,t4,0x1
   18886:	157d                	addi	a0,a0,-1
   18888:	a039                	j	18896 <__letf2+0xa8>
   1888a:	00081f63          	bnez	a6,188a8 <__letf2+0xba>
   1888e:	40f00533          	neg	a0,a5
   18892:	00156513          	ori	a0,a0,1
   18896:	0141                	addi	sp,sp,16
   18898:	8082                	ret
   1889a:	00186073          	csrsi	fflags,16
   1889e:	4509                	li	a0,2
   188a0:	bfdd                	j	18896 <__letf2+0xa8>
   188a2:	4501                	li	a0,0
   188a4:	bfcd                	j	18896 <__letf2+0xa8>
   188a6:	ff71                	bnez	a4,18882 <__letf2+0x94>
   188a8:	fefe93e3          	bne	t4,a5,1888e <__letf2+0xa0>
   188ac:	41d00533          	neg	a0,t4
   188b0:	feb641e3          	blt	a2,a1,18892 <__letf2+0xa4>
   188b4:	fcc5c7e3          	blt	a1,a2,18882 <__letf2+0x94>
   188b8:	fdc6ebe3          	bltu	a3,t3,1888e <__letf2+0xa0>
   188bc:	02de1263          	bne	t3,a3,188e0 <__letf2+0xf2>
   188c0:	fdf3e7e3          	bltu	t2,t6,1888e <__letf2+0xa0>
   188c4:	007f9e63          	bne	t6,t2,188e0 <__letf2+0xf2>
   188c8:	fd1363e3          	bltu	t1,a7,1888e <__letf2+0xa0>
   188cc:	40688733          	sub	a4,a7,t1
   188d0:	01e2f363          	bgeu	t0,t5,188d6 <__letf2+0xe8>
   188d4:	df4d                	beqz	a4,1888e <__letf2+0xa0>
   188d6:	0068e563          	bltu	a7,t1,188e0 <__letf2+0xf2>
   188da:	fc5f74e3          	bgeu	t5,t0,188a2 <__letf2+0xb4>
   188de:	f371                	bnez	a4,188a2 <__letf2+0xb4>
   188e0:	00179513          	slli	a0,a5,0x1
   188e4:	b74d                	j	18886 <__letf2+0x98>

000188e6 <__multf3>:
   188e6:	7131                	addi	sp,sp,-192
   188e8:	d94a                	sw	s2,176(sp)
   188ea:	d15a                	sw	s6,160(sp)
   188ec:	cf5e                	sw	s7,156(sp)
   188ee:	cd62                	sw	s8,152(sp)
   188f0:	c62a                	sw	a0,12(sp)
   188f2:	41dc                	lw	a5,4(a1)
   188f4:	4188                	lw	a0,0(a1)
   188f6:	4598                	lw	a4,8(a1)
   188f8:	00c5a803          	lw	a6,12(a1)
   188fc:	00062b83          	lw	s7,0(a2)
   18900:	00462b03          	lw	s6,4(a2)
   18904:	00862c03          	lw	s8,8(a2)
   18908:	00c62903          	lw	s2,12(a2)
   1890c:	df06                	sw	ra,188(sp)
   1890e:	dd22                	sw	s0,184(sp)
   18910:	db26                	sw	s1,180(sp)
   18912:	d74e                	sw	s3,172(sp)
   18914:	d552                	sw	s4,168(sp)
   18916:	d356                	sw	s5,164(sp)
   18918:	cb66                	sw	s9,148(sp)
   1891a:	c96a                	sw	s10,144(sp)
   1891c:	c76e                	sw	s11,140(sp)
   1891e:	002024f3          	frrm	s1
   18922:	66a1                	lui	a3,0x8
   18924:	01081413          	slli	s0,a6,0x10
   18928:	8041                	srli	s0,s0,0x10
   1892a:	01085a93          	srli	s5,a6,0x10
   1892e:	16fd                	addi	a3,a3,-1 # 7fff <exit-0x80b5>
   18930:	d0aa                	sw	a0,96(sp)
   18932:	d2be                	sw	a5,100(sp)
   18934:	d4ba                	sw	a4,104(sp)
   18936:	d6c2                	sw	a6,108(sp)
   18938:	d82a                	sw	a0,48(sp)
   1893a:	da3e                	sw	a5,52(sp)
   1893c:	dc3a                	sw	a4,56(sp)
   1893e:	de22                	sw	s0,60(sp)
   18940:	00dafab3          	and	s5,s5,a3
   18944:	01f85a13          	srli	s4,a6,0x1f
   18948:	020a8a63          	beqz	s5,1897c <__multf3+0x96>
   1894c:	0eda8c63          	beq	s5,a3,18a44 <__multf3+0x15e>
   18950:	67c1                	lui	a5,0x10
   18952:	8c5d                	or	s0,s0,a5
   18954:	de22                	sw	s0,60(sp)
   18956:	181c                	addi	a5,sp,48
   18958:	1050                	addi	a2,sp,36
   1895a:	47d8                	lw	a4,12(a5)
   1895c:	4794                	lw	a3,8(a5)
   1895e:	17f1                	addi	a5,a5,-4 # fffc <exit-0xb8>
   18960:	070e                	slli	a4,a4,0x3
   18962:	82f5                	srli	a3,a3,0x1d
   18964:	8f55                	or	a4,a4,a3
   18966:	cb98                	sw	a4,16(a5)
   18968:	fef619e3          	bne	a2,a5,1895a <__multf3+0x74>
   1896c:	77f1                	lui	a5,0xffffc
   1896e:	050e                	slli	a0,a0,0x3
   18970:	0785                	addi	a5,a5,1 # ffffc001 <__BSS_END__+0xfffdf44d>
   18972:	d82a                	sw	a0,48(sp)
   18974:	9abe                	add	s5,s5,a5
   18976:	4981                	li	s3,0
   18978:	4401                	li	s0,0
   1897a:	a0cd                	j	18a5c <__multf3+0x176>
   1897c:	00a7e6b3          	or	a3,a5,a0
   18980:	8ed9                	or	a3,a3,a4
   18982:	8ec1                	or	a3,a3,s0
   18984:	6c068e63          	beqz	a3,19060 <__multf3+0x77a>
   18988:	c021                	beqz	s0,189c8 <__multf3+0xe2>
   1898a:	8522                	mv	a0,s0
   1898c:	787010ef          	jal	1a912 <__clzsi2>
   18990:	ff450693          	addi	a3,a0,-12
   18994:	4056d713          	srai	a4,a3,0x5
   18998:	8afd                	andi	a3,a3,31
   1899a:	187c                	addi	a5,sp,60
   1899c:	caa9                	beqz	a3,189ee <__multf3+0x108>
   1899e:	02000893          	li	a7,32
   189a2:	00271813          	slli	a6,a4,0x2
   189a6:	40d888b3          	sub	a7,a7,a3
   189aa:	180c                	addi	a1,sp,48
   189ac:	410787b3          	sub	a5,a5,a6
   189b0:	04f59e63          	bne	a1,a5,18a0c <__multf3+0x126>
   189b4:	fff70793          	addi	a5,a4,-1
   189b8:	5742                	lw	a4,48(sp)
   189ba:	95c2                	add	a1,a1,a6
   189bc:	00d71733          	sll	a4,a4,a3
   189c0:	c198                	sw	a4,0(a1)
   189c2:	56fd                	li	a3,-1
   189c4:	1810                	addi	a2,sp,48
   189c6:	a885                	j	18a36 <__multf3+0x150>
   189c8:	c719                	beqz	a4,189d6 <__multf3+0xf0>
   189ca:	853a                	mv	a0,a4
   189cc:	747010ef          	jal	1a912 <__clzsi2>
   189d0:	02050513          	addi	a0,a0,32
   189d4:	bf75                	j	18990 <__multf3+0xaa>
   189d6:	c799                	beqz	a5,189e4 <__multf3+0xfe>
   189d8:	853e                	mv	a0,a5
   189da:	739010ef          	jal	1a912 <__clzsi2>
   189de:	04050513          	addi	a0,a0,64
   189e2:	b77d                	j	18990 <__multf3+0xaa>
   189e4:	72f010ef          	jal	1a912 <__clzsi2>
   189e8:	06050513          	addi	a0,a0,96
   189ec:	b755                	j	18990 <__multf3+0xaa>
   189ee:	5671                	li	a2,-4
   189f0:	02c70633          	mul	a2,a4,a2
   189f4:	468d                	li	a3,3
   189f6:	00c785b3          	add	a1,a5,a2
   189fa:	418c                	lw	a1,0(a1)
   189fc:	16fd                	addi	a3,a3,-1
   189fe:	17f1                	addi	a5,a5,-4
   18a00:	c3cc                	sw	a1,4(a5)
   18a02:	fee6dae3          	bge	a3,a4,189f6 <__multf3+0x110>
   18a06:	fff70793          	addi	a5,a4,-1
   18a0a:	bf65                	j	189c2 <__multf3+0xdc>
   18a0c:	4390                	lw	a2,0(a5)
   18a0e:	ffc7a303          	lw	t1,-4(a5)
   18a12:	01078e33          	add	t3,a5,a6
   18a16:	00d61633          	sll	a2,a2,a3
   18a1a:	01135333          	srl	t1,t1,a7
   18a1e:	00666633          	or	a2,a2,t1
   18a22:	00ce2023          	sw	a2,0(t3)
   18a26:	17f1                	addi	a5,a5,-4
   18a28:	b761                	j	189b0 <__multf3+0xca>
   18a2a:	00279713          	slli	a4,a5,0x2
   18a2e:	9732                	add	a4,a4,a2
   18a30:	00072023          	sw	zero,0(a4)
   18a34:	17fd                	addi	a5,a5,-1
   18a36:	fed79ae3          	bne	a5,a3,18a2a <__multf3+0x144>
   18a3a:	7af1                	lui	s5,0xffffc
   18a3c:	0ac5                	addi	s5,s5,17 # ffffc011 <__BSS_END__+0xfffdf45d>
   18a3e:	40aa8ab3          	sub	s5,s5,a0
   18a42:	bf15                	j	18976 <__multf3+0x90>
   18a44:	8fc9                	or	a5,a5,a0
   18a46:	8fd9                	or	a5,a5,a4
   18a48:	8fc1                	or	a5,a5,s0
   18a4a:	60078e63          	beqz	a5,19066 <__multf3+0x780>
   18a4e:	0442                	slli	s0,s0,0x10
   18a50:	8441                	srai	s0,s0,0x10
   18a52:	fff44413          	not	s0,s0
   18a56:	807d                	srli	s0,s0,0x1f
   18a58:	0412                	slli	s0,s0,0x4
   18a5a:	498d                	li	s3,3
   18a5c:	01091513          	slli	a0,s2,0x10
   18a60:	6721                	lui	a4,0x8
   18a62:	01095793          	srli	a5,s2,0x10
   18a66:	8141                	srli	a0,a0,0x10
   18a68:	177d                	addi	a4,a4,-1 # 7fff <exit-0x80b5>
   18a6a:	d6ca                	sw	s2,108(sp)
   18a6c:	d0de                	sw	s7,96(sp)
   18a6e:	d2da                	sw	s6,100(sp)
   18a70:	d4e2                	sw	s8,104(sp)
   18a72:	c0de                	sw	s7,64(sp)
   18a74:	c2da                	sw	s6,68(sp)
   18a76:	c4e2                	sw	s8,72(sp)
   18a78:	c6aa                	sw	a0,76(sp)
   18a7a:	8ff9                	and	a5,a5,a4
   18a7c:	01f95913          	srli	s2,s2,0x1f
   18a80:	5e078563          	beqz	a5,1906a <__multf3+0x784>
   18a84:	6ae78a63          	beq	a5,a4,19138 <__multf3+0x852>
   18a88:	6741                	lui	a4,0x10
   18a8a:	8d59                	or	a0,a0,a4
   18a8c:	c6aa                	sw	a0,76(sp)
   18a8e:	0098                	addi	a4,sp,64
   18a90:	184c                	addi	a1,sp,52
   18a92:	4754                	lw	a3,12(a4)
   18a94:	4710                	lw	a2,8(a4)
   18a96:	1771                	addi	a4,a4,-4 # fffc <exit-0xb8>
   18a98:	068e                	slli	a3,a3,0x3
   18a9a:	8275                	srli	a2,a2,0x1d
   18a9c:	8ed1                	or	a3,a3,a2
   18a9e:	cb14                	sw	a3,16(a4)
   18aa0:	fee599e3          	bne	a1,a4,18a92 <__multf3+0x1ac>
   18aa4:	7771                	lui	a4,0xffffc
   18aa6:	0b8e                	slli	s7,s7,0x3
   18aa8:	0705                	addi	a4,a4,1 # ffffc001 <__BSS_END__+0xfffdf44d>
   18aaa:	c0de                	sw	s7,64(sp)
   18aac:	97ba                	add	a5,a5,a4
   18aae:	4701                	li	a4,0
   18ab0:	97d6                	add	a5,a5,s5
   18ab2:	cc3e                	sw	a5,24(sp)
   18ab4:	0785                	addi	a5,a5,1
   18ab6:	c83e                	sw	a5,16(sp)
   18ab8:	00299793          	slli	a5,s3,0x2
   18abc:	8fd9                	or	a5,a5,a4
   18abe:	46a9                	li	a3,10
   18ac0:	6cf6c163          	blt	a3,a5,19182 <__multf3+0x89c>
   18ac4:	4609                	li	a2,2
   18ac6:	012a4833          	xor	a6,s4,s2
   18aca:	4685                	li	a3,1
   18acc:	68f64663          	blt	a2,a5,19158 <__multf3+0x872>
   18ad0:	17fd                	addi	a5,a5,-1
   18ad2:	6cf6f063          	bgeu	a3,a5,19192 <__multf3+0x8ac>
   18ad6:	5342                	lw	t1,48(sp)
   18ad8:	4f06                	lw	t5,64(sp)
   18ada:	01035993          	srli	s3,t1,0x10
   18ade:	010f5793          	srli	a5,t5,0x10
   18ae2:	0342                	slli	t1,t1,0x10
   18ae4:	0f42                	slli	t5,t5,0x10
   18ae6:	01035313          	srli	t1,t1,0x10
   18aea:	010f5f13          	srli	t5,t5,0x10
   18aee:	026f06b3          	mul	a3,t5,t1
   18af2:	03e985b3          	mul	a1,s3,t5
   18af6:	0106d713          	srli	a4,a3,0x10
   18afa:	02678633          	mul	a2,a5,t1
   18afe:	962e                	add	a2,a2,a1
   18b00:	9732                	add	a4,a4,a2
   18b02:	02f98c33          	mul	s8,s3,a5
   18b06:	00b77463          	bgeu	a4,a1,18b0e <__multf3+0x228>
   18b0a:	6641                	lui	a2,0x10
   18b0c:	9c32                	add	s8,s8,a2
   18b0e:	4e96                	lw	t4,68(sp)
   18b10:	06c2                	slli	a3,a3,0x10
   18b12:	82c1                	srli	a3,a3,0x10
   18b14:	01075893          	srli	a7,a4,0x10
   18b18:	0742                	slli	a4,a4,0x10
   18b1a:	9736                	add	a4,a4,a3
   18b1c:	ce3a                	sw	a4,28(sp)
   18b1e:	d0ba                	sw	a4,96(sp)
   18b20:	010ed713          	srli	a4,t4,0x10
   18b24:	0ec2                	slli	t4,t4,0x10
   18b26:	010ede93          	srli	t4,t4,0x10
   18b2a:	026e86b3          	mul	a3,t4,t1
   18b2e:	03d985b3          	mul	a1,s3,t4
   18b32:	0106d293          	srli	t0,a3,0x10
   18b36:	02670633          	mul	a2,a4,t1
   18b3a:	962e                	add	a2,a2,a1
   18b3c:	92b2                	add	t0,t0,a2
   18b3e:	02e98bb3          	mul	s7,s3,a4
   18b42:	00b2f463          	bgeu	t0,a1,18b4a <__multf3+0x264>
   18b46:	6641                	lui	a2,0x10
   18b48:	9bb2                	add	s7,s7,a2
   18b4a:	5552                	lw	a0,52(sp)
   18b4c:	06c2                	slli	a3,a3,0x10
   18b4e:	82c1                	srli	a3,a3,0x10
   18b50:	01055913          	srli	s2,a0,0x10
   18b54:	0542                	slli	a0,a0,0x10
   18b56:	8141                	srli	a0,a0,0x10
   18b58:	0102df93          	srli	t6,t0,0x10
   18b5c:	02c2                	slli	t0,t0,0x10
   18b5e:	92b6                	add	t0,t0,a3
   18b60:	03e90e33          	mul	t3,s2,t5
   18b64:	9896                	add	a7,a7,t0
   18b66:	03e506b3          	mul	a3,a0,t5
   18b6a:	02a785b3          	mul	a1,a5,a0
   18b6e:	0106da93          	srli	s5,a3,0x10
   18b72:	95f2                	add	a1,a1,t3
   18b74:	9aae                	add	s5,s5,a1
   18b76:	03278633          	mul	a2,a5,s2
   18b7a:	01caf463          	bgeu	s5,t3,18b82 <__multf3+0x29c>
   18b7e:	65c1                	lui	a1,0x10
   18b80:	962e                	add	a2,a2,a1
   18b82:	010ad593          	srli	a1,s5,0x10
   18b86:	962e                	add	a2,a2,a1
   18b88:	d032                	sw	a2,32(sp)
   18b8a:	06c2                	slli	a3,a3,0x10
   18b8c:	82c1                	srli	a3,a3,0x10
   18b8e:	0ac2                	slli	s5,s5,0x10
   18b90:	02ae8633          	mul	a2,t4,a0
   18b94:	9ab6                	add	s5,s5,a3
   18b96:	03d905b3          	mul	a1,s2,t4
   18b9a:	01065693          	srli	a3,a2,0x10
   18b9e:	02a703b3          	mul	t2,a4,a0
   18ba2:	93ae                	add	t2,t2,a1
   18ba4:	969e                	add	a3,a3,t2
   18ba6:	03270e33          	mul	t3,a4,s2
   18baa:	00b6f463          	bgeu	a3,a1,18bb2 <__multf3+0x2cc>
   18bae:	65c1                	lui	a1,0x10
   18bb0:	9e2e                	add	t3,t3,a1
   18bb2:	0106d593          	srli	a1,a3,0x10
   18bb6:	95f2                	add	a1,a1,t3
   18bb8:	0642                	slli	a2,a2,0x10
   18bba:	4e26                	lw	t3,72(sp)
   18bbc:	8241                	srli	a2,a2,0x10
   18bbe:	06c2                	slli	a3,a3,0x10
   18bc0:	96b2                	add	a3,a3,a2
   18bc2:	d436                	sw	a3,40(sp)
   18bc4:	010e5693          	srli	a3,t3,0x10
   18bc8:	0e42                	slli	t3,t3,0x10
   18bca:	010e5e13          	srli	t3,t3,0x10
   18bce:	03c98a33          	mul	s4,s3,t3
   18bd2:	d22e                	sw	a1,36(sp)
   18bd4:	02668633          	mul	a2,a3,t1
   18bd8:	026e05b3          	mul	a1,t3,t1
   18bdc:	9652                	add	a2,a2,s4
   18bde:	0105db13          	srli	s6,a1,0x10
   18be2:	965a                	add	a2,a2,s6
   18be4:	02d983b3          	mul	t2,s3,a3
   18be8:	01467463          	bgeu	a2,s4,18bf0 <__multf3+0x30a>
   18bec:	6a41                	lui	s4,0x10
   18bee:	93d2                	add	t2,t2,s4
   18bf0:	05c2                	slli	a1,a1,0x10
   18bf2:	01065a13          	srli	s4,a2,0x10
   18bf6:	81c1                	srli	a1,a1,0x10
   18bf8:	0642                	slli	a2,a2,0x10
   18bfa:	962e                	add	a2,a2,a1
   18bfc:	55e2                	lw	a1,56(sp)
   18bfe:	93d2                	add	t2,t2,s4
   18c00:	d61e                	sw	t2,44(sp)
   18c02:	0105d393          	srli	t2,a1,0x10
   18c06:	05c2                	slli	a1,a1,0x10
   18c08:	81c1                	srli	a1,a1,0x10
   18c0a:	03e58b33          	mul	s6,a1,t5
   18c0e:	03e38d33          	mul	s10,t2,t5
   18c12:	010b5d93          	srli	s11,s6,0x10
   18c16:	02b78a33          	mul	s4,a5,a1
   18c1a:	9a6a                	add	s4,s4,s10
   18c1c:	9a6e                	add	s4,s4,s11
   18c1e:	02778cb3          	mul	s9,a5,t2
   18c22:	01aa7463          	bgeu	s4,s10,18c2a <__multf3+0x344>
   18c26:	6d41                	lui	s10,0x10
   18c28:	9cea                	add	s9,s9,s10
   18c2a:	98e2                	add	a7,a7,s8
   18c2c:	9ac6                	add	s5,s5,a7
   18c2e:	0b42                	slli	s6,s6,0x10
   18c30:	010a5d13          	srli	s10,s4,0x10
   18c34:	010b5b13          	srli	s6,s6,0x10
   18c38:	ca56                	sw	s5,20(sp)
   18c3a:	0a42                	slli	s4,s4,0x10
   18c3c:	0058b2b3          	sltu	t0,a7,t0
   18c40:	9a5a                	add	s4,s4,s6
   18c42:	d2d6                	sw	s5,100(sp)
   18c44:	4b52                	lw	s6,20(sp)
   18c46:	5a82                	lw	s5,32(sp)
   18c48:	9f96                	add	t6,t6,t0
   18c4a:	9fde                	add	t6,t6,s7
   18c4c:	9afe                	add	s5,s5,t6
   18c4e:	011b38b3          	sltu	a7,s6,a7
   18c52:	98d6                	add	a7,a7,s5
   18c54:	01fabb33          	sltu	s6,s5,t6
   18c58:	0158bab3          	sltu	s5,a7,s5
   18c5c:	005fbfb3          	sltu	t6,t6,t0
   18c60:	52a2                	lw	t0,40(sp)
   18c62:	015b6b33          	or	s6,s6,s5
   18c66:	5a92                	lw	s5,36(sp)
   18c68:	9fda                	add	t6,t6,s6
   18c6a:	92c6                	add	t0,t0,a7
   18c6c:	5b32                	lw	s6,44(sp)
   18c6e:	9afe                	add	s5,s5,t6
   18c70:	0112b8b3          	sltu	a7,t0,a7
   18c74:	98d6                	add	a7,a7,s5
   18c76:	9616                	add	a2,a2,t0
   18c78:	9b46                	add	s6,s6,a7
   18c7a:	005632b3          	sltu	t0,a2,t0
   18c7e:	92da                	add	t0,t0,s6
   18c80:	9d66                	add	s10,s10,s9
   18c82:	9d16                	add	s10,s10,t0
   18c84:	01fabfb3          	sltu	t6,s5,t6
   18c88:	0158bab3          	sltu	s5,a7,s5
   18c8c:	01460db3          	add	s11,a2,s4
   18c90:	015feab3          	or	s5,t6,s5
   18c94:	011b38b3          	sltu	a7,s6,a7
   18c98:	005d3fb3          	sltu	t6,s10,t0
   18c9c:	0162bb33          	sltu	s6,t0,s6
   18ca0:	42b6                	lw	t0,76(sp)
   18ca2:	00cdb633          	sltu	a2,s11,a2
   18ca6:	966a                	add	a2,a2,s10
   18ca8:	0168e8b3          	or	a7,a7,s6
   18cac:	0102da13          	srli	s4,t0,0x10
   18cb0:	01a63d33          	sltu	s10,a2,s10
   18cb4:	02c2                	slli	t0,t0,0x10
   18cb6:	9ac6                	add	s5,s5,a7
   18cb8:	0102d293          	srli	t0,t0,0x10
   18cbc:	01afefb3          	or	t6,t6,s10
   18cc0:	026288b3          	mul	a7,t0,t1
   18cc4:	9fd6                	add	t6,t6,s5
   18cc6:	d4ee                	sw	s11,104(sp)
   18cc8:	02598ab3          	mul	s5,s3,t0
   18ccc:	0108db13          	srli	s6,a7,0x10
   18cd0:	026a0333          	mul	t1,s4,t1
   18cd4:	9356                	add	t1,t1,s5
   18cd6:	935a                	add	t1,t1,s6
   18cd8:	034989b3          	mul	s3,s3,s4
   18cdc:	01537463          	bgeu	t1,s5,18ce4 <__multf3+0x3fe>
   18ce0:	6ac1                	lui	s5,0x10
   18ce2:	99d6                	add	s3,s3,s5
   18ce4:	01035a93          	srli	s5,t1,0x10
   18ce8:	99d6                	add	s3,s3,s5
   18cea:	5af2                	lw	s5,60(sp)
   18cec:	08c2                	slli	a7,a7,0x10
   18cee:	0342                	slli	t1,t1,0x10
   18cf0:	d04e                	sw	s3,32(sp)
   18cf2:	0108d893          	srli	a7,a7,0x10
   18cf6:	010ad993          	srli	s3,s5,0x10
   18cfa:	0ac2                	slli	s5,s5,0x10
   18cfc:	989a                	add	a7,a7,t1
   18cfe:	010ada93          	srli	s5,s5,0x10
   18d02:	03378333          	mul	t1,a5,s3
   18d06:	d246                	sw	a7,36(sp)
   18d08:	035787b3          	mul	a5,a5,s5
   18d0c:	03ea88b3          	mul	a7,s5,t5
   18d10:	03e98f33          	mul	t5,s3,t5
   18d14:	0108db13          	srli	s6,a7,0x10
   18d18:	97fa                	add	a5,a5,t5
   18d1a:	97da                	add	a5,a5,s6
   18d1c:	01e7f463          	bgeu	a5,t5,18d24 <__multf3+0x43e>
   18d20:	6f41                	lui	t5,0x10
   18d22:	937a                	add	t1,t1,t5
   18d24:	08c2                	slli	a7,a7,0x10
   18d26:	0107db13          	srli	s6,a5,0x10
   18d2a:	0108d893          	srli	a7,a7,0x10
   18d2e:	07c2                	slli	a5,a5,0x10
   18d30:	03c90f33          	mul	t5,s2,t3
   18d34:	9b1a                	add	s6,s6,t1
   18d36:	97c6                	add	a5,a5,a7
   18d38:	03c50333          	mul	t1,a0,t3
   18d3c:	02a688b3          	mul	a7,a3,a0
   18d40:	01035c13          	srli	s8,t1,0x10
   18d44:	98fa                	add	a7,a7,t5
   18d46:	98e2                	add	a7,a7,s8
   18d48:	02d90bb3          	mul	s7,s2,a3
   18d4c:	01e8f463          	bgeu	a7,t5,18d54 <__multf3+0x46e>
   18d50:	6f41                	lui	t5,0x10
   18d52:	9bfa                	add	s7,s7,t5
   18d54:	0342                	slli	t1,t1,0x10
   18d56:	0108df13          	srli	t5,a7,0x10
   18d5a:	01035313          	srli	t1,t1,0x10
   18d5e:	08c2                	slli	a7,a7,0x10
   18d60:	9f5e                	add	t5,t5,s7
   18d62:	989a                	add	a7,a7,t1
   18d64:	03d38c33          	mul	s8,t2,t4
   18d68:	02be8333          	mul	t1,t4,a1
   18d6c:	02b70bb3          	mul	s7,a4,a1
   18d70:	01035d13          	srli	s10,t1,0x10
   18d74:	9be2                	add	s7,s7,s8
   18d76:	9bea                	add	s7,s7,s10
   18d78:	02770cb3          	mul	s9,a4,t2
   18d7c:	018bf463          	bgeu	s7,s8,18d84 <__multf3+0x49e>
   18d80:	6c41                	lui	s8,0x10
   18d82:	9ce2                	add	s9,s9,s8
   18d84:	0342                	slli	t1,t1,0x10
   18d86:	010bdc13          	srli	s8,s7,0x10
   18d8a:	01035313          	srli	t1,t1,0x10
   18d8e:	0bc2                	slli	s7,s7,0x10
   18d90:	935e                	add	t1,t1,s7
   18d92:	5b92                	lw	s7,36(sp)
   18d94:	9c66                	add	s8,s8,s9
   18d96:	5c82                	lw	s9,32(sp)
   18d98:	9bb2                	add	s7,s7,a2
   18d9a:	00cbb633          	sltu	a2,s7,a2
   18d9e:	9cfe                	add	s9,s9,t6
   18da0:	9666                	add	a2,a2,s9
   18da2:	97de                	add	a5,a5,s7
   18da4:	9b32                	add	s6,s6,a2
   18da6:	0177bbb3          	sltu	s7,a5,s7
   18daa:	9bda                	add	s7,s7,s6
   18dac:	98be                	add	a7,a7,a5
   18dae:	9f5e                	add	t5,t5,s7
   18db0:	00f8b7b3          	sltu	a5,a7,a5
   18db4:	97fa                	add	a5,a5,t5
   18db6:	01fcbfb3          	sltu	t6,s9,t6
   18dba:	01963cb3          	sltu	s9,a2,s9
   18dbe:	00cb3633          	sltu	a2,s6,a2
   18dc2:	016bbb33          	sltu	s6,s7,s6
   18dc6:	019fecb3          	or	s9,t6,s9
   18dca:	01666633          	or	a2,a2,s6
   18dce:	017f3bb3          	sltu	s7,t5,s7
   18dd2:	01e7bf33          	sltu	t5,a5,t5
   18dd6:	9c3e                	add	s8,s8,a5
   18dd8:	9666                	add	a2,a2,s9
   18dda:	01ebebb3          	or	s7,s7,t5
   18dde:	9bb2                	add	s7,s7,a2
   18de0:	00fc3f33          	sltu	t5,s8,a5
   18de4:	03c38fb3          	mul	t6,t2,t3
   18de8:	9346                	add	t1,t1,a7
   18dea:	011338b3          	sltu	a7,t1,a7
   18dee:	98e2                	add	a7,a7,s8
   18df0:	0188bc33          	sltu	s8,a7,s8
   18df4:	018f6f33          	or	t5,t5,s8
   18df8:	9f5e                	add	t5,t5,s7
   18dfa:	d69a                	sw	t1,108(sp)
   18dfc:	03c587b3          	mul	a5,a1,t3
   18e00:	02b68633          	mul	a2,a3,a1
   18e04:	0107db93          	srli	s7,a5,0x10
   18e08:	967e                	add	a2,a2,t6
   18e0a:	965e                	add	a2,a2,s7
   18e0c:	02768b33          	mul	s6,a3,t2
   18e10:	01f67463          	bgeu	a2,t6,18e18 <__multf3+0x532>
   18e14:	6fc1                	lui	t6,0x10
   18e16:	9b7e                	add	s6,s6,t6
   18e18:	07c2                	slli	a5,a5,0x10
   18e1a:	01065f93          	srli	t6,a2,0x10
   18e1e:	83c1                	srli	a5,a5,0x10
   18e20:	0642                	slli	a2,a2,0x10
   18e22:	9fda                	add	t6,t6,s6
   18e24:	963e                	add	a2,a2,a5
   18e26:	02590b33          	mul	s6,s2,t0
   18e2a:	02a287b3          	mul	a5,t0,a0
   18e2e:	02aa0533          	mul	a0,s4,a0
   18e32:	0107db93          	srli	s7,a5,0x10
   18e36:	955a                	add	a0,a0,s6
   18e38:	955e                	add	a0,a0,s7
   18e3a:	03490933          	mul	s2,s2,s4
   18e3e:	01657463          	bgeu	a0,s6,18e46 <__multf3+0x560>
   18e42:	6b41                	lui	s6,0x10
   18e44:	995a                	add	s2,s2,s6
   18e46:	07c2                	slli	a5,a5,0x10
   18e48:	01055b13          	srli	s6,a0,0x10
   18e4c:	83c1                	srli	a5,a5,0x10
   18e4e:	0542                	slli	a0,a0,0x10
   18e50:	995a                	add	s2,s2,s6
   18e52:	953e                	add	a0,a0,a5
   18e54:	035e8b33          	mul	s6,t4,s5
   18e58:	035707b3          	mul	a5,a4,s5
   18e5c:	03d98eb3          	mul	t4,s3,t4
   18e60:	03370bb3          	mul	s7,a4,s3
   18e64:	97f6                	add	a5,a5,t4
   18e66:	010b5713          	srli	a4,s6,0x10
   18e6a:	97ba                	add	a5,a5,a4
   18e6c:	01d7f463          	bgeu	a5,t4,18e74 <__multf3+0x58e>
   18e70:	6741                	lui	a4,0x10
   18e72:	9bba                	add	s7,s7,a4
   18e74:	0b42                	slli	s6,s6,0x10
   18e76:	0107de93          	srli	t4,a5,0x10
   18e7a:	010b5b13          	srli	s6,s6,0x10
   18e7e:	07c2                	slli	a5,a5,0x10
   18e80:	02b28733          	mul	a4,t0,a1
   18e84:	97da                	add	a5,a5,s6
   18e86:	9ede                	add	t4,t4,s7
   18e88:	02538b33          	mul	s6,t2,t0
   18e8c:	01075b93          	srli	s7,a4,0x10
   18e90:	02ba05b3          	mul	a1,s4,a1
   18e94:	95da                	add	a1,a1,s6
   18e96:	95de                	add	a1,a1,s7
   18e98:	034383b3          	mul	t2,t2,s4
   18e9c:	0165f463          	bgeu	a1,s6,18ea4 <__multf3+0x5be>
   18ea0:	6b41                	lui	s6,0x10
   18ea2:	93da                	add	t2,t2,s6
   18ea4:	0742                	slli	a4,a4,0x10
   18ea6:	0105db13          	srli	s6,a1,0x10
   18eaa:	8341                	srli	a4,a4,0x10
   18eac:	05c2                	slli	a1,a1,0x10
   18eae:	93da                	add	t2,t2,s6
   18eb0:	95ba                	add	a1,a1,a4
   18eb2:	03368b33          	mul	s6,a3,s3
   18eb6:	03ca8733          	mul	a4,s5,t3
   18eba:	035686b3          	mul	a3,a3,s5
   18ebe:	01075b93          	srli	s7,a4,0x10
   18ec2:	03c98e33          	mul	t3,s3,t3
   18ec6:	96f2                	add	a3,a3,t3
   18ec8:	96de                	add	a3,a3,s7
   18eca:	01c6f463          	bgeu	a3,t3,18ed2 <__multf3+0x5ec>
   18ece:	6e41                	lui	t3,0x10
   18ed0:	9b72                	add	s6,s6,t3
   18ed2:	9646                	add	a2,a2,a7
   18ed4:	9ffa                	add	t6,t6,t5
   18ed6:	011638b3          	sltu	a7,a2,a7
   18eda:	98fe                	add	a7,a7,t6
   18edc:	9532                	add	a0,a0,a2
   18ede:	9946                	add	s2,s2,a7
   18ee0:	00c53633          	sltu	a2,a0,a2
   18ee4:	964a                	add	a2,a2,s2
   18ee6:	97aa                	add	a5,a5,a0
   18ee8:	9eb2                	add	t4,t4,a2
   18eea:	0742                	slli	a4,a4,0x10
   18eec:	d8be                	sw	a5,112(sp)
   18eee:	00a7b7b3          	sltu	a5,a5,a0
   18ef2:	97f6                	add	a5,a5,t4
   18ef4:	0106de13          	srli	t3,a3,0x10
   18ef8:	8341                	srli	a4,a4,0x10
   18efa:	06c2                	slli	a3,a3,0x10
   18efc:	95be                	add	a1,a1,a5
   18efe:	96ba                	add	a3,a3,a4
   18f00:	96ae                	add	a3,a3,a1
   18f02:	01efbf33          	sltu	t5,t6,t5
   18f06:	dab6                	sw	a3,116(sp)
   18f08:	01f8bfb3          	sltu	t6,a7,t6
   18f0c:	00b6b6b3          	sltu	a3,a3,a1
   18f10:	011938b3          	sltu	a7,s2,a7
   18f14:	01263933          	sltu	s2,a2,s2
   18f18:	00ceb633          	sltu	a2,t4,a2
   18f1c:	01d7beb3          	sltu	t4,a5,t4
   18f20:	00f5b7b3          	sltu	a5,a1,a5
   18f24:	035285b3          	mul	a1,t0,s5
   18f28:	01ff6f33          	or	t5,t5,t6
   18f2c:	0128e8b3          	or	a7,a7,s2
   18f30:	9f46                	add	t5,t5,a7
   18f32:	01d66633          	or	a2,a2,t4
   18f36:	967a                	add	a2,a2,t5
   18f38:	93b2                	add	t2,t2,a2
   18f3a:	979e                	add	a5,a5,t2
   18f3c:	9e5a                	add	t3,t3,s6
   18f3e:	9e3e                	add	t3,t3,a5
   18f40:	025982b3          	mul	t0,s3,t0
   18f44:	96f2                	add	a3,a3,t3
   18f46:	00c3b633          	sltu	a2,t2,a2
   18f4a:	0077b3b3          	sltu	t2,a5,t2
   18f4e:	00fe37b3          	sltu	a5,t3,a5
   18f52:	01c6be33          	sltu	t3,a3,t3
   18f56:	01c7ee33          	or	t3,a5,t3
   18f5a:	0105d793          	srli	a5,a1,0x10
   18f5e:	00766633          	or	a2,a2,t2
   18f62:	033a09b3          	mul	s3,s4,s3
   18f66:	035a0a33          	mul	s4,s4,s5
   18f6a:	9a16                	add	s4,s4,t0
   18f6c:	97d2                	add	a5,a5,s4
   18f6e:	0057f463          	bgeu	a5,t0,18f76 <__multf3+0x690>
   18f72:	6741                	lui	a4,0x10
   18f74:	99ba                	add	s3,s3,a4
   18f76:	05c2                	slli	a1,a1,0x10
   18f78:	0107d713          	srli	a4,a5,0x10
   18f7c:	81c1                	srli	a1,a1,0x10
   18f7e:	07c2                	slli	a5,a5,0x10
   18f80:	97ae                	add	a5,a5,a1
   18f82:	97b6                	add	a5,a5,a3
   18f84:	9732                	add	a4,a4,a2
   18f86:	00d7b6b3          	sltu	a3,a5,a3
   18f8a:	9772                	add	a4,a4,t3
   18f8c:	96ba                	add	a3,a3,a4
   18f8e:	dcbe                	sw	a5,120(sp)
   18f90:	4752                	lw	a4,20(sp)
   18f92:	47f2                	lw	a5,28(sp)
   18f94:	96ce                	add	a3,a3,s3
   18f96:	0336                	slli	t1,t1,0xd
   18f98:	8fd9                	or	a5,a5,a4
   18f9a:	00fde7b3          	or	a5,s11,a5
   18f9e:	00f36333          	or	t1,t1,a5
   18fa2:	deb6                	sw	a3,124(sp)
   18fa4:	109c                	addi	a5,sp,96
   18fa6:	1890                	addi	a2,sp,112
   18fa8:	47d8                	lw	a4,12(a5)
   18faa:	4b94                	lw	a3,16(a5)
   18fac:	834d                	srli	a4,a4,0x13
   18fae:	06b6                	slli	a3,a3,0xd
   18fb0:	8f55                	or	a4,a4,a3
   18fb2:	c398                	sw	a4,0(a5)
   18fb4:	0791                	addi	a5,a5,4
   18fb6:	fef619e3          	bne	a2,a5,18fa8 <__multf3+0x6c2>
   18fba:	5786                	lw	a5,96(sp)
   18fbc:	00603333          	snez	t1,t1
   18fc0:	5736                	lw	a4,108(sp)
   18fc2:	00f36333          	or	t1,t1,a5
   18fc6:	57a6                	lw	a5,104(sp)
   18fc8:	ceba                	sw	a4,92(sp)
   18fca:	c89a                	sw	t1,80(sp)
   18fcc:	ccbe                	sw	a5,88(sp)
   18fce:	5796                	lw	a5,100(sp)
   18fd0:	cabe                	sw	a5,84(sp)
   18fd2:	00b71793          	slli	a5,a4,0xb
   18fd6:	1e07dd63          	bgez	a5,191d0 <__multf3+0x8ea>
   18fda:	037e                	slli	t1,t1,0x1f
   18fdc:	089c                	addi	a5,sp,80
   18fde:	08ec                	addi	a1,sp,92
   18fe0:	4394                	lw	a3,0(a5)
   18fe2:	43d0                	lw	a2,4(a5)
   18fe4:	8285                	srli	a3,a3,0x1
   18fe6:	067e                	slli	a2,a2,0x1f
   18fe8:	8ed1                	or	a3,a3,a2
   18fea:	c394                	sw	a3,0(a5)
   18fec:	0791                	addi	a5,a5,4
   18fee:	fef599e3          	bne	a1,a5,18fe0 <__multf3+0x6fa>
   18ff2:	47c6                	lw	a5,80(sp)
   18ff4:	01f35313          	srli	t1,t1,0x1f
   18ff8:	8305                	srli	a4,a4,0x1
   18ffa:	0067e7b3          	or	a5,a5,t1
   18ffe:	ceba                	sw	a4,92(sp)
   19000:	c8be                	sw	a5,80(sp)
   19002:	4742                	lw	a4,16(sp)
   19004:	6791                	lui	a5,0x4
   19006:	17fd                	addi	a5,a5,-1 # 3fff <exit-0xc0b5>
   19008:	97ba                	add	a5,a5,a4
   1900a:	28f05c63          	blez	a5,192a2 <__multf3+0x9bc>
   1900e:	46c6                	lw	a3,80(sp)
   19010:	0076f713          	andi	a4,a3,7
   19014:	1c070b63          	beqz	a4,191ea <__multf3+0x904>
   19018:	4589                	li	a1,2
   1901a:	4756                	lw	a4,84(sp)
   1901c:	4676                	lw	a2,92(sp)
   1901e:	00146413          	ori	s0,s0,1
   19022:	1cb48263          	beq	s1,a1,191e6 <__multf3+0x900>
   19026:	458d                	li	a1,3
   19028:	1ab48763          	beq	s1,a1,191d6 <__multf3+0x8f0>
   1902c:	1a049f63          	bnez	s1,191ea <__multf3+0x904>
   19030:	00f6f593          	andi	a1,a3,15
   19034:	4511                	li	a0,4
   19036:	1aa58a63          	beq	a1,a0,191ea <__multf3+0x904>
   1903a:	00a685b3          	add	a1,a3,a0
   1903e:	c8ae                	sw	a1,80(sp)
   19040:	ffc6b693          	sltiu	a3,a3,-4
   19044:	0016b693          	seqz	a3,a3
   19048:	9736                	add	a4,a4,a3
   1904a:	caba                	sw	a4,84(sp)
   1904c:	00d73733          	sltu	a4,a4,a3
   19050:	46e6                	lw	a3,88(sp)
   19052:	9736                	add	a4,a4,a3
   19054:	ccba                	sw	a4,88(sp)
   19056:	00d73733          	sltu	a4,a4,a3
   1905a:	9732                	add	a4,a4,a2
   1905c:	ceba                	sw	a4,92(sp)
   1905e:	a271                	j	191ea <__multf3+0x904>
   19060:	4a81                	li	s5,0
   19062:	4985                	li	s3,1
   19064:	ba11                	j	18978 <__multf3+0x92>
   19066:	4989                	li	s3,2
   19068:	ba01                	j	18978 <__multf3+0x92>
   1906a:	017b67b3          	or	a5,s6,s7
   1906e:	0187e7b3          	or	a5,a5,s8
   19072:	8fc9                	or	a5,a5,a0
   19074:	4705                	li	a4,1
   19076:	a2078de3          	beqz	a5,18ab0 <__multf3+0x1ca>
   1907a:	cd1d                	beqz	a0,190b8 <__multf3+0x7d2>
   1907c:	097010ef          	jal	1a912 <__clzsi2>
   19080:	ff450693          	addi	a3,a0,-12
   19084:	4056d713          	srai	a4,a3,0x5
   19088:	8afd                	andi	a3,a3,31
   1908a:	00fc                	addi	a5,sp,76
   1908c:	cea1                	beqz	a3,190e4 <__multf3+0x7fe>
   1908e:	02000893          	li	a7,32
   19092:	00271813          	slli	a6,a4,0x2
   19096:	40d888b3          	sub	a7,a7,a3
   1909a:	008c                	addi	a1,sp,64
   1909c:	410787b3          	sub	a5,a5,a6
   190a0:	06f59163          	bne	a1,a5,19102 <__multf3+0x81c>
   190a4:	fff70793          	addi	a5,a4,-1 # ffff <exit-0xb5>
   190a8:	4706                	lw	a4,64(sp)
   190aa:	95c2                	add	a1,a1,a6
   190ac:	00d71733          	sll	a4,a4,a3
   190b0:	c198                	sw	a4,0(a1)
   190b2:	56fd                	li	a3,-1
   190b4:	0090                	addi	a2,sp,64
   190b6:	a89d                	j	1912c <__multf3+0x846>
   190b8:	000c0863          	beqz	s8,190c8 <__multf3+0x7e2>
   190bc:	8562                	mv	a0,s8
   190be:	055010ef          	jal	1a912 <__clzsi2>
   190c2:	02050513          	addi	a0,a0,32
   190c6:	bf6d                	j	19080 <__multf3+0x79a>
   190c8:	000b0863          	beqz	s6,190d8 <__multf3+0x7f2>
   190cc:	855a                	mv	a0,s6
   190ce:	045010ef          	jal	1a912 <__clzsi2>
   190d2:	04050513          	addi	a0,a0,64
   190d6:	b76d                	j	19080 <__multf3+0x79a>
   190d8:	855e                	mv	a0,s7
   190da:	039010ef          	jal	1a912 <__clzsi2>
   190de:	06050513          	addi	a0,a0,96
   190e2:	bf79                	j	19080 <__multf3+0x79a>
   190e4:	5671                	li	a2,-4
   190e6:	02c70633          	mul	a2,a4,a2
   190ea:	468d                	li	a3,3
   190ec:	00c785b3          	add	a1,a5,a2
   190f0:	418c                	lw	a1,0(a1)
   190f2:	16fd                	addi	a3,a3,-1
   190f4:	17f1                	addi	a5,a5,-4
   190f6:	c3cc                	sw	a1,4(a5)
   190f8:	fee6dae3          	bge	a3,a4,190ec <__multf3+0x806>
   190fc:	fff70793          	addi	a5,a4,-1
   19100:	bf4d                	j	190b2 <__multf3+0x7cc>
   19102:	4390                	lw	a2,0(a5)
   19104:	ffc7a303          	lw	t1,-4(a5)
   19108:	01078e33          	add	t3,a5,a6
   1910c:	00d61633          	sll	a2,a2,a3
   19110:	01135333          	srl	t1,t1,a7
   19114:	00666633          	or	a2,a2,t1
   19118:	00ce2023          	sw	a2,0(t3) # 10000 <exit-0xb4>
   1911c:	17f1                	addi	a5,a5,-4
   1911e:	b749                	j	190a0 <__multf3+0x7ba>
   19120:	00279713          	slli	a4,a5,0x2
   19124:	9732                	add	a4,a4,a2
   19126:	00072023          	sw	zero,0(a4)
   1912a:	17fd                	addi	a5,a5,-1
   1912c:	fed79ae3          	bne	a5,a3,19120 <__multf3+0x83a>
   19130:	77f1                	lui	a5,0xffffc
   19132:	07c5                	addi	a5,a5,17 # ffffc011 <__BSS_END__+0xfffdf45d>
   19134:	8f89                	sub	a5,a5,a0
   19136:	baa5                	j	18aae <__multf3+0x1c8>
   19138:	017b6b33          	or	s6,s6,s7
   1913c:	018b6b33          	or	s6,s6,s8
   19140:	00ab6b33          	or	s6,s6,a0
   19144:	4709                	li	a4,2
   19146:	960b05e3          	beqz	s6,18ab0 <__multf3+0x1ca>
   1914a:	0542                	slli	a0,a0,0x10
   1914c:	8541                	srai	a0,a0,0x10
   1914e:	470d                	li	a4,3
   19150:	960540e3          	bltz	a0,18ab0 <__multf3+0x1ca>
   19154:	4441                	li	s0,16
   19156:	baa9                	j	18ab0 <__multf3+0x1ca>
   19158:	00f697b3          	sll	a5,a3,a5
   1915c:	5307f693          	andi	a3,a5,1328
   19160:	e2a9                	bnez	a3,191a2 <__multf3+0x8bc>
   19162:	0887f693          	andi	a3,a5,136
   19166:	e68d                	bnez	a3,19190 <__multf3+0x8aa>
   19168:	2407f793          	andi	a5,a5,576
   1916c:	960785e3          	beqz	a5,18ad6 <__multf3+0x1f0>
   19170:	4441                	li	s0,16
   19172:	67a1                	lui	a5,0x8
   19174:	cebe                	sw	a5,92(sp)
   19176:	cc82                	sw	zero,88(sp)
   19178:	ca82                	sw	zero,84(sp)
   1917a:	c882                	sw	zero,80(sp)
   1917c:	17fd                	addi	a5,a5,-1 # 7fff <exit-0x80b5>
   1917e:	4801                	li	a6,0
   19180:	a065                	j	19228 <__multf3+0x942>
   19182:	46bd                	li	a3,15
   19184:	fed787e3          	beq	a5,a3,19172 <__multf3+0x88c>
   19188:	46ad                	li	a3,11
   1918a:	8852                	mv	a6,s4
   1918c:	00d79b63          	bne	a5,a3,191a2 <__multf3+0x8bc>
   19190:	884a                	mv	a6,s2
   19192:	4786                	lw	a5,64(sp)
   19194:	c8be                	sw	a5,80(sp)
   19196:	4796                	lw	a5,68(sp)
   19198:	cabe                	sw	a5,84(sp)
   1919a:	47a6                	lw	a5,72(sp)
   1919c:	ccbe                	sw	a5,88(sp)
   1919e:	47b6                	lw	a5,76(sp)
   191a0:	a809                	j	191b2 <__multf3+0x8cc>
   191a2:	57c2                	lw	a5,48(sp)
   191a4:	874e                	mv	a4,s3
   191a6:	c8be                	sw	a5,80(sp)
   191a8:	57d2                	lw	a5,52(sp)
   191aa:	cabe                	sw	a5,84(sp)
   191ac:	57e2                	lw	a5,56(sp)
   191ae:	ccbe                	sw	a5,88(sp)
   191b0:	57f2                	lw	a5,60(sp)
   191b2:	cebe                	sw	a5,92(sp)
   191b4:	4789                	li	a5,2
   191b6:	2ef70f63          	beq	a4,a5,194b4 <__multf3+0xbce>
   191ba:	478d                	li	a5,3
   191bc:	faf70be3          	beq	a4,a5,19172 <__multf3+0x88c>
   191c0:	4785                	li	a5,1
   191c2:	e4f710e3          	bne	a4,a5,19002 <__multf3+0x71c>
   191c6:	ce82                	sw	zero,92(sp)
   191c8:	cc82                	sw	zero,88(sp)
   191ca:	ca82                	sw	zero,84(sp)
   191cc:	c882                	sw	zero,80(sp)
   191ce:	acc9                	j	194a0 <__multf3+0xbba>
   191d0:	47e2                	lw	a5,24(sp)
   191d2:	c83e                	sw	a5,16(sp)
   191d4:	b53d                	j	19002 <__multf3+0x71c>
   191d6:	00081a63          	bnez	a6,191ea <__multf3+0x904>
   191da:	00868593          	addi	a1,a3,8
   191de:	c8ae                	sw	a1,80(sp)
   191e0:	ff86b693          	sltiu	a3,a3,-8
   191e4:	b585                	j	19044 <__multf3+0x75e>
   191e6:	fe081ae3          	bnez	a6,191da <__multf3+0x8f4>
   191ea:	4776                	lw	a4,92(sp)
   191ec:	00b71693          	slli	a3,a4,0xb
   191f0:	0006da63          	bgez	a3,19204 <__multf3+0x91e>
   191f4:	46c2                	lw	a3,16(sp)
   191f6:	fff007b7          	lui	a5,0xfff00
   191fa:	17fd                	addi	a5,a5,-1 # ffefffff <__BSS_END__+0xffee344b>
   191fc:	8f7d                	and	a4,a4,a5
   191fe:	6791                	lui	a5,0x4
   19200:	ceba                	sw	a4,92(sp)
   19202:	97b6                	add	a5,a5,a3
   19204:	0894                	addi	a3,sp,80
   19206:	08e8                	addi	a0,sp,92
   19208:	4290                	lw	a2,0(a3)
   1920a:	42cc                	lw	a1,4(a3)
   1920c:	820d                	srli	a2,a2,0x3
   1920e:	05f6                	slli	a1,a1,0x1d
   19210:	8e4d                	or	a2,a2,a1
   19212:	c290                	sw	a2,0(a3)
   19214:	0691                	addi	a3,a3,4
   19216:	fed519e3          	bne	a0,a3,19208 <__multf3+0x922>
   1921a:	6621                	lui	a2,0x8
   1921c:	ffe60693          	addi	a3,a2,-2 # 7ffe <exit-0x80b6>
   19220:	04f6c863          	blt	a3,a5,19270 <__multf3+0x98a>
   19224:	830d                	srli	a4,a4,0x3
   19226:	ceba                	sw	a4,92(sp)
   19228:	45f6                	lw	a1,92(sp)
   1922a:	083e                	slli	a6,a6,0xf
   1922c:	00f86833          	or	a6,a6,a5
   19230:	06b11623          	sh	a1,108(sp)
   19234:	07011723          	sh	a6,110(sp)
   19238:	4646                	lw	a2,80(sp)
   1923a:	46d6                	lw	a3,84(sp)
   1923c:	4766                	lw	a4,88(sp)
   1923e:	57b6                	lw	a5,108(sp)
   19240:	c019                	beqz	s0,19246 <__multf3+0x960>
   19242:	00142073          	csrs	fflags,s0
   19246:	45b2                	lw	a1,12(sp)
   19248:	50fa                	lw	ra,188(sp)
   1924a:	546a                	lw	s0,184(sp)
   1924c:	c190                	sw	a2,0(a1)
   1924e:	c1d4                	sw	a3,4(a1)
   19250:	c598                	sw	a4,8(a1)
   19252:	c5dc                	sw	a5,12(a1)
   19254:	54da                	lw	s1,180(sp)
   19256:	594a                	lw	s2,176(sp)
   19258:	59ba                	lw	s3,172(sp)
   1925a:	5a2a                	lw	s4,168(sp)
   1925c:	5a9a                	lw	s5,164(sp)
   1925e:	5b0a                	lw	s6,160(sp)
   19260:	4bfa                	lw	s7,156(sp)
   19262:	4c6a                	lw	s8,152(sp)
   19264:	4cda                	lw	s9,148(sp)
   19266:	4d4a                	lw	s10,144(sp)
   19268:	4dba                	lw	s11,140(sp)
   1926a:	852e                	mv	a0,a1
   1926c:	6129                	addi	sp,sp,192
   1926e:	8082                	ret
   19270:	4789                	li	a5,2
   19272:	02f48563          	beq	s1,a5,1929c <__multf3+0x9b6>
   19276:	478d                	li	a5,3
   19278:	00f48763          	beq	s1,a5,19286 <__multf3+0x9a0>
   1927c:	e499                	bnez	s1,1928a <__multf3+0x9a4>
   1927e:	4701                	li	a4,0
   19280:	fff60793          	addi	a5,a2,-1
   19284:	a029                	j	1928e <__multf3+0x9a8>
   19286:	fe080ce3          	beqz	a6,1927e <__multf3+0x998>
   1928a:	577d                	li	a4,-1
   1928c:	87b6                	mv	a5,a3
   1928e:	ceba                	sw	a4,92(sp)
   19290:	ccba                	sw	a4,88(sp)
   19292:	caba                	sw	a4,84(sp)
   19294:	c8ba                	sw	a4,80(sp)
   19296:	00546413          	ori	s0,s0,5
   1929a:	b779                	j	19228 <__multf3+0x942>
   1929c:	fe0811e3          	bnez	a6,1927e <__multf3+0x998>
   192a0:	b7ed                	j	1928a <__multf3+0x9a4>
   192a2:	efc1                	bnez	a5,1933a <__multf3+0xa54>
   192a4:	47c6                	lw	a5,80(sp)
   192a6:	4776                	lw	a4,92(sp)
   192a8:	0077f693          	andi	a3,a5,7
   192ac:	c29d                	beqz	a3,192d2 <__multf3+0x9ec>
   192ae:	4589                	li	a1,2
   192b0:	46d6                	lw	a3,84(sp)
   192b2:	4666                	lw	a2,88(sp)
   192b4:	00146413          	ori	s0,s0,1
   192b8:	06b48e63          	beq	s1,a1,19334 <__multf3+0xa4e>
   192bc:	458d                	li	a1,3
   192be:	04b48d63          	beq	s1,a1,19318 <__multf3+0xa32>
   192c2:	e881                	bnez	s1,192d2 <__multf3+0x9ec>
   192c4:	00f7f593          	andi	a1,a5,15
   192c8:	4511                	li	a0,4
   192ca:	ffc7b793          	sltiu	a5,a5,-4
   192ce:	04a59963          	bne	a1,a0,19320 <__multf3+0xa3a>
   192d2:	8351                	srli	a4,a4,0x14
   192d4:	8b05                	andi	a4,a4,1
   192d6:	00174713          	xori	a4,a4,1
   192da:	4785                	li	a5,1
   192dc:	0894                	addi	a3,sp,80
   192de:	4057d613          	srai	a2,a5,0x5
   192e2:	01f7f593          	andi	a1,a5,31
   192e6:	88b6                	mv	a7,a3
   192e8:	4781                	li	a5,0
   192ea:	4501                	li	a0,0
   192ec:	04c51f63          	bne	a0,a2,1934a <__multf3+0xa64>
   192f0:	450d                	li	a0,3
   192f2:	8d11                	sub	a0,a0,a2
   192f4:	00261f13          	slli	t5,a2,0x2
   192f8:	e1a5                	bnez	a1,19358 <__multf3+0xa72>
   192fa:	88b6                	mv	a7,a3
   192fc:	01e88333          	add	t1,a7,t5
   19300:	00032303          	lw	t1,0(t1)
   19304:	0585                	addi	a1,a1,1 # 10001 <exit-0xb3>
   19306:	0891                	addi	a7,a7,4
   19308:	fe68ae23          	sw	t1,-4(a7)
   1930c:	feb558e3          	bge	a0,a1,192fc <__multf3+0xa16>
   19310:	4591                	li	a1,4
   19312:	40c58633          	sub	a2,a1,a2
   19316:	a88d                	j	19388 <__multf3+0xaa2>
   19318:	fa081de3          	bnez	a6,192d2 <__multf3+0x9ec>
   1931c:	ff87b793          	sltiu	a5,a5,-8
   19320:	0017b793          	seqz	a5,a5
   19324:	96be                	add	a3,a3,a5
   19326:	00f6b6b3          	sltu	a3,a3,a5
   1932a:	9636                	add	a2,a2,a3
   1932c:	00d63633          	sltu	a2,a2,a3
   19330:	9732                	add	a4,a4,a2
   19332:	b745                	j	192d2 <__multf3+0x9ec>
   19334:	f8080fe3          	beqz	a6,192d2 <__multf3+0x9ec>
   19338:	b7d5                	j	1931c <__multf3+0xa36>
   1933a:	f8d00713          	li	a4,-115
   1933e:	12e7c663          	blt	a5,a4,1946a <__multf3+0xb84>
   19342:	4705                	li	a4,1
   19344:	40f707b3          	sub	a5,a4,a5
   19348:	bf51                	j	192dc <__multf3+0x9f6>
   1934a:	0008a303          	lw	t1,0(a7)
   1934e:	0505                	addi	a0,a0,1
   19350:	0891                	addi	a7,a7,4
   19352:	0067e7b3          	or	a5,a5,t1
   19356:	bf59                	j	192ec <__multf3+0xa06>
   19358:	01e688b3          	add	a7,a3,t5
   1935c:	0008a303          	lw	t1,0(a7)
   19360:	02000e13          	li	t3,32
   19364:	40be0e33          	sub	t3,t3,a1
   19368:	01c31333          	sll	t1,t1,t3
   1936c:	0067e7b3          	or	a5,a5,t1
   19370:	4e81                	li	t4,0
   19372:	00aecd63          	blt	t4,a0,1938c <__multf3+0xaa6>
   19376:	4891                	li	a7,4
   19378:	40c88633          	sub	a2,a7,a2
   1937c:	48f6                	lw	a7,92(sp)
   1937e:	050a                	slli	a0,a0,0x2
   19380:	9536                	add	a0,a0,a3
   19382:	00b8d5b3          	srl	a1,a7,a1
   19386:	c10c                	sw	a1,0(a0)
   19388:	4511                	li	a0,4
   1938a:	a805                	j	193ba <__multf3+0xad4>
   1938c:	0008a303          	lw	t1,0(a7)
   19390:	0048af83          	lw	t6,4(a7)
   19394:	41e882b3          	sub	t0,a7,t5
   19398:	00b35333          	srl	t1,t1,a1
   1939c:	01cf9fb3          	sll	t6,t6,t3
   193a0:	01f36333          	or	t1,t1,t6
   193a4:	0062a023          	sw	t1,0(t0)
   193a8:	0e85                	addi	t4,t4,1
   193aa:	0891                	addi	a7,a7,4
   193ac:	b7d9                	j	19372 <__multf3+0xa8c>
   193ae:	00261593          	slli	a1,a2,0x2
   193b2:	95b6                	add	a1,a1,a3
   193b4:	0005a023          	sw	zero,0(a1)
   193b8:	0605                	addi	a2,a2,1
   193ba:	fea61ae3          	bne	a2,a0,193ae <__multf3+0xac8>
   193be:	45c6                	lw	a1,80(sp)
   193c0:	00f037b3          	snez	a5,a5
   193c4:	8fcd                	or	a5,a5,a1
   193c6:	c8be                	sw	a5,80(sp)
   193c8:	0077f593          	andi	a1,a5,7
   193cc:	cda9                	beqz	a1,19426 <__multf3+0xb40>
   193ce:	4509                	li	a0,2
   193d0:	45f6                	lw	a1,92(sp)
   193d2:	00146413          	ori	s0,s0,1
   193d6:	04a48663          	beq	s1,a0,19422 <__multf3+0xb3c>
   193da:	450d                	li	a0,3
   193dc:	02a48b63          	beq	s1,a0,19412 <__multf3+0xb2c>
   193e0:	e0b9                	bnez	s1,19426 <__multf3+0xb40>
   193e2:	00f7f513          	andi	a0,a5,15
   193e6:	04c50063          	beq	a0,a2,19426 <__multf3+0xb40>
   193ea:	00478613          	addi	a2,a5,4 # 4004 <exit-0xc0b0>
   193ee:	c8b2                	sw	a2,80(sp)
   193f0:	ffc7b793          	sltiu	a5,a5,-4
   193f4:	4656                	lw	a2,84(sp)
   193f6:	0017b793          	seqz	a5,a5
   193fa:	97b2                	add	a5,a5,a2
   193fc:	cabe                	sw	a5,84(sp)
   193fe:	00c7b7b3          	sltu	a5,a5,a2
   19402:	4666                	lw	a2,88(sp)
   19404:	97b2                	add	a5,a5,a2
   19406:	ccbe                	sw	a5,88(sp)
   19408:	00c7b7b3          	sltu	a5,a5,a2
   1940c:	97ae                	add	a5,a5,a1
   1940e:	cebe                	sw	a5,92(sp)
   19410:	a819                	j	19426 <__multf3+0xb40>
   19412:	00081a63          	bnez	a6,19426 <__multf3+0xb40>
   19416:	00878613          	addi	a2,a5,8
   1941a:	c8b2                	sw	a2,80(sp)
   1941c:	ff87b793          	sltiu	a5,a5,-8
   19420:	bfd1                	j	193f4 <__multf3+0xb0e>
   19422:	fe081ae3          	bnez	a6,19416 <__multf3+0xb30>
   19426:	4676                	lw	a2,92(sp)
   19428:	00c61793          	slli	a5,a2,0xc
   1942c:	0207d063          	bgez	a5,1944c <__multf3+0xb66>
   19430:	ce82                	sw	zero,92(sp)
   19432:	cc82                	sw	zero,88(sp)
   19434:	ca82                	sw	zero,84(sp)
   19436:	c882                	sw	zero,80(sp)
   19438:	00146413          	ori	s0,s0,1
   1943c:	4785                	li	a5,1
   1943e:	de0705e3          	beqz	a4,19228 <__multf3+0x942>
   19442:	00147713          	andi	a4,s0,1
   19446:	0706                	slli	a4,a4,0x1
   19448:	8c59                	or	s0,s0,a4
   1944a:	bbf9                	j	19228 <__multf3+0x942>
   1944c:	00c68513          	addi	a0,a3,12
   19450:	429c                	lw	a5,0(a3)
   19452:	42cc                	lw	a1,4(a3)
   19454:	838d                	srli	a5,a5,0x3
   19456:	05f6                	slli	a1,a1,0x1d
   19458:	8fcd                	or	a5,a5,a1
   1945a:	c29c                	sw	a5,0(a3)
   1945c:	0691                	addi	a3,a3,4
   1945e:	fed519e3          	bne	a0,a3,19450 <__multf3+0xb6a>
   19462:	820d                	srli	a2,a2,0x3
   19464:	ceb2                	sw	a2,92(sp)
   19466:	4781                	li	a5,0
   19468:	bfd9                	j	1943e <__multf3+0xb58>
   1946a:	4756                	lw	a4,84(sp)
   1946c:	47c6                	lw	a5,80(sp)
   1946e:	8fd9                	or	a5,a5,a4
   19470:	4766                	lw	a4,88(sp)
   19472:	8fd9                	or	a5,a5,a4
   19474:	4776                	lw	a4,92(sp)
   19476:	8fd9                	or	a5,a5,a4
   19478:	c395                	beqz	a5,1949c <__multf3+0xbb6>
   1947a:	4785                	li	a5,1
   1947c:	c8be                	sw	a5,80(sp)
   1947e:	8c5d                	or	s0,s0,a5
   19480:	ce82                	sw	zero,92(sp)
   19482:	cc82                	sw	zero,88(sp)
   19484:	ca82                	sw	zero,84(sp)
   19486:	4789                	li	a5,2
   19488:	02f48363          	beq	s1,a5,194ae <__multf3+0xbc8>
   1948c:	478d                	li	a5,3
   1948e:	00f48b63          	beq	s1,a5,194a4 <__multf3+0xbbe>
   19492:	4795                	li	a5,5
   19494:	c899                	beqz	s1,194aa <__multf3+0xbc4>
   19496:	47c6                	lw	a5,80(sp)
   19498:	838d                	srli	a5,a5,0x3
   1949a:	c8be                	sw	a5,80(sp)
   1949c:	00246413          	ori	s0,s0,2
   194a0:	4781                	li	a5,0
   194a2:	b359                	j	19228 <__multf3+0x942>
   194a4:	fe0819e3          	bnez	a6,19496 <__multf3+0xbb0>
   194a8:	47a5                	li	a5,9
   194aa:	c8be                	sw	a5,80(sp)
   194ac:	b7ed                	j	19496 <__multf3+0xbb0>
   194ae:	fe081de3          	bnez	a6,194a8 <__multf3+0xbc2>
   194b2:	b7d5                	j	19496 <__multf3+0xbb0>
   194b4:	67a1                	lui	a5,0x8
   194b6:	ce82                	sw	zero,92(sp)
   194b8:	cc82                	sw	zero,88(sp)
   194ba:	ca82                	sw	zero,84(sp)
   194bc:	c882                	sw	zero,80(sp)
   194be:	17fd                	addi	a5,a5,-1 # 7fff <exit-0x80b5>
   194c0:	b3a5                	j	19228 <__multf3+0x942>

000194c2 <__subtf3>:
   194c2:	711d                	addi	sp,sp,-96
   194c4:	caa6                	sw	s1,84(sp)
   194c6:	ce86                	sw	ra,92(sp)
   194c8:	84aa                	mv	s1,a0
   194ca:	cca2                	sw	s0,88(sp)
   194cc:	c8ca                	sw	s2,80(sp)
   194ce:	c6ce                	sw	s3,76(sp)
   194d0:	c4d2                	sw	s4,72(sp)
   194d2:	c2d6                	sw	s5,68(sp)
   194d4:	c0da                	sw	s6,64(sp)
   194d6:	4194                	lw	a3,0(a1)
   194d8:	0045ae03          	lw	t3,4(a1)
   194dc:	4598                	lw	a4,8(a1)
   194de:	00c5a803          	lw	a6,12(a1)
   194e2:	421c                	lw	a5,0(a2)
   194e4:	00462303          	lw	t1,4(a2)
   194e8:	4608                	lw	a0,8(a2)
   194ea:	00c62883          	lw	a7,12(a2)
   194ee:	002029f3          	frrm	s3
   194f2:	dc3a                	sw	a4,56(sp)
   194f4:	c43a                	sw	a4,8(sp)
   194f6:	01081713          	slli	a4,a6,0x10
   194fa:	8341                	srli	a4,a4,0x10
   194fc:	de42                	sw	a6,60(sp)
   194fe:	c63a                	sw	a4,12(sp)
   19500:	00181713          	slli	a4,a6,0x1
   19504:	01f85813          	srli	a6,a6,0x1f
   19508:	da72                	sw	t3,52(sp)
   1950a:	c272                	sw	t3,4(sp)
   1950c:	01175413          	srli	s0,a4,0x11
   19510:	d836                	sw	a3,48(sp)
   19512:	c036                	sw	a3,0(sp)
   19514:	8942                	mv	s2,a6
   19516:	8f0a                	mv	t5,sp
   19518:	ff410e13          	addi	t3,sp,-12
   1951c:	870a                	mv	a4,sp
   1951e:	8f8a                	mv	t6,sp
   19520:	4750                	lw	a2,12(a4)
   19522:	470c                	lw	a1,8(a4)
   19524:	1771                	addi	a4,a4,-4
   19526:	060e                	slli	a2,a2,0x3
   19528:	81f5                	srli	a1,a1,0x1d
   1952a:	8e4d                	or	a2,a2,a1
   1952c:	cb10                	sw	a2,16(a4)
   1952e:	feee19e3          	bne	t3,a4,19520 <__subtf3+0x5e>
   19532:	01089713          	slli	a4,a7,0x10
   19536:	8341                	srli	a4,a4,0x10
   19538:	068e                	slli	a3,a3,0x3
   1953a:	da1a                	sw	t1,52(sp)
   1953c:	ca1a                	sw	t1,20(sp)
   1953e:	ce3a                	sw	a4,28(sp)
   19540:	01010313          	addi	t1,sp,16
   19544:	00189713          	slli	a4,a7,0x1
   19548:	dc2a                	sw	a0,56(sp)
   1954a:	de46                	sw	a7,60(sp)
   1954c:	cc2a                	sw	a0,24(sp)
   1954e:	01175e13          	srli	t3,a4,0x11
   19552:	c036                	sw	a3,0(sp)
   19554:	d83e                	sw	a5,48(sp)
   19556:	c83e                	sw	a5,16(sp)
   19558:	01f8d893          	srli	a7,a7,0x1f
   1955c:	0048                	addi	a0,sp,4
   1955e:	871a                	mv	a4,t1
   19560:	8e9a                	mv	t4,t1
   19562:	4750                	lw	a2,12(a4)
   19564:	470c                	lw	a1,8(a4)
   19566:	1771                	addi	a4,a4,-4
   19568:	060e                	slli	a2,a2,0x3
   1956a:	81f5                	srli	a1,a1,0x1d
   1956c:	8e4d                	or	a2,a2,a1
   1956e:	cb10                	sw	a2,16(a4)
   19570:	fee519e3          	bne	a0,a4,19562 <__subtf3+0xa0>
   19574:	078e                	slli	a5,a5,0x3
   19576:	6721                	lui	a4,0x8
   19578:	c83e                	sw	a5,16(sp)
   1957a:	177d                	addi	a4,a4,-1 # 7fff <exit-0x80b5>
   1957c:	00ee1963          	bne	t3,a4,1958e <__subtf3+0xcc>
   19580:	4662                	lw	a2,24(sp)
   19582:	4752                	lw	a4,20(sp)
   19584:	8f51                	or	a4,a4,a2
   19586:	4672                	lw	a2,28(sp)
   19588:	8f51                	or	a4,a4,a2
   1958a:	8f5d                	or	a4,a4,a5
   1958c:	e319                	bnez	a4,19592 <__subtf3+0xd0>
   1958e:	0018c893          	xori	a7,a7,1
   19592:	41c40733          	sub	a4,s0,t3
   19596:	67089463          	bne	a7,a6,19bfe <__subtf3+0x73c>
   1959a:	1ce05863          	blez	a4,1976a <__subtf3+0x2a8>
   1959e:	4f12                	lw	t5,4(sp)
   195a0:	4fa2                	lw	t6,8(sp)
   195a2:	48b2                	lw	a7,12(sp)
   195a4:	080e1963          	bnez	t3,19636 <__subtf3+0x174>
   195a8:	4552                	lw	a0,20(sp)
   195aa:	45e2                	lw	a1,24(sp)
   195ac:	4e72                	lw	t3,28(sp)
   195ae:	00b56633          	or	a2,a0,a1
   195b2:	01c66633          	or	a2,a2,t3
   195b6:	8e5d                	or	a2,a2,a5
   195b8:	ea05                	bnez	a2,195e8 <__subtf3+0x126>
   195ba:	67a1                	lui	a5,0x8
   195bc:	17fd                	addi	a5,a5,-1 # 7fff <exit-0x80b5>
   195be:	4401                	li	s0,0
   195c0:	00f71e63          	bne	a4,a5,195dc <__subtf3+0x11a>
   195c4:	01ff67b3          	or	a5,t5,t6
   195c8:	0117e7b3          	or	a5,a5,a7
   195cc:	8fd5                	or	a5,a5,a3
   195ce:	c799                	beqz	a5,195dc <__subtf3+0x11a>
   195d0:	0128d413          	srli	s0,a7,0x12
   195d4:	8805                	andi	s0,s0,1
   195d6:	00144413          	xori	s0,s0,1
   195da:	0412                	slli	s0,s0,0x4
   195dc:	d036                	sw	a3,32(sp)
   195de:	d27a                	sw	t5,36(sp)
   195e0:	d47e                	sw	t6,40(sp)
   195e2:	d646                	sw	a7,44(sp)
   195e4:	4601                	li	a2,0
   195e6:	a1ad                	j	19a50 <__subtf3+0x58e>
   195e8:	fff70613          	addi	a2,a4,-1
   195ec:	ea15                	bnez	a2,19620 <__subtf3+0x15e>
   195ee:	00f68633          	add	a2,a3,a5
   195f2:	9f2a                	add	t5,t5,a0
   195f4:	00d636b3          	sltu	a3,a2,a3
   195f8:	96fa                	add	a3,a3,t5
   195fa:	d236                	sw	a3,36(sp)
   195fc:	00af3533          	sltu	a0,t5,a0
   19600:	01e6b6b3          	sltu	a3,a3,t5
   19604:	9fae                	add	t6,t6,a1
   19606:	8d55                	or	a0,a0,a3
   19608:	957e                	add	a0,a0,t6
   1960a:	d42a                	sw	a0,40(sp)
   1960c:	00bfb7b3          	sltu	a5,t6,a1
   19610:	01f53533          	sltu	a0,a0,t6
   19614:	8fc9                	or	a5,a5,a0
   19616:	9e46                	add	t3,t3,a7
   19618:	d032                	sw	a2,32(sp)
   1961a:	97f2                	add	a5,a5,t3
   1961c:	4705                	li	a4,1
   1961e:	a281                	j	1975e <__subtf3+0x29c>
   19620:	67a1                	lui	a5,0x8
   19622:	17fd                	addi	a5,a5,-1 # 7fff <exit-0x80b5>
   19624:	68f71ce3          	bne	a4,a5,1a4bc <__subtf3+0xffa>
   19628:	01ff67b3          	or	a5,t5,t6
   1962c:	0117e7b3          	or	a5,a5,a7
   19630:	8fd5                	or	a5,a5,a3
   19632:	4401                	li	s0,0
   19634:	bf69                	j	195ce <__subtf3+0x10c>
   19636:	67a1                	lui	a5,0x8
   19638:	17fd                	addi	a5,a5,-1 # 7fff <exit-0x80b5>
   1963a:	02f41663          	bne	s0,a5,19666 <__subtf3+0x1a4>
   1963e:	01ff6733          	or	a4,t5,t6
   19642:	01176733          	or	a4,a4,a7
   19646:	8f55                	or	a4,a4,a3
   19648:	4781                	li	a5,0
   1964a:	c719                	beqz	a4,19658 <__subtf3+0x196>
   1964c:	0128d793          	srli	a5,a7,0x12
   19650:	8b85                	andi	a5,a5,1
   19652:	0017c793          	xori	a5,a5,1
   19656:	0792                	slli	a5,a5,0x4
   19658:	d036                	sw	a3,32(sp)
   1965a:	d27a                	sw	t5,36(sp)
   1965c:	d47e                	sw	t6,40(sp)
   1965e:	d646                	sw	a7,44(sp)
   19660:	8722                	mv	a4,s0
   19662:	843e                	mv	s0,a5
   19664:	b741                	j	195e4 <__subtf3+0x122>
   19666:	47f2                	lw	a5,28(sp)
   19668:	00080637          	lui	a2,0x80
   1966c:	8fd1                	or	a5,a5,a2
   1966e:	ce3e                	sw	a5,28(sp)
   19670:	07400793          	li	a5,116
   19674:	64e7c8e3          	blt	a5,a4,1a4c4 <__subtf3+0x1002>
   19678:	863a                	mv	a2,a4
   1967a:	40565793          	srai	a5,a2,0x5
   1967e:	01f67513          	andi	a0,a2,31
   19682:	859a                	mv	a1,t1
   19684:	4601                	li	a2,0
   19686:	4701                	li	a4,0
   19688:	02f71563          	bne	a4,a5,196b2 <__subtf3+0x1f0>
   1968c:	470d                	li	a4,3
   1968e:	40f703b3          	sub	t2,a4,a5
   19692:	00279a93          	slli	s5,a5,0x2
   19696:	e50d                	bnez	a0,196c0 <__subtf3+0x1fe>
   19698:	01530733          	add	a4,t1,s5
   1969c:	4318                	lw	a4,0(a4)
   1969e:	0505                	addi	a0,a0,1
   196a0:	0311                	addi	t1,t1,4
   196a2:	fee32e23          	sw	a4,-4(t1)
   196a6:	fea3d9e3          	bge	t2,a0,19698 <__subtf3+0x1d6>
   196aa:	4711                	li	a4,4
   196ac:	40f707b3          	sub	a5,a4,a5
   196b0:	a83d                	j	196ee <__subtf3+0x22c>
   196b2:	0005ae03          	lw	t3,0(a1)
   196b6:	0705                	addi	a4,a4,1
   196b8:	0591                	addi	a1,a1,4
   196ba:	01c66633          	or	a2,a2,t3
   196be:	b7e9                	j	19688 <__subtf3+0x1c6>
   196c0:	01530733          	add	a4,t1,s5
   196c4:	430c                	lw	a1,0(a4)
   196c6:	02000a13          	li	s4,32
   196ca:	40aa0a33          	sub	s4,s4,a0
   196ce:	014595b3          	sll	a1,a1,s4
   196d2:	8e4d                	or	a2,a2,a1
   196d4:	4e01                	li	t3,0
   196d6:	007e4e63          	blt	t3,t2,196f2 <__subtf3+0x230>
   196da:	45f2                	lw	a1,28(sp)
   196dc:	4711                	li	a4,4
   196de:	40f707b3          	sub	a5,a4,a5
   196e2:	00239713          	slli	a4,t2,0x2
   196e6:	971a                	add	a4,a4,t1
   196e8:	00a5d5b3          	srl	a1,a1,a0
   196ec:	c30c                	sw	a1,0(a4)
   196ee:	4591                	li	a1,4
   196f0:	a03d                	j	1971e <__subtf3+0x25c>
   196f2:	430c                	lw	a1,0(a4)
   196f4:	00472283          	lw	t0,4(a4)
   196f8:	41570b33          	sub	s6,a4,s5
   196fc:	00a5d5b3          	srl	a1,a1,a0
   19700:	014292b3          	sll	t0,t0,s4
   19704:	0055e5b3          	or	a1,a1,t0
   19708:	00bb2023          	sw	a1,0(s6) # 10000 <exit-0xb4>
   1970c:	0e05                	addi	t3,t3,1
   1970e:	0711                	addi	a4,a4,4
   19710:	b7d9                	j	196d6 <__subtf3+0x214>
   19712:	00279713          	slli	a4,a5,0x2
   19716:	9776                	add	a4,a4,t4
   19718:	00072023          	sw	zero,0(a4)
   1971c:	0785                	addi	a5,a5,1
   1971e:	feb79ae3          	bne	a5,a1,19712 <__subtf3+0x250>
   19722:	47c2                	lw	a5,16(sp)
   19724:	00c03633          	snez	a2,a2
   19728:	8e5d                	or	a2,a2,a5
   1972a:	4752                	lw	a4,20(sp)
   1972c:	9636                	add	a2,a2,a3
   1972e:	47e2                	lw	a5,24(sp)
   19730:	9f3a                	add	t5,t5,a4
   19732:	00d636b3          	sltu	a3,a2,a3
   19736:	96fa                	add	a3,a3,t5
   19738:	d236                	sw	a3,36(sp)
   1973a:	00ef3733          	sltu	a4,t5,a4
   1973e:	01e6b6b3          	sltu	a3,a3,t5
   19742:	9fbe                	add	t6,t6,a5
   19744:	8f55                	or	a4,a4,a3
   19746:	977e                	add	a4,a4,t6
   19748:	d43a                	sw	a4,40(sp)
   1974a:	00ffb7b3          	sltu	a5,t6,a5
   1974e:	01f73733          	sltu	a4,a4,t6
   19752:	8fd9                	or	a5,a5,a4
   19754:	4772                	lw	a4,28(sp)
   19756:	d032                	sw	a2,32(sp)
   19758:	9746                	add	a4,a4,a7
   1975a:	97ba                	add	a5,a5,a4
   1975c:	8722                	mv	a4,s0
   1975e:	00c79693          	slli	a3,a5,0xc
   19762:	4206c463          	bltz	a3,19b8a <__subtf3+0x6c8>
   19766:	d63e                	sw	a5,44(sp)
   19768:	a931                	j	19b84 <__subtf3+0x6c2>
   1976a:	4552                	lw	a0,20(sp)
   1976c:	48e2                	lw	a7,24(sp)
   1976e:	4ef2                	lw	t4,28(sp)
   19770:	1c070b63          	beqz	a4,19946 <__subtf3+0x484>
   19774:	408e0733          	sub	a4,t3,s0
   19778:	e459                	bnez	s0,19806 <__subtf3+0x344>
   1977a:	4312                	lw	t1,4(sp)
   1977c:	45a2                	lw	a1,8(sp)
   1977e:	42b2                	lw	t0,12(sp)
   19780:	00b36633          	or	a2,t1,a1
   19784:	00566633          	or	a2,a2,t0
   19788:	8e55                	or	a2,a2,a3
   1978a:	e615                	bnez	a2,197b6 <__subtf3+0x2f4>
   1978c:	66a1                	lui	a3,0x8
   1978e:	16fd                	addi	a3,a3,-1 # 7fff <exit-0x80b5>
   19790:	00d71e63          	bne	a4,a3,197ac <__subtf3+0x2ea>
   19794:	011566b3          	or	a3,a0,a7
   19798:	01d6e6b3          	or	a3,a3,t4
   1979c:	8edd                	or	a3,a3,a5
   1979e:	c699                	beqz	a3,197ac <__subtf3+0x2ea>
   197a0:	012ed413          	srli	s0,t4,0x12
   197a4:	8805                	andi	s0,s0,1
   197a6:	00144413          	xori	s0,s0,1
   197aa:	0412                	slli	s0,s0,0x4
   197ac:	d03e                	sw	a5,32(sp)
   197ae:	d22a                	sw	a0,36(sp)
   197b0:	d446                	sw	a7,40(sp)
   197b2:	d676                	sw	t4,44(sp)
   197b4:	bd05                	j	195e4 <__subtf3+0x122>
   197b6:	fff70413          	addi	s0,a4,-1
   197ba:	e81d                	bnez	s0,197f0 <__subtf3+0x32e>
   197bc:	00f68633          	add	a2,a3,a5
   197c0:	951a                	add	a0,a0,t1
   197c2:	00d636b3          	sltu	a3,a2,a3
   197c6:	96aa                	add	a3,a3,a0
   197c8:	d236                	sw	a3,36(sp)
   197ca:	00653333          	sltu	t1,a0,t1
   197ce:	00a6b6b3          	sltu	a3,a3,a0
   197d2:	98ae                	add	a7,a7,a1
   197d4:	00d36333          	or	t1,t1,a3
   197d8:	9346                	add	t1,t1,a7
   197da:	d41a                	sw	t1,40(sp)
   197dc:	00b8b7b3          	sltu	a5,a7,a1
   197e0:	01133333          	sltu	t1,t1,a7
   197e4:	0067e7b3          	or	a5,a5,t1
   197e8:	92f6                	add	t0,t0,t4
   197ea:	d032                	sw	a2,32(sp)
   197ec:	9796                	add	a5,a5,t0
   197ee:	b53d                	j	1961c <__subtf3+0x15a>
   197f0:	66a1                	lui	a3,0x8
   197f2:	16fd                	addi	a3,a3,-1 # 7fff <exit-0x80b5>
   197f4:	4cd71ee3          	bne	a4,a3,1a4d0 <__subtf3+0x100e>
   197f8:	011566b3          	or	a3,a0,a7
   197fc:	01d6e6b3          	or	a3,a3,t4
   19800:	8edd                	or	a3,a3,a5
   19802:	4401                	li	s0,0
   19804:	bf69                	j	1979e <__subtf3+0x2dc>
   19806:	66a1                	lui	a3,0x8
   19808:	16fd                	addi	a3,a3,-1 # 7fff <exit-0x80b5>
   1980a:	02de1563          	bne	t3,a3,19834 <__subtf3+0x372>
   1980e:	01156733          	or	a4,a0,a7
   19812:	01d76733          	or	a4,a4,t4
   19816:	8f5d                	or	a4,a4,a5
   19818:	4401                	li	s0,0
   1981a:	c719                	beqz	a4,19828 <__subtf3+0x366>
   1981c:	012ed413          	srli	s0,t4,0x12
   19820:	8805                	andi	s0,s0,1
   19822:	00144413          	xori	s0,s0,1
   19826:	0412                	slli	s0,s0,0x4
   19828:	d03e                	sw	a5,32(sp)
   1982a:	d22a                	sw	a0,36(sp)
   1982c:	d446                	sw	a7,40(sp)
   1982e:	d676                	sw	t4,44(sp)
   19830:	8772                	mv	a4,t3
   19832:	bb4d                	j	195e4 <__subtf3+0x122>
   19834:	46b2                	lw	a3,12(sp)
   19836:	00080637          	lui	a2,0x80
   1983a:	8ed1                	or	a3,a3,a2
   1983c:	c636                	sw	a3,12(sp)
   1983e:	07400693          	li	a3,116
   19842:	48e6cbe3          	blt	a3,a4,1a4d8 <__subtf3+0x1016>
   19846:	843a                	mv	s0,a4
   19848:	02000713          	li	a4,32
   1984c:	02e44733          	div	a4,s0,a4
   19850:	85fa                	mv	a1,t5
   19852:	4601                	li	a2,0
   19854:	4681                	li	a3,0
   19856:	02e6c863          	blt	a3,a4,19886 <__subtf3+0x3c4>
   1985a:	468d                	li	a3,3
   1985c:	01f47393          	andi	t2,s0,31
   19860:	40e682b3          	sub	t0,a3,a4
   19864:	00271a13          	slli	s4,a4,0x2
   19868:	02039663          	bnez	t2,19894 <__subtf3+0x3d2>
   1986c:	014f06b3          	add	a3,t5,s4
   19870:	4294                	lw	a3,0(a3)
   19872:	0385                	addi	t2,t2,1
   19874:	0f11                	addi	t5,t5,4 # 10004 <exit-0xb0>
   19876:	fedf2e23          	sw	a3,-4(t5)
   1987a:	fe72d9e3          	bge	t0,t2,1986c <__subtf3+0x3aa>
   1987e:	4691                	li	a3,4
   19880:	40e68733          	sub	a4,a3,a4
   19884:	a0b9                	j	198d2 <__subtf3+0x410>
   19886:	0005a303          	lw	t1,0(a1)
   1988a:	0685                	addi	a3,a3,1
   1988c:	0591                	addi	a1,a1,4
   1988e:	00666633          	or	a2,a2,t1
   19892:	b7d1                	j	19856 <__subtf3+0x394>
   19894:	02000693          	li	a3,32
   19898:	02d46433          	rem	s0,s0,a3
   1989c:	014f05b3          	add	a1,t5,s4
   198a0:	40868433          	sub	s0,a3,s0
   198a4:	fff74693          	not	a3,a4
   198a8:	86fd                	srai	a3,a3,0x1f
   198aa:	8ef9                	and	a3,a3,a4
   198ac:	068a                	slli	a3,a3,0x2
   198ae:	96fa                	add	a3,a3,t5
   198b0:	4294                	lw	a3,0(a3)
   198b2:	008696b3          	sll	a3,a3,s0
   198b6:	8e55                	or	a2,a2,a3
   198b8:	4681                	li	a3,0
   198ba:	0056ce63          	blt	a3,t0,198d6 <__subtf3+0x414>
   198be:	45b2                	lw	a1,12(sp)
   198c0:	4691                	li	a3,4
   198c2:	40e68733          	sub	a4,a3,a4
   198c6:	00229693          	slli	a3,t0,0x2
   198ca:	96fa                	add	a3,a3,t5
   198cc:	0075d5b3          	srl	a1,a1,t2
   198d0:	c28c                	sw	a1,0(a3)
   198d2:	458d                	li	a1,3
   198d4:	a805                	j	19904 <__subtf3+0x442>
   198d6:	0005a303          	lw	t1,0(a1)
   198da:	0045aa83          	lw	s5,4(a1)
   198de:	41458b33          	sub	s6,a1,s4
   198e2:	00735333          	srl	t1,t1,t2
   198e6:	008a9ab3          	sll	s5,s5,s0
   198ea:	01536333          	or	t1,t1,s5
   198ee:	006b2023          	sw	t1,0(s6)
   198f2:	0685                	addi	a3,a3,1
   198f4:	0591                	addi	a1,a1,4
   198f6:	b7d1                	j	198ba <__subtf3+0x3f8>
   198f8:	00271693          	slli	a3,a4,0x2
   198fc:	96fe                	add	a3,a3,t6
   198fe:	0006a023          	sw	zero,0(a3)
   19902:	0705                	addi	a4,a4,1
   19904:	fee5dae3          	bge	a1,a4,198f8 <__subtf3+0x436>
   19908:	4702                	lw	a4,0(sp)
   1990a:	00c03633          	snez	a2,a2
   1990e:	8e59                	or	a2,a2,a4
   19910:	4692                	lw	a3,4(sp)
   19912:	4722                	lw	a4,8(sp)
   19914:	963e                	add	a2,a2,a5
   19916:	9536                	add	a0,a0,a3
   19918:	00f637b3          	sltu	a5,a2,a5
   1991c:	97aa                	add	a5,a5,a0
   1991e:	98ba                	add	a7,a7,a4
   19920:	d23e                	sw	a5,36(sp)
   19922:	00d536b3          	sltu	a3,a0,a3
   19926:	00a7b7b3          	sltu	a5,a5,a0
   1992a:	8edd                	or	a3,a3,a5
   1992c:	00e8b7b3          	sltu	a5,a7,a4
   19930:	4732                	lw	a4,12(sp)
   19932:	96c6                	add	a3,a3,a7
   19934:	d436                	sw	a3,40(sp)
   19936:	0116b6b3          	sltu	a3,a3,a7
   1993a:	9776                	add	a4,a4,t4
   1993c:	8fd5                	or	a5,a5,a3
   1993e:	97ba                	add	a5,a5,a4
   19940:	d032                	sw	a2,32(sp)
   19942:	8772                	mv	a4,t3
   19944:	bd29                	j	1975e <__subtf3+0x29c>
   19946:	6621                	lui	a2,0x8
   19948:	00140713          	addi	a4,s0,1
   1994c:	1679                	addi	a2,a2,-2 # 7ffe <exit-0x80b6>
   1994e:	8e79                	and	a2,a2,a4
   19950:	4312                	lw	t1,4(sp)
   19952:	45a2                	lw	a1,8(sp)
   19954:	4f32                	lw	t5,12(sp)
   19956:	1c061d63          	bnez	a2,19b30 <__subtf3+0x66e>
   1995a:	00b36733          	or	a4,t1,a1
   1995e:	01e76733          	or	a4,a4,t5
   19962:	8f55                	or	a4,a4,a3
   19964:	14041063          	bnez	s0,19aa4 <__subtf3+0x5e2>
   19968:	e751                	bnez	a4,199f4 <__subtf3+0x532>
   1996a:	d03e                	sw	a5,32(sp)
   1996c:	d22a                	sw	a0,36(sp)
   1996e:	d446                	sw	a7,40(sp)
   19970:	d676                	sw	t4,44(sp)
   19972:	5592                	lw	a1,36(sp)
   19974:	5622                	lw	a2,40(sp)
   19976:	56b2                	lw	a3,44(sp)
   19978:	00c5e733          	or	a4,a1,a2
   1997c:	8f55                	or	a4,a4,a3
   1997e:	8f5d                	or	a4,a4,a5
   19980:	20070263          	beqz	a4,19b84 <__subtf3+0x6c2>
   19984:	da2e                	sw	a1,52(sp)
   19986:	d83e                	sw	a5,48(sp)
   19988:	dc32                	sw	a2,56(sp)
   1998a:	de36                	sw	a3,60(sp)
   1998c:	1818                	addi	a4,sp,48
   1998e:	104c                	addi	a1,sp,36
   19990:	4754                	lw	a3,12(a4)
   19992:	4710                	lw	a2,8(a4)
   19994:	1771                	addi	a4,a4,-4
   19996:	0686                	slli	a3,a3,0x1
   19998:	827d                	srli	a2,a2,0x1f
   1999a:	8ed1                	or	a3,a3,a2
   1999c:	cb14                	sw	a3,16(a4)
   1999e:	fee599e3          	bne	a1,a4,19990 <__subtf3+0x4ce>
   199a2:	0786                	slli	a5,a5,0x1
   199a4:	0077f713          	andi	a4,a5,7
   199a8:	4401                	li	s0,0
   199aa:	cf15                	beqz	a4,199e6 <__subtf3+0x524>
   199ac:	4709                	li	a4,2
   199ae:	56f2                	lw	a3,60(sp)
   199b0:	20e98ee3          	beq	s3,a4,1a3cc <__subtf3+0xf0a>
   199b4:	470d                	li	a4,3
   199b6:	20e985e3          	beq	s3,a4,1a3c0 <__subtf3+0xefe>
   199ba:	02099563          	bnez	s3,199e4 <__subtf3+0x522>
   199be:	00f7f713          	andi	a4,a5,15
   199c2:	4611                	li	a2,4
   199c4:	02c70063          	beq	a4,a2,199e4 <__subtf3+0x522>
   199c8:	ffc7b793          	sltiu	a5,a5,-4
   199cc:	5752                	lw	a4,52(sp)
   199ce:	0017b793          	seqz	a5,a5
   199d2:	973e                	add	a4,a4,a5
   199d4:	00f73733          	sltu	a4,a4,a5
   199d8:	57e2                	lw	a5,56(sp)
   199da:	97ba                	add	a5,a5,a4
   199dc:	00e7b7b3          	sltu	a5,a5,a4
   199e0:	97b6                	add	a5,a5,a3
   199e2:	de3e                	sw	a5,60(sp)
   199e4:	4405                	li	s0,1
   199e6:	5672                	lw	a2,60(sp)
   199e8:	4701                	li	a4,0
   199ea:	8251                	srli	a2,a2,0x14
   199ec:	8a05                	andi	a2,a2,1
   199ee:	00164613          	xori	a2,a2,1
   199f2:	a8b9                	j	19a50 <__subtf3+0x58e>
   199f4:	01156733          	or	a4,a0,a7
   199f8:	01d76733          	or	a4,a4,t4
   199fc:	8f5d                	or	a4,a4,a5
   199fe:	e719                	bnez	a4,19a0c <__subtf3+0x54a>
   19a00:	d036                	sw	a3,32(sp)
   19a02:	d21a                	sw	t1,36(sp)
   19a04:	d42e                	sw	a1,40(sp)
   19a06:	d67a                	sw	t5,44(sp)
   19a08:	87b6                	mv	a5,a3
   19a0a:	b7a5                	j	19972 <__subtf3+0x4b0>
   19a0c:	97b6                	add	a5,a5,a3
   19a0e:	951a                	add	a0,a0,t1
   19a10:	00d7b6b3          	sltu	a3,a5,a3
   19a14:	96aa                	add	a3,a3,a0
   19a16:	d236                	sw	a3,36(sp)
   19a18:	00653333          	sltu	t1,a0,t1
   19a1c:	00a6b6b3          	sltu	a3,a3,a0
   19a20:	98ae                	add	a7,a7,a1
   19a22:	00d36333          	or	t1,t1,a3
   19a26:	9346                	add	t1,t1,a7
   19a28:	d41a                	sw	t1,40(sp)
   19a2a:	00b8b5b3          	sltu	a1,a7,a1
   19a2e:	01133333          	sltu	t1,t1,a7
   19a32:	0065e5b3          	or	a1,a1,t1
   19a36:	9f76                	add	t5,t5,t4
   19a38:	95fa                	add	a1,a1,t5
   19a3a:	d03e                	sw	a5,32(sp)
   19a3c:	00c59713          	slli	a4,a1,0xc
   19a40:	16075ae3          	bgez	a4,1a3b4 <__subtf3+0xef2>
   19a44:	fff807b7          	lui	a5,0xfff80
   19a48:	17fd                	addi	a5,a5,-1 # fff7ffff <__BSS_END__+0xfff6344b>
   19a4a:	8dfd                	and	a1,a1,a5
   19a4c:	d62e                	sw	a1,44(sp)
   19a4e:	4705                	li	a4,1
   19a50:	5782                	lw	a5,32(sp)
   19a52:	0077f693          	andi	a3,a5,7
   19a56:	180689e3          	beqz	a3,1a3e8 <__subtf3+0xf26>
   19a5a:	4589                	li	a1,2
   19a5c:	56b2                	lw	a3,44(sp)
   19a5e:	00146413          	ori	s0,s0,1
   19a62:	18b981e3          	beq	s3,a1,1a3e4 <__subtf3+0xf22>
   19a66:	458d                	li	a1,3
   19a68:	16b985e3          	beq	s3,a1,1a3d2 <__subtf3+0xf10>
   19a6c:	16099ee3          	bnez	s3,1a3e8 <__subtf3+0xf26>
   19a70:	00f7f593          	andi	a1,a5,15
   19a74:	4511                	li	a0,4
   19a76:	16a589e3          	beq	a1,a0,1a3e8 <__subtf3+0xf26>
   19a7a:	00a785b3          	add	a1,a5,a0
   19a7e:	d02e                	sw	a1,32(sp)
   19a80:	ffc7b793          	sltiu	a5,a5,-4
   19a84:	5592                	lw	a1,36(sp)
   19a86:	0017b793          	seqz	a5,a5
   19a8a:	97ae                	add	a5,a5,a1
   19a8c:	d23e                	sw	a5,36(sp)
   19a8e:	00b7b7b3          	sltu	a5,a5,a1
   19a92:	55a2                	lw	a1,40(sp)
   19a94:	97ae                	add	a5,a5,a1
   19a96:	d43e                	sw	a5,40(sp)
   19a98:	00b7b7b3          	sltu	a5,a5,a1
   19a9c:	97b6                	add	a5,a5,a3
   19a9e:	d63e                	sw	a5,44(sp)
   19aa0:	1490006f          	j	1a3e8 <__subtf3+0xf26>
   19aa4:	6821                	lui	a6,0x8
   19aa6:	187d                	addi	a6,a6,-1 # 7fff <exit-0x80b5>
   19aa8:	03041b63          	bne	s0,a6,19ade <__subtf3+0x61c>
   19aac:	24070ee3          	beqz	a4,1a508 <__subtf3+0x1046>
   19ab0:	012f5413          	srli	s0,t5,0x12
   19ab4:	8805                	andi	s0,s0,1
   19ab6:	00144413          	xori	s0,s0,1
   19aba:	0412                	slli	s0,s0,0x4
   19abc:	050e1263          	bne	t3,a6,19b00 <__subtf3+0x63e>
   19ac0:	01156833          	or	a6,a0,a7
   19ac4:	01d86833          	or	a6,a6,t4
   19ac8:	00f86833          	or	a6,a6,a5
   19acc:	00080c63          	beqz	a6,19ae4 <__subtf3+0x622>
   19ad0:	00de9813          	slli	a6,t4,0xd
   19ad4:	00084863          	bltz	a6,19ae4 <__subtf3+0x622>
   19ad8:	4441                	li	s0,16
   19ada:	c711                	beqz	a4,19ae6 <__subtf3+0x624>
   19adc:	a805                	j	19b0c <__subtf3+0x64a>
   19ade:	4401                	li	s0,0
   19ae0:	ff0e00e3          	beq	t3,a6,19ac0 <__subtf3+0x5fe>
   19ae4:	ef11                	bnez	a4,19b00 <__subtf3+0x63e>
   19ae6:	86be                	mv	a3,a5
   19ae8:	832a                	mv	t1,a0
   19aea:	85c6                	mv	a1,a7
   19aec:	8f76                	mv	t5,t4
   19aee:	d036                	sw	a3,32(sp)
   19af0:	d21a                	sw	t1,36(sp)
   19af2:	d42e                	sw	a1,40(sp)
   19af4:	d67a                	sw	t5,44(sp)
   19af6:	6721                	lui	a4,0x8
   19af8:	177d                	addi	a4,a4,-1 # 7fff <exit-0x80b5>
   19afa:	bf99                	j	19a50 <__subtf3+0x58e>
   19afc:	4401                	li	s0,0
   19afe:	b7c9                	j	19ac0 <__subtf3+0x5fe>
   19b00:	01156533          	or	a0,a0,a7
   19b04:	01d56533          	or	a0,a0,t4
   19b08:	8d5d                	or	a0,a0,a5
   19b0a:	d175                	beqz	a0,19aee <__subtf3+0x62c>
   19b0c:	67a1                	lui	a5,0x8
   19b0e:	d63e                	sw	a5,44(sp)
   19b10:	d402                	sw	zero,40(sp)
   19b12:	d202                	sw	zero,36(sp)
   19b14:	d002                	sw	zero,32(sp)
   19b16:	101c                	addi	a5,sp,32
   19b18:	084c                	addi	a1,sp,20
   19b1a:	47d8                	lw	a4,12(a5)
   19b1c:	4794                	lw	a3,8(a5)
   19b1e:	17f1                	addi	a5,a5,-4 # 7ffc <exit-0x80b8>
   19b20:	070e                	slli	a4,a4,0x3
   19b22:	82f5                	srli	a3,a3,0x1d
   19b24:	8f55                	or	a4,a4,a3
   19b26:	cb98                	sw	a4,16(a5)
   19b28:	fef599e3          	bne	a1,a5,19b1a <__subtf3+0x658>
   19b2c:	4901                	li	s2,0
   19b2e:	b7e1                	j	19af6 <__subtf3+0x634>
   19b30:	97b6                	add	a5,a5,a3
   19b32:	951a                	add	a0,a0,t1
   19b34:	d03e                	sw	a5,32(sp)
   19b36:	00d7b7b3          	sltu	a5,a5,a3
   19b3a:	97aa                	add	a5,a5,a0
   19b3c:	00653333          	sltu	t1,a0,t1
   19b40:	d23e                	sw	a5,36(sp)
   19b42:	00a7b7b3          	sltu	a5,a5,a0
   19b46:	98ae                	add	a7,a7,a1
   19b48:	00f36333          	or	t1,t1,a5
   19b4c:	9346                	add	t1,t1,a7
   19b4e:	d41a                	sw	t1,40(sp)
   19b50:	00b8b5b3          	sltu	a1,a7,a1
   19b54:	01133333          	sltu	t1,t1,a7
   19b58:	0065e5b3          	or	a1,a1,t1
   19b5c:	9f76                	add	t5,t5,t4
   19b5e:	95fa                	add	a1,a1,t5
   19b60:	d62e                	sw	a1,44(sp)
   19b62:	101c                	addi	a5,sp,32
   19b64:	1068                	addi	a0,sp,44
   19b66:	4394                	lw	a3,0(a5)
   19b68:	43d0                	lw	a2,4(a5)
   19b6a:	8285                	srli	a3,a3,0x1
   19b6c:	067e                	slli	a2,a2,0x1f
   19b6e:	8ed1                	or	a3,a3,a2
   19b70:	c394                	sw	a3,0(a5)
   19b72:	0791                	addi	a5,a5,4
   19b74:	fef519e3          	bne	a0,a5,19b66 <__subtf3+0x6a4>
   19b78:	67a1                	lui	a5,0x8
   19b7a:	17fd                	addi	a5,a5,-1 # 7fff <exit-0x80b5>
   19b7c:	04f70463          	beq	a4,a5,19bc4 <__subtf3+0x702>
   19b80:	8185                	srli	a1,a1,0x1
   19b82:	d62e                	sw	a1,44(sp)
   19b84:	4601                	li	a2,0
   19b86:	4401                	li	s0,0
   19b88:	b5e1                	j	19a50 <__subtf3+0x58e>
   19b8a:	fff806b7          	lui	a3,0xfff80
   19b8e:	16fd                	addi	a3,a3,-1 # fff7ffff <__BSS_END__+0xfff6344b>
   19b90:	8ff5                	and	a5,a5,a3
   19b92:	d63e                	sw	a5,44(sp)
   19b94:	0705                	addi	a4,a4,1
   19b96:	067e                	slli	a2,a2,0x1f
   19b98:	1014                	addi	a3,sp,32
   19b9a:	02c10893          	addi	a7,sp,44
   19b9e:	428c                	lw	a1,0(a3)
   19ba0:	42c8                	lw	a0,4(a3)
   19ba2:	8185                	srli	a1,a1,0x1
   19ba4:	057e                	slli	a0,a0,0x1f
   19ba6:	8dc9                	or	a1,a1,a0
   19ba8:	c28c                	sw	a1,0(a3)
   19baa:	0691                	addi	a3,a3,4
   19bac:	ff1699e3          	bne	a3,a7,19b9e <__subtf3+0x6dc>
   19bb0:	8385                	srli	a5,a5,0x1
   19bb2:	d63e                	sw	a5,44(sp)
   19bb4:	5782                	lw	a5,32(sp)
   19bb6:	827d                	srli	a2,a2,0x1f
   19bb8:	8fd1                	or	a5,a5,a2
   19bba:	d03e                	sw	a5,32(sp)
   19bbc:	67a1                	lui	a5,0x8
   19bbe:	17fd                	addi	a5,a5,-1 # 7fff <exit-0x80b5>
   19bc0:	fcf712e3          	bne	a4,a5,19b84 <__subtf3+0x6c2>
   19bc4:	02098463          	beqz	s3,19bec <__subtf3+0x72a>
   19bc8:	478d                	li	a5,3
   19bca:	00f99c63          	bne	s3,a5,19be2 <__subtf3+0x720>
   19bce:	00080f63          	beqz	a6,19bec <__subtf3+0x72a>
   19bd2:	57fd                	li	a5,-1
   19bd4:	6721                	lui	a4,0x8
   19bd6:	d63e                	sw	a5,44(sp)
   19bd8:	d43e                	sw	a5,40(sp)
   19bda:	d23e                	sw	a5,36(sp)
   19bdc:	d03e                	sw	a5,32(sp)
   19bde:	1779                	addi	a4,a4,-2 # 7ffe <exit-0x80b6>
   19be0:	a821                	j	19bf8 <__subtf3+0x736>
   19be2:	ffe98793          	addi	a5,s3,-2
   19be6:	f7f5                	bnez	a5,19bd2 <__subtf3+0x710>
   19be8:	fe0805e3          	beqz	a6,19bd2 <__subtf3+0x710>
   19bec:	6721                	lui	a4,0x8
   19bee:	d602                	sw	zero,44(sp)
   19bf0:	d402                	sw	zero,40(sp)
   19bf2:	d202                	sw	zero,36(sp)
   19bf4:	d002                	sw	zero,32(sp)
   19bf6:	177d                	addi	a4,a4,-1 # 7fff <exit-0x80b5>
   19bf8:	4601                	li	a2,0
   19bfa:	4415                	li	s0,5
   19bfc:	bd91                	j	19a50 <__subtf3+0x58e>
   19bfe:	20e05363          	blez	a4,19e04 <__subtf3+0x942>
   19c02:	4892                	lw	a7,4(sp)
   19c04:	45a2                	lw	a1,8(sp)
   19c06:	4832                	lw	a6,12(sp)
   19c08:	0a0e1263          	bnez	t3,19cac <__subtf3+0x7ea>
   19c0c:	4e52                	lw	t3,20(sp)
   19c0e:	4f62                	lw	t5,24(sp)
   19c10:	4572                	lw	a0,28(sp)
   19c12:	01ee6633          	or	a2,t3,t5
   19c16:	8e49                	or	a2,a2,a0
   19c18:	8e5d                	or	a2,a2,a5
   19c1a:	e61d                	bnez	a2,19c48 <__subtf3+0x786>
   19c1c:	67a1                	lui	a5,0x8
   19c1e:	17fd                	addi	a5,a5,-1 # 7fff <exit-0x80b5>
   19c20:	4401                	li	s0,0
   19c22:	00f71e63          	bne	a4,a5,19c3e <__subtf3+0x77c>
   19c26:	00b8e7b3          	or	a5,a7,a1
   19c2a:	0107e7b3          	or	a5,a5,a6
   19c2e:	8fd5                	or	a5,a5,a3
   19c30:	c799                	beqz	a5,19c3e <__subtf3+0x77c>
   19c32:	01285413          	srli	s0,a6,0x12
   19c36:	8805                	andi	s0,s0,1
   19c38:	00144413          	xori	s0,s0,1
   19c3c:	0412                	slli	s0,s0,0x4
   19c3e:	d036                	sw	a3,32(sp)
   19c40:	d246                	sw	a7,36(sp)
   19c42:	d42e                	sw	a1,40(sp)
   19c44:	d642                	sw	a6,44(sp)
   19c46:	ba79                	j	195e4 <__subtf3+0x122>
   19c48:	fff70613          	addi	a2,a4,-1
   19c4c:	e629                	bnez	a2,19c96 <__subtf3+0x7d4>
   19c4e:	40f68633          	sub	a2,a3,a5
   19c52:	41c887b3          	sub	a5,a7,t3
   19c56:	411e0e33          	sub	t3,t3,a7
   19c5a:	00c6b6b3          	sltu	a3,a3,a2
   19c5e:	001e3e13          	seqz	t3,t3
   19c62:	40d78eb3          	sub	t4,a5,a3
   19c66:	40bf0733          	sub	a4,t5,a1
   19c6a:	01c6f6b3          	and	a3,a3,t3
   19c6e:	00f8b7b3          	sltu	a5,a7,a5
   19c72:	8fd5                	or	a5,a5,a3
   19c74:	41e588b3          	sub	a7,a1,t5
   19c78:	00173713          	seqz	a4,a4
   19c7c:	40f886b3          	sub	a3,a7,a5
   19c80:	8ff9                	and	a5,a5,a4
   19c82:	0115b8b3          	sltu	a7,a1,a7
   19c86:	40a80533          	sub	a0,a6,a0
   19c8a:	00f8e8b3          	or	a7,a7,a5
   19c8e:	41150533          	sub	a0,a0,a7
   19c92:	4705                	li	a4,1
   19c94:	aa89                	j	19de6 <__subtf3+0x924>
   19c96:	67a1                	lui	a5,0x8
   19c98:	17fd                	addi	a5,a5,-1 # 7fff <exit-0x80b5>
   19c9a:	04f715e3          	bne	a4,a5,1a4e4 <__subtf3+0x1022>
   19c9e:	00b8e7b3          	or	a5,a7,a1
   19ca2:	0107e7b3          	or	a5,a5,a6
   19ca6:	8fd5                	or	a5,a5,a3
   19ca8:	4401                	li	s0,0
   19caa:	b759                	j	19c30 <__subtf3+0x76e>
   19cac:	67a1                	lui	a5,0x8
   19cae:	17fd                	addi	a5,a5,-1 # 7fff <exit-0x80b5>
   19cb0:	02f41463          	bne	s0,a5,19cd8 <__subtf3+0x816>
   19cb4:	00b8e733          	or	a4,a7,a1
   19cb8:	01076733          	or	a4,a4,a6
   19cbc:	8f55                	or	a4,a4,a3
   19cbe:	4781                	li	a5,0
   19cc0:	c719                	beqz	a4,19cce <__subtf3+0x80c>
   19cc2:	01285793          	srli	a5,a6,0x12
   19cc6:	8b85                	andi	a5,a5,1
   19cc8:	0017c793          	xori	a5,a5,1
   19ccc:	0792                	slli	a5,a5,0x4
   19cce:	d036                	sw	a3,32(sp)
   19cd0:	d246                	sw	a7,36(sp)
   19cd2:	d42e                	sw	a1,40(sp)
   19cd4:	d642                	sw	a6,44(sp)
   19cd6:	b269                	j	19660 <__subtf3+0x19e>
   19cd8:	47f2                	lw	a5,28(sp)
   19cda:	00080637          	lui	a2,0x80
   19cde:	8fd1                	or	a5,a5,a2
   19ce0:	ce3e                	sw	a5,28(sp)
   19ce2:	07400793          	li	a5,116
   19ce6:	00e7c3e3          	blt	a5,a4,1a4ec <__subtf3+0x102a>
   19cea:	863a                	mv	a2,a4
   19cec:	40565793          	srai	a5,a2,0x5
   19cf0:	01f67f13          	andi	t5,a2,31
   19cf4:	851a                	mv	a0,t1
   19cf6:	4601                	li	a2,0
   19cf8:	4701                	li	a4,0
   19cfa:	02f71663          	bne	a4,a5,19d26 <__subtf3+0x864>
   19cfe:	470d                	li	a4,3
   19d00:	40f703b3          	sub	t2,a4,a5
   19d04:	00279a13          	slli	s4,a5,0x2
   19d08:	020f1663          	bnez	t5,19d34 <__subtf3+0x872>
   19d0c:	01430733          	add	a4,t1,s4
   19d10:	4318                	lw	a4,0(a4)
   19d12:	0f05                	addi	t5,t5,1
   19d14:	0311                	addi	t1,t1,4
   19d16:	fee32e23          	sw	a4,-4(t1)
   19d1a:	ffe3d9e3          	bge	t2,t5,19d0c <__subtf3+0x84a>
   19d1e:	4711                	li	a4,4
   19d20:	40f707b3          	sub	a5,a4,a5
   19d24:	a83d                	j	19d62 <__subtf3+0x8a0>
   19d26:	00052e03          	lw	t3,0(a0)
   19d2a:	0705                	addi	a4,a4,1
   19d2c:	0511                	addi	a0,a0,4
   19d2e:	01c66633          	or	a2,a2,t3
   19d32:	b7e1                	j	19cfa <__subtf3+0x838>
   19d34:	01430733          	add	a4,t1,s4
   19d38:	4308                	lw	a0,0(a4)
   19d3a:	02000e13          	li	t3,32
   19d3e:	41ee0e33          	sub	t3,t3,t5
   19d42:	01c51533          	sll	a0,a0,t3
   19d46:	8e49                	or	a2,a2,a0
   19d48:	4f81                	li	t6,0
   19d4a:	007fce63          	blt	t6,t2,19d66 <__subtf3+0x8a4>
   19d4e:	4572                	lw	a0,28(sp)
   19d50:	4711                	li	a4,4
   19d52:	40f707b3          	sub	a5,a4,a5
   19d56:	00239713          	slli	a4,t2,0x2
   19d5a:	971a                	add	a4,a4,t1
   19d5c:	01e55533          	srl	a0,a0,t5
   19d60:	c308                	sw	a0,0(a4)
   19d62:	4511                	li	a0,4
   19d64:	a03d                	j	19d92 <__subtf3+0x8d0>
   19d66:	4308                	lw	a0,0(a4)
   19d68:	00472283          	lw	t0,4(a4)
   19d6c:	41470ab3          	sub	s5,a4,s4
   19d70:	01e55533          	srl	a0,a0,t5
   19d74:	01c292b3          	sll	t0,t0,t3
   19d78:	00556533          	or	a0,a0,t0
   19d7c:	00aaa023          	sw	a0,0(s5) # 10000 <exit-0xb4>
   19d80:	0f85                	addi	t6,t6,1 # 10001 <exit-0xb3>
   19d82:	0711                	addi	a4,a4,4
   19d84:	b7d9                	j	19d4a <__subtf3+0x888>
   19d86:	00279713          	slli	a4,a5,0x2
   19d8a:	9776                	add	a4,a4,t4
   19d8c:	00072023          	sw	zero,0(a4)
   19d90:	0785                	addi	a5,a5,1
   19d92:	fea79ae3          	bne	a5,a0,19d86 <__subtf3+0x8c4>
   19d96:	47c2                	lw	a5,16(sp)
   19d98:	00c03633          	snez	a2,a2
   19d9c:	8e5d                	or	a2,a2,a5
   19d9e:	4752                	lw	a4,20(sp)
   19da0:	40c68633          	sub	a2,a3,a2
   19da4:	00c6b6b3          	sltu	a3,a3,a2
   19da8:	40e887b3          	sub	a5,a7,a4
   19dac:	40d78eb3          	sub	t4,a5,a3
   19db0:	41170733          	sub	a4,a4,a7
   19db4:	00f8b7b3          	sltu	a5,a7,a5
   19db8:	48e2                	lw	a7,24(sp)
   19dba:	00173713          	seqz	a4,a4
   19dbe:	8ef9                	and	a3,a3,a4
   19dc0:	4572                	lw	a0,28(sp)
   19dc2:	41158733          	sub	a4,a1,a7
   19dc6:	40b888b3          	sub	a7,a7,a1
   19dca:	8fd5                	or	a5,a5,a3
   19dcc:	0018b893          	seqz	a7,a7
   19dd0:	40f706b3          	sub	a3,a4,a5
   19dd4:	0117f7b3          	and	a5,a5,a7
   19dd8:	00e5b733          	sltu	a4,a1,a4
   19ddc:	8f5d                	or	a4,a4,a5
   19dde:	40a80533          	sub	a0,a6,a0
   19de2:	8d19                	sub	a0,a0,a4
   19de4:	8722                	mv	a4,s0
   19de6:	d62a                	sw	a0,44(sp)
   19de8:	d436                	sw	a3,40(sp)
   19dea:	d276                	sw	t4,36(sp)
   19dec:	d032                	sw	a2,32(sp)
   19dee:	00c51793          	slli	a5,a0,0xc
   19df2:	d807d9e3          	bgez	a5,19b84 <__subtf3+0x6c2>
   19df6:	000807b7          	lui	a5,0x80
   19dfa:	17fd                	addi	a5,a5,-1 # 7ffff <__BSS_END__+0x6344b>
   19dfc:	8d7d                	and	a0,a0,a5
   19dfe:	d62a                	sw	a0,44(sp)
   19e00:	843a                	mv	s0,a4
   19e02:	a125                	j	1a22a <__subtf3+0xd68>
   19e04:	4852                	lw	a6,20(sp)
   19e06:	45e2                	lw	a1,24(sp)
   19e08:	4372                	lw	t1,28(sp)
   19e0a:	20070263          	beqz	a4,1a00e <__subtf3+0xb4c>
   19e0e:	408e0733          	sub	a4,t3,s0
   19e12:	e05d                	bnez	s0,19eb8 <__subtf3+0x9f6>
   19e14:	4292                	lw	t0,4(sp)
   19e16:	43a2                	lw	t2,8(sp)
   19e18:	4532                	lw	a0,12(sp)
   19e1a:	0072e633          	or	a2,t0,t2
   19e1e:	8e49                	or	a2,a2,a0
   19e20:	8e55                	or	a2,a2,a3
   19e22:	ea05                	bnez	a2,19e52 <__subtf3+0x990>
   19e24:	66a1                	lui	a3,0x8
   19e26:	16fd                	addi	a3,a3,-1 # 7fff <exit-0x80b5>
   19e28:	00d71e63          	bne	a4,a3,19e44 <__subtf3+0x982>
   19e2c:	00b866b3          	or	a3,a6,a1
   19e30:	0066e6b3          	or	a3,a3,t1
   19e34:	8edd                	or	a3,a3,a5
   19e36:	c699                	beqz	a3,19e44 <__subtf3+0x982>
   19e38:	01235413          	srli	s0,t1,0x12
   19e3c:	8805                	andi	s0,s0,1
   19e3e:	00144413          	xori	s0,s0,1
   19e42:	0412                	slli	s0,s0,0x4
   19e44:	d03e                	sw	a5,32(sp)
   19e46:	d242                	sw	a6,36(sp)
   19e48:	d42e                	sw	a1,40(sp)
   19e4a:	d61a                	sw	t1,44(sp)
   19e4c:	8946                	mv	s2,a7
   19e4e:	f96ff06f          	j	195e4 <__subtf3+0x122>
   19e52:	fff70e93          	addi	t4,a4,-1
   19e56:	040e9663          	bnez	t4,19ea2 <__subtf3+0x9e0>
   19e5a:	40580733          	sub	a4,a6,t0
   19e5e:	40d78633          	sub	a2,a5,a3
   19e62:	410282b3          	sub	t0,t0,a6
   19e66:	00c7b7b3          	sltu	a5,a5,a2
   19e6a:	0012b293          	seqz	t0,t0
   19e6e:	40f70eb3          	sub	t4,a4,a5
   19e72:	00e83733          	sltu	a4,a6,a4
   19e76:	0057f7b3          	and	a5,a5,t0
   19e7a:	8fd9                	or	a5,a5,a4
   19e7c:	40b38733          	sub	a4,t2,a1
   19e80:	40758833          	sub	a6,a1,t2
   19e84:	00173713          	seqz	a4,a4
   19e88:	40f806b3          	sub	a3,a6,a5
   19e8c:	8ff9                	and	a5,a5,a4
   19e8e:	0105b833          	sltu	a6,a1,a6
   19e92:	40a30533          	sub	a0,t1,a0
   19e96:	00f86833          	or	a6,a6,a5
   19e9a:	41050533          	sub	a0,a0,a6
   19e9e:	8946                	mv	s2,a7
   19ea0:	bbcd                	j	19c92 <__subtf3+0x7d0>
   19ea2:	66a1                	lui	a3,0x8
   19ea4:	16fd                	addi	a3,a3,-1 # 7fff <exit-0x80b5>
   19ea6:	64d71863          	bne	a4,a3,1a4f6 <__subtf3+0x1034>
   19eaa:	00b866b3          	or	a3,a6,a1
   19eae:	0066e6b3          	or	a3,a3,t1
   19eb2:	8edd                	or	a3,a3,a5
   19eb4:	4401                	li	s0,0
   19eb6:	b741                	j	19e36 <__subtf3+0x974>
   19eb8:	66a1                	lui	a3,0x8
   19eba:	16fd                	addi	a3,a3,-1 # 7fff <exit-0x80b5>
   19ebc:	02de1563          	bne	t3,a3,19ee6 <__subtf3+0xa24>
   19ec0:	00b86733          	or	a4,a6,a1
   19ec4:	00676733          	or	a4,a4,t1
   19ec8:	8f5d                	or	a4,a4,a5
   19eca:	4401                	li	s0,0
   19ecc:	c719                	beqz	a4,19eda <__subtf3+0xa18>
   19ece:	01235413          	srli	s0,t1,0x12
   19ed2:	8805                	andi	s0,s0,1
   19ed4:	00144413          	xori	s0,s0,1
   19ed8:	0412                	slli	s0,s0,0x4
   19eda:	d03e                	sw	a5,32(sp)
   19edc:	d242                	sw	a6,36(sp)
   19ede:	d42e                	sw	a1,40(sp)
   19ee0:	d61a                	sw	t1,44(sp)
   19ee2:	8772                	mv	a4,t3
   19ee4:	b7a5                	j	19e4c <__subtf3+0x98a>
   19ee6:	46b2                	lw	a3,12(sp)
   19ee8:	00080637          	lui	a2,0x80
   19eec:	8ed1                	or	a3,a3,a2
   19eee:	c636                	sw	a3,12(sp)
   19ef0:	07400693          	li	a3,116
   19ef4:	60e6c563          	blt	a3,a4,1a4fe <__subtf3+0x103c>
   19ef8:	8eba                	mv	t4,a4
   19efa:	02000713          	li	a4,32
   19efe:	02eec733          	div	a4,t4,a4
   19f02:	857a                	mv	a0,t5
   19f04:	4601                	li	a2,0
   19f06:	4681                	li	a3,0
   19f08:	02e6c863          	blt	a3,a4,19f38 <__subtf3+0xa76>
   19f0c:	468d                	li	a3,3
   19f0e:	01fef393          	andi	t2,t4,31
   19f12:	40e682b3          	sub	t0,a3,a4
   19f16:	00271913          	slli	s2,a4,0x2
   19f1a:	02039663          	bnez	t2,19f46 <__subtf3+0xa84>
   19f1e:	012f06b3          	add	a3,t5,s2
   19f22:	4294                	lw	a3,0(a3)
   19f24:	0385                	addi	t2,t2,1
   19f26:	0f11                	addi	t5,t5,4
   19f28:	fedf2e23          	sw	a3,-4(t5)
   19f2c:	fe72d9e3          	bge	t0,t2,19f1e <__subtf3+0xa5c>
   19f30:	4691                	li	a3,4
   19f32:	40e68733          	sub	a4,a3,a4
   19f36:	a0b9                	j	19f84 <__subtf3+0xac2>
   19f38:	00052283          	lw	t0,0(a0)
   19f3c:	0685                	addi	a3,a3,1
   19f3e:	0511                	addi	a0,a0,4
   19f40:	00566633          	or	a2,a2,t0
   19f44:	b7d1                	j	19f08 <__subtf3+0xa46>
   19f46:	02000413          	li	s0,32
   19f4a:	028eeeb3          	rem	t4,t4,s0
   19f4e:	fff74693          	not	a3,a4
   19f52:	86fd                	srai	a3,a3,0x1f
   19f54:	8ef9                	and	a3,a3,a4
   19f56:	068a                	slli	a3,a3,0x2
   19f58:	96fa                	add	a3,a3,t5
   19f5a:	4294                	lw	a3,0(a3)
   19f5c:	012f0533          	add	a0,t5,s2
   19f60:	41d40433          	sub	s0,s0,t4
   19f64:	008696b3          	sll	a3,a3,s0
   19f68:	8e55                	or	a2,a2,a3
   19f6a:	4681                	li	a3,0
   19f6c:	0056ce63          	blt	a3,t0,19f88 <__subtf3+0xac6>
   19f70:	4532                	lw	a0,12(sp)
   19f72:	4691                	li	a3,4
   19f74:	40e68733          	sub	a4,a3,a4
   19f78:	00229693          	slli	a3,t0,0x2
   19f7c:	96fa                	add	a3,a3,t5
   19f7e:	00755533          	srl	a0,a0,t2
   19f82:	c288                	sw	a0,0(a3)
   19f84:	450d                	li	a0,3
   19f86:	a805                	j	19fb6 <__subtf3+0xaf4>
   19f88:	00052e83          	lw	t4,0(a0)
   19f8c:	00452a03          	lw	s4,4(a0)
   19f90:	41250ab3          	sub	s5,a0,s2
   19f94:	007edeb3          	srl	t4,t4,t2
   19f98:	008a1a33          	sll	s4,s4,s0
   19f9c:	014eeeb3          	or	t4,t4,s4
   19fa0:	01daa023          	sw	t4,0(s5)
   19fa4:	0685                	addi	a3,a3,1
   19fa6:	0511                	addi	a0,a0,4
   19fa8:	b7d1                	j	19f6c <__subtf3+0xaaa>
   19faa:	00271693          	slli	a3,a4,0x2
   19fae:	96fe                	add	a3,a3,t6
   19fb0:	0006a023          	sw	zero,0(a3)
   19fb4:	0705                	addi	a4,a4,1
   19fb6:	fee55ae3          	bge	a0,a4,19faa <__subtf3+0xae8>
   19fba:	4702                	lw	a4,0(sp)
   19fbc:	00c03633          	snez	a2,a2
   19fc0:	8e59                	or	a2,a2,a4
   19fc2:	4692                	lw	a3,4(sp)
   19fc4:	40c78633          	sub	a2,a5,a2
   19fc8:	00c7b7b3          	sltu	a5,a5,a2
   19fcc:	40d80733          	sub	a4,a6,a3
   19fd0:	40f70eb3          	sub	t4,a4,a5
   19fd4:	410686b3          	sub	a3,a3,a6
   19fd8:	00e83733          	sltu	a4,a6,a4
   19fdc:	4822                	lw	a6,8(sp)
   19fde:	0016b693          	seqz	a3,a3
   19fe2:	8ff5                	and	a5,a5,a3
   19fe4:	8fd9                	or	a5,a5,a4
   19fe6:	4532                	lw	a0,12(sp)
   19fe8:	41058733          	sub	a4,a1,a6
   19fec:	40b80833          	sub	a6,a6,a1
   19ff0:	00183813          	seqz	a6,a6
   19ff4:	40f706b3          	sub	a3,a4,a5
   19ff8:	0107f7b3          	and	a5,a5,a6
   19ffc:	00e5b733          	sltu	a4,a1,a4
   1a000:	8f5d                	or	a4,a4,a5
   1a002:	40a30533          	sub	a0,t1,a0
   1a006:	8d19                	sub	a0,a0,a4
   1a008:	8946                	mv	s2,a7
   1a00a:	8772                	mv	a4,t3
   1a00c:	bbe9                	j	19de6 <__subtf3+0x924>
   1a00e:	6721                	lui	a4,0x8
   1a010:	00140613          	addi	a2,s0,1
   1a014:	1779                	addi	a4,a4,-2 # 7ffe <exit-0x80b6>
   1a016:	8e79                	and	a2,a2,a4
   1a018:	4e92                	lw	t4,4(sp)
   1a01a:	4f22                	lw	t5,8(sp)
   1a01c:	4fb2                	lw	t6,12(sp)
   1a01e:	18061163          	bnez	a2,1a1a0 <__subtf3+0xcde>
   1a022:	00b86733          	or	a4,a6,a1
   1a026:	01eee533          	or	a0,t4,t5
   1a02a:	00676733          	or	a4,a4,t1
   1a02e:	01f56533          	or	a0,a0,t6
   1a032:	8f5d                	or	a4,a4,a5
   1a034:	8d55                	or	a0,a0,a3
   1a036:	e479                	bnez	s0,1a104 <__subtf3+0xc42>
   1a038:	ed11                	bnez	a0,1a054 <__subtf3+0xb92>
   1a03a:	d03e                	sw	a5,32(sp)
   1a03c:	d242                	sw	a6,36(sp)
   1a03e:	d42e                	sw	a1,40(sp)
   1a040:	d61a                	sw	t1,44(sp)
   1a042:	8946                	mv	s2,a7
   1a044:	920717e3          	bnez	a4,19972 <__subtf3+0x4b0>
   1a048:	ffe98913          	addi	s2,s3,-2
   1a04c:	00193913          	seqz	s2,s2
   1a050:	4781                	li	a5,0
   1a052:	b205                	j	19972 <__subtf3+0x4b0>
   1a054:	e711                	bnez	a4,1a060 <__subtf3+0xb9e>
   1a056:	d036                	sw	a3,32(sp)
   1a058:	d276                	sw	t4,36(sp)
   1a05a:	d47a                	sw	t5,40(sp)
   1a05c:	d67e                	sw	t6,44(sp)
   1a05e:	b26d                	j	19a08 <__subtf3+0x546>
   1a060:	410e8733          	sub	a4,t4,a6
   1a064:	40f682b3          	sub	t0,a3,a5
   1a068:	0056b633          	sltu	a2,a3,t0
   1a06c:	00173393          	seqz	t2,a4
   1a070:	40c70e33          	sub	t3,a4,a2
   1a074:	40bf0533          	sub	a0,t5,a1
   1a078:	00767633          	and	a2,a2,t2
   1a07c:	00eeb733          	sltu	a4,t4,a4
   1a080:	8f51                	or	a4,a4,a2
   1a082:	00153413          	seqz	s0,a0
   1a086:	40e50a33          	sub	s4,a0,a4
   1a08a:	8f61                	and	a4,a4,s0
   1a08c:	00af3533          	sltu	a0,t5,a0
   1a090:	8d59                	or	a0,a0,a4
   1a092:	406f8733          	sub	a4,t6,t1
   1a096:	8f09                	sub	a4,a4,a0
   1a098:	d63a                	sw	a4,44(sp)
   1a09a:	d452                	sw	s4,40(sp)
   1a09c:	d272                	sw	t3,36(sp)
   1a09e:	d016                	sw	t0,32(sp)
   1a0a0:	00c71613          	slli	a2,a4,0xc
   1a0a4:	04065463          	bgez	a2,1a0ec <__subtf3+0xc2a>
   1a0a8:	40d786b3          	sub	a3,a5,a3
   1a0ac:	00d7b733          	sltu	a4,a5,a3
   1a0b0:	41d80eb3          	sub	t4,a6,t4
   1a0b4:	87b6                	mv	a5,a3
   1a0b6:	40ee86b3          	sub	a3,t4,a4
   1a0ba:	01d83eb3          	sltu	t4,a6,t4
   1a0be:	00777733          	and	a4,a4,t2
   1a0c2:	00eeeeb3          	or	t4,t4,a4
   1a0c6:	41e58f33          	sub	t5,a1,t5
   1a0ca:	01e5b5b3          	sltu	a1,a1,t5
   1a0ce:	008ef433          	and	s0,t4,s0
   1a0d2:	41f30fb3          	sub	t6,t1,t6
   1a0d6:	8dc1                	or	a1,a1,s0
   1a0d8:	40bf8fb3          	sub	t6,t6,a1
   1a0dc:	41df0f33          	sub	t5,t5,t4
   1a0e0:	d67e                	sw	t6,44(sp)
   1a0e2:	d47a                	sw	t5,40(sp)
   1a0e4:	d236                	sw	a3,36(sp)
   1a0e6:	d03e                	sw	a5,32(sp)
   1a0e8:	8946                	mv	s2,a7
   1a0ea:	b061                	j	19972 <__subtf3+0x4b0>
   1a0ec:	01c2e7b3          	or	a5,t0,t3
   1a0f0:	0147e7b3          	or	a5,a5,s4
   1a0f4:	8fd9                	or	a5,a5,a4
   1a0f6:	2c079263          	bnez	a5,1a3ba <__subtf3+0xef8>
   1a0fa:	ffe98913          	addi	s2,s3,-2
   1a0fe:	00193913          	seqz	s2,s2
   1a102:	b885                	j	19972 <__subtf3+0x4b0>
   1a104:	62a1                	lui	t0,0x8
   1a106:	12fd                	addi	t0,t0,-1 # 7fff <exit-0x80b5>
   1a108:	04541463          	bne	s0,t0,1a150 <__subtf3+0xc8e>
   1a10c:	40050363          	beqz	a0,1a512 <__subtf3+0x1050>
   1a110:	012fd413          	srli	s0,t6,0x12
   1a114:	8805                	andi	s0,s0,1
   1a116:	00144413          	xori	s0,s0,1
   1a11a:	0412                	slli	s0,s0,0x4
   1a11c:	065e1c63          	bne	t3,t0,1a194 <__subtf3+0xcd2>
   1a120:	cb1d                	beqz	a4,1a156 <__subtf3+0xc94>
   1a122:	00d31e13          	slli	t3,t1,0xd
   1a126:	020e4863          	bltz	t3,1a156 <__subtf3+0xc94>
   1a12a:	4441                	li	s0,16
   1a12c:	cd31                	beqz	a0,1a188 <__subtf3+0xcc6>
   1a12e:	67a1                	lui	a5,0x8
   1a130:	d63e                	sw	a5,44(sp)
   1a132:	d402                	sw	zero,40(sp)
   1a134:	d202                	sw	zero,36(sp)
   1a136:	d002                	sw	zero,32(sp)
   1a138:	101c                	addi	a5,sp,32
   1a13a:	084c                	addi	a1,sp,20
   1a13c:	47d8                	lw	a4,12(a5)
   1a13e:	4794                	lw	a3,8(a5)
   1a140:	17f1                	addi	a5,a5,-4 # 7ffc <exit-0x80b8>
   1a142:	070e                	slli	a4,a4,0x3
   1a144:	82f5                	srli	a3,a3,0x1d
   1a146:	8f55                	or	a4,a4,a3
   1a148:	cb98                	sw	a4,16(a5)
   1a14a:	fef599e3          	bne	a1,a5,1a13c <__subtf3+0xc7a>
   1a14e:	baf9                	j	19b2c <__subtf3+0x66a>
   1a150:	4401                	li	s0,0
   1a152:	fc5e07e3          	beq	t3,t0,1a120 <__subtf3+0xc5e>
   1a156:	ed1d                	bnez	a0,1a194 <__subtf3+0xcd2>
   1a158:	eb05                	bnez	a4,1a188 <__subtf3+0xcc6>
   1a15a:	67a1                	lui	a5,0x8
   1a15c:	d63e                	sw	a5,44(sp)
   1a15e:	d402                	sw	zero,40(sp)
   1a160:	d202                	sw	zero,36(sp)
   1a162:	d002                	sw	zero,32(sp)
   1a164:	101c                	addi	a5,sp,32
   1a166:	084c                	addi	a1,sp,20
   1a168:	47d8                	lw	a4,12(a5)
   1a16a:	4794                	lw	a3,8(a5)
   1a16c:	17f1                	addi	a5,a5,-4 # 7ffc <exit-0x80b8>
   1a16e:	070e                	slli	a4,a4,0x3
   1a170:	82f5                	srli	a3,a3,0x1d
   1a172:	8f55                	or	a4,a4,a3
   1a174:	cb98                	sw	a4,16(a5)
   1a176:	fef599e3          	bne	a1,a5,1a168 <__subtf3+0xca6>
   1a17a:	6721                	lui	a4,0x8
   1a17c:	4901                	li	s2,0
   1a17e:	177d                	addi	a4,a4,-1 # 7fff <exit-0x80b5>
   1a180:	4441                	li	s0,16
   1a182:	b0f9                	j	19a50 <__subtf3+0x58e>
   1a184:	4401                	li	s0,0
   1a186:	bf69                	j	1a120 <__subtf3+0xc5e>
   1a188:	d03e                	sw	a5,32(sp)
   1a18a:	d242                	sw	a6,36(sp)
   1a18c:	d42e                	sw	a1,40(sp)
   1a18e:	d61a                	sw	t1,44(sp)
   1a190:	8946                	mv	s2,a7
   1a192:	b295                	j	19af6 <__subtf3+0x634>
   1a194:	ff49                	bnez	a4,1a12e <__subtf3+0xc6c>
   1a196:	d036                	sw	a3,32(sp)
   1a198:	d276                	sw	t4,36(sp)
   1a19a:	d47a                	sw	t5,40(sp)
   1a19c:	d67e                	sw	t6,44(sp)
   1a19e:	baa1                	j	19af6 <__subtf3+0x634>
   1a1a0:	410e8733          	sub	a4,t4,a6
   1a1a4:	40f68e33          	sub	t3,a3,a5
   1a1a8:	01c6b633          	sltu	a2,a3,t3
   1a1ac:	00173393          	seqz	t2,a4
   1a1b0:	40c70a33          	sub	s4,a4,a2
   1a1b4:	00767633          	and	a2,a2,t2
   1a1b8:	00eeb733          	sltu	a4,t4,a4
   1a1bc:	8f51                	or	a4,a4,a2
   1a1be:	40bf0633          	sub	a2,t5,a1
   1a1c2:	00163293          	seqz	t0,a2
   1a1c6:	40e60ab3          	sub	s5,a2,a4
   1a1ca:	00e2f733          	and	a4,t0,a4
   1a1ce:	00cf3633          	sltu	a2,t5,a2
   1a1d2:	8e59                	or	a2,a2,a4
   1a1d4:	406f8533          	sub	a0,t6,t1
   1a1d8:	8d11                	sub	a0,a0,a2
   1a1da:	d62a                	sw	a0,44(sp)
   1a1dc:	d456                	sw	s5,40(sp)
   1a1de:	d252                	sw	s4,36(sp)
   1a1e0:	d072                	sw	t3,32(sp)
   1a1e2:	00c51713          	slli	a4,a0,0xc
   1a1e6:	08075463          	bgez	a4,1a26e <__subtf3+0xdac>
   1a1ea:	40d786b3          	sub	a3,a5,a3
   1a1ee:	00d7b7b3          	sltu	a5,a5,a3
   1a1f2:	41d80eb3          	sub	t4,a6,t4
   1a1f6:	40fe8733          	sub	a4,t4,a5
   1a1fa:	0077f7b3          	and	a5,a5,t2
   1a1fe:	01d83eb3          	sltu	t4,a6,t4
   1a202:	00feeeb3          	or	t4,t4,a5
   1a206:	41e58f33          	sub	t5,a1,t5
   1a20a:	01e5b5b3          	sltu	a1,a1,t5
   1a20e:	005ef2b3          	and	t0,t4,t0
   1a212:	41f30533          	sub	a0,t1,t6
   1a216:	0055e5b3          	or	a1,a1,t0
   1a21a:	8d0d                	sub	a0,a0,a1
   1a21c:	41df0f33          	sub	t5,t5,t4
   1a220:	d62a                	sw	a0,44(sp)
   1a222:	d47a                	sw	t5,40(sp)
   1a224:	d23a                	sw	a4,36(sp)
   1a226:	d036                	sw	a3,32(sp)
   1a228:	8946                	mv	s2,a7
   1a22a:	c929                	beqz	a0,1a27c <__subtf3+0xdba>
   1a22c:	25dd                	jal	1a912 <__clzsi2>
   1a22e:	ff450713          	addi	a4,a0,-12
   1a232:	02000613          	li	a2,32
   1a236:	01f77813          	andi	a6,a4,31
   1a23a:	02c746b3          	div	a3,a4,a2
   1a23e:	107c                	addi	a5,sp,44
   1a240:	04080f63          	beqz	a6,1a29e <__subtf3+0xddc>
   1a244:	00269893          	slli	a7,a3,0x2
   1a248:	1008                	addi	a0,sp,32
   1a24a:	411787b3          	sub	a5,a5,a7
   1a24e:	02c765b3          	rem	a1,a4,a2
   1a252:	8e0d                	sub	a2,a2,a1
   1a254:	06f51463          	bne	a0,a5,1a2bc <__subtf3+0xdfa>
   1a258:	fff68793          	addi	a5,a3,-1
   1a25c:	5682                	lw	a3,32(sp)
   1a25e:	9546                	add	a0,a0,a7
   1a260:	010696b3          	sll	a3,a3,a6
   1a264:	c114                	sw	a3,0(a0)
   1a266:	567d                	li	a2,-1
   1a268:	02010893          	addi	a7,sp,32
   1a26c:	a8ad                	j	1a2e6 <__subtf3+0xe24>
   1a26e:	014e67b3          	or	a5,t3,s4
   1a272:	0157e7b3          	or	a5,a5,s5
   1a276:	8fc9                	or	a5,a5,a0
   1a278:	fbcd                	bnez	a5,1a22a <__subtf3+0xd68>
   1a27a:	b541                	j	1a0fa <__subtf3+0xc38>
   1a27c:	5522                	lw	a0,40(sp)
   1a27e:	c509                	beqz	a0,1a288 <__subtf3+0xdc6>
   1a280:	2d49                	jal	1a912 <__clzsi2>
   1a282:	02050513          	addi	a0,a0,32
   1a286:	b765                	j	1a22e <__subtf3+0xd6c>
   1a288:	5512                	lw	a0,36(sp)
   1a28a:	c509                	beqz	a0,1a294 <__subtf3+0xdd2>
   1a28c:	2559                	jal	1a912 <__clzsi2>
   1a28e:	04050513          	addi	a0,a0,64
   1a292:	bf71                	j	1a22e <__subtf3+0xd6c>
   1a294:	5502                	lw	a0,32(sp)
   1a296:	2db5                	jal	1a912 <__clzsi2>
   1a298:	06050513          	addi	a0,a0,96
   1a29c:	bf49                	j	1a22e <__subtf3+0xd6c>
   1a29e:	55f1                	li	a1,-4
   1a2a0:	02b685b3          	mul	a1,a3,a1
   1a2a4:	460d                	li	a2,3
   1a2a6:	00b78533          	add	a0,a5,a1
   1a2aa:	4108                	lw	a0,0(a0)
   1a2ac:	167d                	addi	a2,a2,-1 # 7ffff <__BSS_END__+0x6344b>
   1a2ae:	17f1                	addi	a5,a5,-4
   1a2b0:	c3c8                	sw	a0,4(a5)
   1a2b2:	fed65ae3          	bge	a2,a3,1a2a6 <__subtf3+0xde4>
   1a2b6:	fff68793          	addi	a5,a3,-1
   1a2ba:	b775                	j	1a266 <__subtf3+0xda4>
   1a2bc:	438c                	lw	a1,0(a5)
   1a2be:	ffc7a303          	lw	t1,-4(a5)
   1a2c2:	01178e33          	add	t3,a5,a7
   1a2c6:	010595b3          	sll	a1,a1,a6
   1a2ca:	00c35333          	srl	t1,t1,a2
   1a2ce:	0065e5b3          	or	a1,a1,t1
   1a2d2:	00be2023          	sw	a1,0(t3)
   1a2d6:	17f1                	addi	a5,a5,-4
   1a2d8:	bfb5                	j	1a254 <__subtf3+0xd92>
   1a2da:	00279693          	slli	a3,a5,0x2
   1a2de:	96c6                	add	a3,a3,a7
   1a2e0:	0006a023          	sw	zero,0(a3)
   1a2e4:	17fd                	addi	a5,a5,-1
   1a2e6:	fec79ae3          	bne	a5,a2,1a2da <__subtf3+0xe18>
   1a2ea:	0a874c63          	blt	a4,s0,1a3a2 <__subtf3+0xee0>
   1a2ee:	8f01                	sub	a4,a4,s0
   1a2f0:	0705                	addi	a4,a4,1
   1a2f2:	40575693          	srai	a3,a4,0x5
   1a2f6:	85c6                	mv	a1,a7
   1a2f8:	8b7d                	andi	a4,a4,31
   1a2fa:	8546                	mv	a0,a7
   1a2fc:	4781                	li	a5,0
   1a2fe:	4601                	li	a2,0
   1a300:	02d61363          	bne	a2,a3,1a326 <__subtf3+0xe64>
   1a304:	460d                	li	a2,3
   1a306:	8e15                	sub	a2,a2,a3
   1a308:	00269e13          	slli	t3,a3,0x2
   1a30c:	e705                	bnez	a4,1a334 <__subtf3+0xe72>
   1a30e:	01c58533          	add	a0,a1,t3
   1a312:	4108                	lw	a0,0(a0)
   1a314:	0705                	addi	a4,a4,1
   1a316:	c188                	sw	a0,0(a1)
   1a318:	0591                	addi	a1,a1,4
   1a31a:	fee65ae3          	bge	a2,a4,1a30e <__subtf3+0xe4c>
   1a31e:	4711                	li	a4,4
   1a320:	40d706b3          	sub	a3,a4,a3
   1a324:	a835                	j	1a360 <__subtf3+0xe9e>
   1a326:	00052803          	lw	a6,0(a0)
   1a32a:	0605                	addi	a2,a2,1
   1a32c:	0511                	addi	a0,a0,4
   1a32e:	0107e7b3          	or	a5,a5,a6
   1a332:	b7f9                	j	1a300 <__subtf3+0xe3e>
   1a334:	01c885b3          	add	a1,a7,t3
   1a338:	4188                	lw	a0,0(a1)
   1a33a:	02000813          	li	a6,32
   1a33e:	40e80833          	sub	a6,a6,a4
   1a342:	01051533          	sll	a0,a0,a6
   1a346:	8fc9                	or	a5,a5,a0
   1a348:	4301                	li	t1,0
   1a34a:	00c34d63          	blt	t1,a2,1a364 <__subtf3+0xea2>
   1a34e:	4591                	li	a1,4
   1a350:	40d586b3          	sub	a3,a1,a3
   1a354:	55b2                	lw	a1,44(sp)
   1a356:	060a                	slli	a2,a2,0x2
   1a358:	9646                	add	a2,a2,a7
   1a35a:	00e5d733          	srl	a4,a1,a4
   1a35e:	c218                	sw	a4,0(a2)
   1a360:	4611                	li	a2,4
   1a362:	a03d                	j	1a390 <__subtf3+0xece>
   1a364:	4188                	lw	a0,0(a1)
   1a366:	0045ae83          	lw	t4,4(a1)
   1a36a:	41c58f33          	sub	t5,a1,t3
   1a36e:	00e55533          	srl	a0,a0,a4
   1a372:	010e9eb3          	sll	t4,t4,a6
   1a376:	01d56533          	or	a0,a0,t4
   1a37a:	00af2023          	sw	a0,0(t5)
   1a37e:	0305                	addi	t1,t1,1
   1a380:	0591                	addi	a1,a1,4
   1a382:	b7e1                	j	1a34a <__subtf3+0xe88>
   1a384:	00269713          	slli	a4,a3,0x2
   1a388:	9746                	add	a4,a4,a7
   1a38a:	00072023          	sw	zero,0(a4)
   1a38e:	0685                	addi	a3,a3,1
   1a390:	fec69ae3          	bne	a3,a2,1a384 <__subtf3+0xec2>
   1a394:	5702                	lw	a4,32(sp)
   1a396:	00f037b3          	snez	a5,a5
   1a39a:	8fd9                	or	a5,a5,a4
   1a39c:	d03e                	sw	a5,32(sp)
   1a39e:	dd4ff06f          	j	19972 <__subtf3+0x4b0>
   1a3a2:	57b2                	lw	a5,44(sp)
   1a3a4:	fff806b7          	lui	a3,0xfff80
   1a3a8:	16fd                	addi	a3,a3,-1 # fff7ffff <__BSS_END__+0xfff6344b>
   1a3aa:	40e40733          	sub	a4,s0,a4
   1a3ae:	8ff5                	and	a5,a5,a3
   1a3b0:	bb6ff06f          	j	19766 <__subtf3+0x2a4>
   1a3b4:	d62e                	sw	a1,44(sp)
   1a3b6:	dbcff06f          	j	19972 <__subtf3+0x4b0>
   1a3ba:	8796                	mv	a5,t0
   1a3bc:	db6ff06f          	j	19972 <__subtf3+0x4b0>
   1a3c0:	e2091263          	bnez	s2,199e4 <__subtf3+0x522>
   1a3c4:	ff87b793          	sltiu	a5,a5,-8
   1a3c8:	e04ff06f          	j	199cc <__subtf3+0x50a>
   1a3cc:	e0090c63          	beqz	s2,199e4 <__subtf3+0x522>
   1a3d0:	bfd5                	j	1a3c4 <__subtf3+0xf02>
   1a3d2:	00091b63          	bnez	s2,1a3e8 <__subtf3+0xf26>
   1a3d6:	00878593          	addi	a1,a5,8
   1a3da:	d02e                	sw	a1,32(sp)
   1a3dc:	ff87b793          	sltiu	a5,a5,-8
   1a3e0:	ea4ff06f          	j	19a84 <__subtf3+0x5c2>
   1a3e4:	fe0919e3          	bnez	s2,1a3d6 <__subtf3+0xf14>
   1a3e8:	c609                	beqz	a2,1a3f2 <__subtf3+0xf30>
   1a3ea:	00147793          	andi	a5,s0,1
   1a3ee:	0786                	slli	a5,a5,0x1
   1a3f0:	8c5d                	or	s0,s0,a5
   1a3f2:	57b2                	lw	a5,44(sp)
   1a3f4:	00c79693          	slli	a3,a5,0xc
   1a3f8:	0006dc63          	bgez	a3,1a410 <__subtf3+0xf4e>
   1a3fc:	66a1                	lui	a3,0x8
   1a3fe:	0705                	addi	a4,a4,1
   1a400:	16fd                	addi	a3,a3,-1 # 7fff <exit-0x80b5>
   1a402:	08d70463          	beq	a4,a3,1a48a <__subtf3+0xfc8>
   1a406:	fff806b7          	lui	a3,0xfff80
   1a40a:	16fd                	addi	a3,a3,-1 # fff7ffff <__BSS_END__+0xfff6344b>
   1a40c:	8ff5                	and	a5,a5,a3
   1a40e:	d63e                	sw	a5,44(sp)
   1a410:	101c                	addi	a5,sp,32
   1a412:	106c                	addi	a1,sp,44
   1a414:	4394                	lw	a3,0(a5)
   1a416:	43d0                	lw	a2,4(a5)
   1a418:	828d                	srli	a3,a3,0x3
   1a41a:	0676                	slli	a2,a2,0x1d
   1a41c:	8ed1                	or	a3,a3,a2
   1a41e:	c394                	sw	a3,0(a5)
   1a420:	0791                	addi	a5,a5,4
   1a422:	fef599e3          	bne	a1,a5,1a414 <__subtf3+0xf52>
   1a426:	57b2                	lw	a5,44(sp)
   1a428:	6621                	lui	a2,0x8
   1a42a:	fff60693          	addi	a3,a2,-1 # 7fff <exit-0x80b5>
   1a42e:	838d                	srli	a5,a5,0x3
   1a430:	00d71e63          	bne	a4,a3,1a44c <__subtf3+0xf8a>
   1a434:	5592                	lw	a1,36(sp)
   1a436:	5682                	lw	a3,32(sp)
   1a438:	8ecd                	or	a3,a3,a1
   1a43a:	55a2                	lw	a1,40(sp)
   1a43c:	8ecd                	or	a3,a3,a1
   1a43e:	8fd5                	or	a5,a5,a3
   1a440:	c791                	beqz	a5,1a44c <__subtf3+0xf8a>
   1a442:	d402                	sw	zero,40(sp)
   1a444:	d202                	sw	zero,36(sp)
   1a446:	d002                	sw	zero,32(sp)
   1a448:	87b2                	mv	a5,a2
   1a44a:	4901                	li	s2,0
   1a44c:	0746                	slli	a4,a4,0x11
   1a44e:	093e                	slli	s2,s2,0xf
   1a450:	8345                	srli	a4,a4,0x11
   1a452:	00e96933          	or	s2,s2,a4
   1a456:	02f11e23          	sh	a5,60(sp)
   1a45a:	03211f23          	sh	s2,62(sp)
   1a45e:	5582                	lw	a1,32(sp)
   1a460:	5612                	lw	a2,36(sp)
   1a462:	56a2                	lw	a3,40(sp)
   1a464:	57f2                	lw	a5,60(sp)
   1a466:	c019                	beqz	s0,1a46c <__subtf3+0xfaa>
   1a468:	00142073          	csrs	fflags,s0
   1a46c:	40f6                	lw	ra,92(sp)
   1a46e:	4466                	lw	s0,88(sp)
   1a470:	c08c                	sw	a1,0(s1)
   1a472:	c0d0                	sw	a2,4(s1)
   1a474:	c494                	sw	a3,8(s1)
   1a476:	c4dc                	sw	a5,12(s1)
   1a478:	4946                	lw	s2,80(sp)
   1a47a:	49b6                	lw	s3,76(sp)
   1a47c:	4a26                	lw	s4,72(sp)
   1a47e:	4a96                	lw	s5,68(sp)
   1a480:	4b06                	lw	s6,64(sp)
   1a482:	8526                	mv	a0,s1
   1a484:	44d6                	lw	s1,84(sp)
   1a486:	6125                	addi	sp,sp,96
   1a488:	8082                	ret
   1a48a:	4781                	li	a5,0
   1a48c:	02098163          	beqz	s3,1a4ae <__subtf3+0xfec>
   1a490:	468d                	li	a3,3
   1a492:	00d99863          	bne	s3,a3,1a4a2 <__subtf3+0xfe0>
   1a496:	00090c63          	beqz	s2,1a4ae <__subtf3+0xfec>
   1a49a:	6721                	lui	a4,0x8
   1a49c:	57fd                	li	a5,-1
   1a49e:	1779                	addi	a4,a4,-2 # 7ffe <exit-0x80b6>
   1a4a0:	a039                	j	1a4ae <__subtf3+0xfec>
   1a4a2:	19f9                	addi	s3,s3,-2
   1a4a4:	fe099be3          	bnez	s3,1a49a <__subtf3+0xfd8>
   1a4a8:	00197693          	andi	a3,s2,1
   1a4ac:	d6fd                	beqz	a3,1a49a <__subtf3+0xfd8>
   1a4ae:	d63e                	sw	a5,44(sp)
   1a4b0:	d43e                	sw	a5,40(sp)
   1a4b2:	d23e                	sw	a5,36(sp)
   1a4b4:	d03e                	sw	a5,32(sp)
   1a4b6:	00546413          	ori	s0,s0,5
   1a4ba:	bf99                	j	1a410 <__subtf3+0xf4e>
   1a4bc:	07400793          	li	a5,116
   1a4c0:	9ac7dd63          	bge	a5,a2,1967a <__subtf3+0x1b8>
   1a4c4:	ce02                	sw	zero,28(sp)
   1a4c6:	cc02                	sw	zero,24(sp)
   1a4c8:	ca02                	sw	zero,20(sp)
   1a4ca:	4605                	li	a2,1
   1a4cc:	a5eff06f          	j	1972a <__subtf3+0x268>
   1a4d0:	07400713          	li	a4,116
   1a4d4:	b6875a63          	bge	a4,s0,19848 <__subtf3+0x386>
   1a4d8:	c602                	sw	zero,12(sp)
   1a4da:	c402                	sw	zero,8(sp)
   1a4dc:	c202                	sw	zero,4(sp)
   1a4de:	4605                	li	a2,1
   1a4e0:	c30ff06f          	j	19910 <__subtf3+0x44e>
   1a4e4:	07400793          	li	a5,116
   1a4e8:	80c7d2e3          	bge	a5,a2,19cec <__subtf3+0x82a>
   1a4ec:	ce02                	sw	zero,28(sp)
   1a4ee:	cc02                	sw	zero,24(sp)
   1a4f0:	ca02                	sw	zero,20(sp)
   1a4f2:	4605                	li	a2,1
   1a4f4:	b06d                	j	19d9e <__subtf3+0x8dc>
   1a4f6:	07400713          	li	a4,116
   1a4fa:	a1d750e3          	bge	a4,t4,19efa <__subtf3+0xa38>
   1a4fe:	c602                	sw	zero,12(sp)
   1a500:	c402                	sw	zero,8(sp)
   1a502:	c202                	sw	zero,4(sp)
   1a504:	4605                	li	a2,1
   1a506:	bc75                	j	19fc2 <__subtf3+0xb00>
   1a508:	de8e0a63          	beq	t3,s0,19afc <__subtf3+0x63a>
   1a50c:	4401                	li	s0,0
   1a50e:	dd8ff06f          	j	19ae6 <__subtf3+0x624>
   1a512:	c68e09e3          	beq	t3,s0,1a184 <__subtf3+0xcc2>
   1a516:	4401                	li	s0,0
   1a518:	b181                	j	1a158 <__subtf3+0xc96>

0001a51a <__unordtf2>:
   1a51a:	4114                	lw	a3,0(a0)
   1a51c:	00452f03          	lw	t5,4(a0)
   1a520:	00852e83          	lw	t4,8(a0)
   1a524:	4550                	lw	a2,12(a0)
   1a526:	419c                	lw	a5,0(a1)
   1a528:	0045ae03          	lw	t3,4(a1)
   1a52c:	0085a303          	lw	t1,8(a1)
   1a530:	45d8                	lw	a4,12(a1)
   1a532:	1141                	addi	sp,sp,-16
   1a534:	002025f3          	frrm	a1
   1a538:	6521                	lui	a0,0x8
   1a53a:	01061813          	slli	a6,a2,0x10
   1a53e:	157d                	addi	a0,a0,-1 # 7fff <exit-0x80b5>
   1a540:	8241                	srli	a2,a2,0x10
   1a542:	01071593          	slli	a1,a4,0x10
   1a546:	8e69                	and	a2,a2,a0
   1a548:	8341                	srli	a4,a4,0x10
   1a54a:	01085813          	srli	a6,a6,0x10
   1a54e:	81c1                	srli	a1,a1,0x10
   1a550:	8f69                	and	a4,a4,a0
   1a552:	00a61963          	bne	a2,a0,1a564 <__unordtf2+0x4a>
   1a556:	01e6e533          	or	a0,a3,t5
   1a55a:	01d56533          	or	a0,a0,t4
   1a55e:	01056533          	or	a0,a0,a6
   1a562:	e105                	bnez	a0,1a582 <__unordtf2+0x68>
   1a564:	68a1                	lui	a7,0x8
   1a566:	18fd                	addi	a7,a7,-1 # 7fff <exit-0x80b5>
   1a568:	4501                	li	a0,0
   1a56a:	05171d63          	bne	a4,a7,1a5c4 <__unordtf2+0xaa>
   1a56e:	01c7e8b3          	or	a7,a5,t3
   1a572:	0068e8b3          	or	a7,a7,t1
   1a576:	00b8e8b3          	or	a7,a7,a1
   1a57a:	04088563          	beqz	a7,1a5c4 <__unordtf2+0xaa>
   1a57e:	02e61463          	bne	a2,a4,1a5a6 <__unordtf2+0x8c>
   1a582:	01e6e6b3          	or	a3,a3,t5
   1a586:	01d6e6b3          	or	a3,a3,t4
   1a58a:	0106e6b3          	or	a3,a3,a6
   1a58e:	c699                	beqz	a3,1a59c <__unordtf2+0x82>
   1a590:	fff84813          	not	a6,a6
   1a594:	01081693          	slli	a3,a6,0x10
   1a598:	0206c363          	bltz	a3,1a5be <__unordtf2+0xa4>
   1a59c:	66a1                	lui	a3,0x8
   1a59e:	16fd                	addi	a3,a3,-1 # 7fff <exit-0x80b5>
   1a5a0:	4505                	li	a0,1
   1a5a2:	02d71163          	bne	a4,a3,1a5c4 <__unordtf2+0xaa>
   1a5a6:	01c7e7b3          	or	a5,a5,t3
   1a5aa:	0067e7b3          	or	a5,a5,t1
   1a5ae:	8fcd                	or	a5,a5,a1
   1a5b0:	cb89                	beqz	a5,1a5c2 <__unordtf2+0xa8>
   1a5b2:	fff5c593          	not	a1,a1
   1a5b6:	01059793          	slli	a5,a1,0x10
   1a5ba:	0007d463          	bgez	a5,1a5c2 <__unordtf2+0xa8>
   1a5be:	00186073          	csrsi	fflags,16
   1a5c2:	4505                	li	a0,1
   1a5c4:	0141                	addi	sp,sp,16
   1a5c6:	8082                	ret

0001a5c8 <__fixtfsi>:
   1a5c8:	4114                	lw	a3,0(a0)
   1a5ca:	00452883          	lw	a7,4(a0)
   1a5ce:	451c                	lw	a5,8(a0)
   1a5d0:	4550                	lw	a2,12(a0)
   1a5d2:	1101                	addi	sp,sp,-32
   1a5d4:	00202773          	frrm	a4
   1a5d8:	00161593          	slli	a1,a2,0x1
   1a5dc:	0115d813          	srli	a6,a1,0x11
   1a5e0:	6591                	lui	a1,0x4
   1a5e2:	01061713          	slli	a4,a2,0x10
   1a5e6:	c036                	sw	a3,0(sp)
   1a5e8:	c246                	sw	a7,4(sp)
   1a5ea:	c43e                	sw	a5,8(sp)
   1a5ec:	c632                	sw	a2,12(sp)
   1a5ee:	c836                	sw	a3,16(sp)
   1a5f0:	ca46                	sw	a7,20(sp)
   1a5f2:	cc3e                	sw	a5,24(sp)
   1a5f4:	15f9                	addi	a1,a1,-2 # 3ffe <exit-0xc0b6>
   1a5f6:	8341                	srli	a4,a4,0x10
   1a5f8:	0105cc63          	blt	a1,a6,1a610 <__fixtfsi+0x48>
   1a5fc:	0c081463          	bnez	a6,1a6c4 <__fixtfsi+0xfc>
   1a600:	0116e6b3          	or	a3,a3,a7
   1a604:	8edd                	or	a3,a3,a5
   1a606:	00e6e533          	or	a0,a3,a4
   1a60a:	ed4d                	bnez	a0,1a6c4 <__fixtfsi+0xfc>
   1a60c:	6105                	addi	sp,sp,32
   1a60e:	8082                	ret
   1a610:	6511                	lui	a0,0x4
   1a612:	827d                	srli	a2,a2,0x1f
   1a614:	0575                	addi	a0,a0,29 # 401d <exit-0xc097>
   1a616:	85b2                	mv	a1,a2
   1a618:	03055663          	bge	a0,a6,1a644 <__fixtfsi+0x7c>
   1a61c:	80000537          	lui	a0,0x80000
   1a620:	c64d                	beqz	a2,1a6ca <__fixtfsi+0x102>
   1a622:	6611                	lui	a2,0x4
   1a624:	0679                	addi	a2,a2,30 # 401e <exit-0xc096>
   1a626:	0ac81563          	bne	a6,a2,1a6d0 <__fixtfsi+0x108>
   1a62a:	0117d613          	srli	a2,a5,0x11
   1a62e:	073e                	slli	a4,a4,0xf
   1a630:	8f51                	or	a4,a4,a2
   1a632:	ef59                	bnez	a4,1a6d0 <__fixtfsi+0x108>
   1a634:	0116e6b3          	or	a3,a3,a7
   1a638:	07be                	slli	a5,a5,0xf
   1a63a:	8fd5                	or	a5,a5,a3
   1a63c:	dbe1                	beqz	a5,1a60c <__fixtfsi+0x44>
   1a63e:	0015a073          	csrs	fflags,a1
   1a642:	b7e9                	j	1a60c <__fixtfsi+0x44>
   1a644:	66c1                	lui	a3,0x10
   1a646:	8f55                	or	a4,a4,a3
   1a648:	6691                	lui	a3,0x4
   1a64a:	06f68693          	addi	a3,a3,111 # 406f <exit-0xc045>
   1a64e:	410686b3          	sub	a3,a3,a6
   1a652:	0808                	addi	a0,sp,16
   1a654:	4056d313          	srai	t1,a3,0x5
   1a658:	ce3a                	sw	a4,28(sp)
   1a65a:	8afd                	andi	a3,a3,31
   1a65c:	4801                	li	a6,0
   1a65e:	4881                	li	a7,0
   1a660:	85aa                	mv	a1,a0
   1a662:	00052e03          	lw	t3,0(a0) # 80000000 <__BSS_END__+0x7ffe344c>
   1a666:	0885                	addi	a7,a7,1
   1a668:	0511                	addi	a0,a0,4
   1a66a:	01c86833          	or	a6,a6,t3
   1a66e:	ff131ae3          	bne	t1,a7,1a662 <__fixtfsi+0x9a>
   1a672:	00231893          	slli	a7,t1,0x2
   1a676:	ee81                	bnez	a3,1a68e <__fixtfsi+0xc6>
   1a678:	95c6                	add	a1,a1,a7
   1a67a:	419c                	lw	a5,0(a1)
   1a67c:	c83e                	sw	a5,16(sp)
   1a67e:	4542                	lw	a0,16(sp)
   1a680:	c219                	beqz	a2,1a686 <__fixtfsi+0xbe>
   1a682:	40a00533          	neg	a0,a0
   1a686:	4585                	li	a1,1
   1a688:	fa081be3          	bnez	a6,1a63e <__fixtfsi+0x76>
   1a68c:	b741                	j	1a60c <__fixtfsi+0x44>
   1a68e:	98ae                	add	a7,a7,a1
   1a690:	0008a883          	lw	a7,0(a7)
   1a694:	02000513          	li	a0,32
   1a698:	8d15                	sub	a0,a0,a3
   1a69a:	00a898b3          	sll	a7,a7,a0
   1a69e:	4e09                	li	t3,2
   1a6a0:	01186833          	or	a6,a6,a7
   1a6a4:	4881                	li	a7,0
   1a6a6:	01c31963          	bne	t1,t3,1a6b8 <__fixtfsi+0xf0>
   1a6aa:	00d7d7b3          	srl	a5,a5,a3
   1a6ae:	00a71533          	sll	a0,a4,a0
   1a6b2:	8fc9                	or	a5,a5,a0
   1a6b4:	c83e                	sw	a5,16(sp)
   1a6b6:	4885                	li	a7,1
   1a6b8:	088a                	slli	a7,a7,0x2
   1a6ba:	95c6                	add	a1,a1,a7
   1a6bc:	00d75733          	srl	a4,a4,a3
   1a6c0:	c198                	sw	a4,0(a1)
   1a6c2:	bf75                	j	1a67e <__fixtfsi+0xb6>
   1a6c4:	4585                	li	a1,1
   1a6c6:	4501                	li	a0,0
   1a6c8:	bf9d                	j	1a63e <__fixtfsi+0x76>
   1a6ca:	45c1                	li	a1,16
   1a6cc:	157d                	addi	a0,a0,-1
   1a6ce:	bf85                	j	1a63e <__fixtfsi+0x76>
   1a6d0:	45c1                	li	a1,16
   1a6d2:	b7b5                	j	1a63e <__fixtfsi+0x76>

0001a6d4 <__floatsitf>:
   1a6d4:	7179                	addi	sp,sp,-48
   1a6d6:	d226                	sw	s1,36(sp)
   1a6d8:	d606                	sw	ra,44(sp)
   1a6da:	d422                	sw	s0,40(sp)
   1a6dc:	d04a                	sw	s2,32(sp)
   1a6de:	84aa                	mv	s1,a0
   1a6e0:	c9c5                	beqz	a1,1a790 <__floatsitf+0xbc>
   1a6e2:	41f5d793          	srai	a5,a1,0x1f
   1a6e6:	00b7c433          	xor	s0,a5,a1
   1a6ea:	8c1d                	sub	s0,s0,a5
   1a6ec:	8522                	mv	a0,s0
   1a6ee:	01f5d913          	srli	s2,a1,0x1f
   1a6f2:	2405                	jal	1a912 <__clzsi2>
   1a6f4:	6591                	lui	a1,0x4
   1a6f6:	05f9                	addi	a1,a1,30 # 401e <exit-0xc096>
   1a6f8:	8d89                	sub	a1,a1,a0
   1a6fa:	05150513          	addi	a0,a0,81
   1a6fe:	40555793          	srai	a5,a0,0x5
   1a702:	c822                	sw	s0,16(sp)
   1a704:	ca02                	sw	zero,20(sp)
   1a706:	cc02                	sw	zero,24(sp)
   1a708:	ce02                	sw	zero,28(sp)
   1a70a:	897d                	andi	a0,a0,31
   1a70c:	0814                	addi	a3,sp,16
   1a70e:	c115                	beqz	a0,1a732 <__floatsitf+0x5e>
   1a710:	4709                	li	a4,2
   1a712:	06e79d63          	bne	a5,a4,1a78c <__floatsitf+0xb8>
   1a716:	02000713          	li	a4,32
   1a71a:	8f09                	sub	a4,a4,a0
   1a71c:	00e45733          	srl	a4,s0,a4
   1a720:	ce3a                	sw	a4,28(sp)
   1a722:	fff78713          	addi	a4,a5,-1
   1a726:	078a                	slli	a5,a5,0x2
   1a728:	97b6                	add	a5,a5,a3
   1a72a:	00a41433          	sll	s0,s0,a0
   1a72e:	c380                	sw	s0,0(a5)
   1a730:	a829                	j	1a74a <__floatsitf+0x76>
   1a732:	470d                	li	a4,3
   1a734:	8f1d                	sub	a4,a4,a5
   1a736:	070a                	slli	a4,a4,0x2
   1a738:	9736                	add	a4,a4,a3
   1a73a:	4318                	lw	a4,0(a4)
   1a73c:	4609                	li	a2,2
   1a73e:	ce3a                	sw	a4,28(sp)
   1a740:	8732                	mv	a4,a2
   1a742:	00c79463          	bne	a5,a2,1a74a <__floatsitf+0x76>
   1a746:	cc22                	sw	s0,24(sp)
   1a748:	4705                	li	a4,1
   1a74a:	070a                	slli	a4,a4,0x2
   1a74c:	0006a023          	sw	zero,0(a3)
   1a750:	0006a223          	sw	zero,4(a3)
   1a754:	1771                	addi	a4,a4,-4
   1a756:	4791                	li	a5,4
   1a758:	00f76363          	bltu	a4,a5,1a75e <__floatsitf+0x8a>
   1a75c:	cc02                	sw	zero,24(sp)
   1a75e:	47f2                	lw	a5,28(sp)
   1a760:	4642                	lw	a2,16(sp)
   1a762:	46d2                	lw	a3,20(sp)
   1a764:	00f11623          	sh	a5,12(sp)
   1a768:	00f91793          	slli	a5,s2,0xf
   1a76c:	8fcd                	or	a5,a5,a1
   1a76e:	00f11723          	sh	a5,14(sp)
   1a772:	4762                	lw	a4,24(sp)
   1a774:	47b2                	lw	a5,12(sp)
   1a776:	50b2                	lw	ra,44(sp)
   1a778:	5422                	lw	s0,40(sp)
   1a77a:	c090                	sw	a2,0(s1)
   1a77c:	c0d4                	sw	a3,4(s1)
   1a77e:	c498                	sw	a4,8(s1)
   1a780:	c4dc                	sw	a5,12(s1)
   1a782:	5902                	lw	s2,32(sp)
   1a784:	8526                	mv	a0,s1
   1a786:	5492                	lw	s1,36(sp)
   1a788:	6145                	addi	sp,sp,48
   1a78a:	8082                	ret
   1a78c:	478d                	li	a5,3
   1a78e:	bf51                	j	1a722 <__floatsitf+0x4e>
   1a790:	ce02                	sw	zero,28(sp)
   1a792:	cc02                	sw	zero,24(sp)
   1a794:	ca02                	sw	zero,20(sp)
   1a796:	c802                	sw	zero,16(sp)
   1a798:	4901                	li	s2,0
   1a79a:	b7d1                	j	1a75e <__floatsitf+0x8a>

0001a79c <__extenddftf2>:
   1a79c:	715d                	addi	sp,sp,-80
   1a79e:	a42a                	fsd	fa0,8(sp)
   1a7a0:	c0ca                	sw	s2,64(sp)
   1a7a2:	de4e                	sw	s3,60(sp)
   1a7a4:	dc52                	sw	s4,56(sp)
   1a7a6:	4922                	lw	s2,8(sp)
   1a7a8:	49b2                	lw	s3,12(sp)
   1a7aa:	c686                	sw	ra,76(sp)
   1a7ac:	c4a2                	sw	s0,72(sp)
   1a7ae:	c2a6                	sw	s1,68(sp)
   1a7b0:	8a2a                	mv	s4,a0
   1a7b2:	002027f3          	frrm	a5
   1a7b6:	0149d493          	srli	s1,s3,0x14
   1a7ba:	00c99793          	slli	a5,s3,0xc
   1a7be:	7ff4f493          	andi	s1,s1,2047
   1a7c2:	83b1                	srli	a5,a5,0xc
   1a7c4:	00148713          	addi	a4,s1,1
   1a7c8:	d04a                	sw	s2,32(sp)
   1a7ca:	d23e                	sw	a5,36(sp)
   1a7cc:	d602                	sw	zero,44(sp)
   1a7ce:	d402                	sw	zero,40(sp)
   1a7d0:	7fe77713          	andi	a4,a4,2046
   1a7d4:	01f9d413          	srli	s0,s3,0x1f
   1a7d8:	c325                	beqz	a4,1a838 <__extenddftf2+0x9c>
   1a7da:	0047d693          	srli	a3,a5,0x4
   1a7de:	6711                	lui	a4,0x4
   1a7e0:	d636                	sw	a3,44(sp)
   1a7e2:	07f2                	slli	a5,a5,0x1c
   1a7e4:	00495693          	srli	a3,s2,0x4
   1a7e8:	c0070713          	addi	a4,a4,-1024 # 3c00 <exit-0xc4b4>
   1a7ec:	8fd5                	or	a5,a5,a3
   1a7ee:	0972                	slli	s2,s2,0x1c
   1a7f0:	9726                	add	a4,a4,s1
   1a7f2:	d43e                	sw	a5,40(sp)
   1a7f4:	d24a                	sw	s2,36(sp)
   1a7f6:	d002                	sw	zero,32(sp)
   1a7f8:	4481                	li	s1,0
   1a7fa:	57b2                	lw	a5,44(sp)
   1a7fc:	043e                	slli	s0,s0,0xf
   1a7fe:	8c59                	or	s0,s0,a4
   1a800:	00f11e23          	sh	a5,28(sp)
   1a804:	00811f23          	sh	s0,30(sp)
   1a808:	5582                	lw	a1,32(sp)
   1a80a:	5612                	lw	a2,36(sp)
   1a80c:	56a2                	lw	a3,40(sp)
   1a80e:	47f2                	lw	a5,28(sp)
   1a810:	c099                	beqz	s1,1a816 <__extenddftf2+0x7a>
   1a812:	00186073          	csrsi	fflags,16
   1a816:	40b6                	lw	ra,76(sp)
   1a818:	4426                	lw	s0,72(sp)
   1a81a:	00ba2023          	sw	a1,0(s4) # 10000 <exit-0xb4>
   1a81e:	00ca2223          	sw	a2,4(s4)
   1a822:	00da2423          	sw	a3,8(s4)
   1a826:	00fa2623          	sw	a5,12(s4)
   1a82a:	4496                	lw	s1,68(sp)
   1a82c:	4906                	lw	s2,64(sp)
   1a82e:	59f2                	lw	s3,60(sp)
   1a830:	8552                	mv	a0,s4
   1a832:	5a62                	lw	s4,56(sp)
   1a834:	6161                	addi	sp,sp,80
   1a836:	8082                	ret
   1a838:	0127e533          	or	a0,a5,s2
   1a83c:	e0dd                	bnez	s1,1a8e2 <__extenddftf2+0x146>
   1a83e:	dd55                	beqz	a0,1a7fa <__extenddftf2+0x5e>
   1a840:	c3a5                	beqz	a5,1a8a0 <__extenddftf2+0x104>
   1a842:	853e                	mv	a0,a5
   1a844:	20f9                	jal	1a912 <__clzsi2>
   1a846:	03150693          	addi	a3,a0,49
   1a84a:	4056d713          	srai	a4,a3,0x5
   1a84e:	8afd                	andi	a3,a3,31
   1a850:	107c                	addi	a5,sp,44
   1a852:	cab9                	beqz	a3,1a8a8 <__extenddftf2+0x10c>
   1a854:	02000813          	li	a6,32
   1a858:	00271593          	slli	a1,a4,0x2
   1a85c:	40d80833          	sub	a6,a6,a3
   1a860:	02010313          	addi	t1,sp,32
   1a864:	8f8d                	sub	a5,a5,a1
   1a866:	04679f63          	bne	a5,t1,1a8c4 <__extenddftf2+0x128>
   1a86a:	97ae                	add	a5,a5,a1
   1a86c:	00d916b3          	sll	a3,s2,a3
   1a870:	177d                	addi	a4,a4,-1
   1a872:	c394                	sw	a3,0(a5)
   1a874:	0705                	addi	a4,a4,1
   1a876:	070a                	slli	a4,a4,0x2
   1a878:	46a1                	li	a3,8
   1a87a:	101c                	addi	a5,sp,32
   1a87c:	00d76863          	bltu	a4,a3,1a88c <__extenddftf2+0xf0>
   1a880:	0007a023          	sw	zero,0(a5)
   1a884:	0007a223          	sw	zero,4(a5)
   1a888:	1761                	addi	a4,a4,-8
   1a88a:	103c                	addi	a5,sp,40
   1a88c:	4691                	li	a3,4
   1a88e:	00d76463          	bltu	a4,a3,1a896 <__extenddftf2+0xfa>
   1a892:	0007a023          	sw	zero,0(a5)
   1a896:	6711                	lui	a4,0x4
   1a898:	c0c70713          	addi	a4,a4,-1012 # 3c0c <exit-0xc4a8>
   1a89c:	8f09                	sub	a4,a4,a0
   1a89e:	bfb1                	j	1a7fa <__extenddftf2+0x5e>
   1a8a0:	288d                	jal	1a912 <__clzsi2>
   1a8a2:	02050513          	addi	a0,a0,32
   1a8a6:	b745                	j	1a846 <__extenddftf2+0xaa>
   1a8a8:	5671                	li	a2,-4
   1a8aa:	02c70633          	mul	a2,a4,a2
   1a8ae:	468d                	li	a3,3
   1a8b0:	00c785b3          	add	a1,a5,a2
   1a8b4:	418c                	lw	a1,0(a1)
   1a8b6:	16fd                	addi	a3,a3,-1
   1a8b8:	17f1                	addi	a5,a5,-4
   1a8ba:	c3cc                	sw	a1,4(a5)
   1a8bc:	fee6dae3          	bge	a3,a4,1a8b0 <__extenddftf2+0x114>
   1a8c0:	177d                	addi	a4,a4,-1
   1a8c2:	bf4d                	j	1a874 <__extenddftf2+0xd8>
   1a8c4:	4390                	lw	a2,0(a5)
   1a8c6:	ffc7a883          	lw	a7,-4(a5)
   1a8ca:	00b78e33          	add	t3,a5,a1
   1a8ce:	00d61633          	sll	a2,a2,a3
   1a8d2:	0108d8b3          	srl	a7,a7,a6
   1a8d6:	01166633          	or	a2,a2,a7
   1a8da:	00ce2023          	sw	a2,0(t3)
   1a8de:	17f1                	addi	a5,a5,-4
   1a8e0:	b759                	j	1a866 <__extenddftf2+0xca>
   1a8e2:	c50d                	beqz	a0,1a90c <__extenddftf2+0x170>
   1a8e4:	01c79713          	slli	a4,a5,0x1c
   1a8e8:	00495693          	srli	a3,s2,0x4
   1a8ec:	8f55                	or	a4,a4,a3
   1a8ee:	000804b7          	lui	s1,0x80
   1a8f2:	0097b4b3          	sltu	s1,a5,s1
   1a8f6:	d43a                	sw	a4,40(sp)
   1a8f8:	8391                	srli	a5,a5,0x4
   1a8fa:	6721                	lui	a4,0x8
   1a8fc:	0972                	slli	s2,s2,0x1c
   1a8fe:	8fd9                	or	a5,a5,a4
   1a900:	0492                	slli	s1,s1,0x4
   1a902:	d24a                	sw	s2,36(sp)
   1a904:	d002                	sw	zero,32(sp)
   1a906:	d63e                	sw	a5,44(sp)
   1a908:	177d                	addi	a4,a4,-1 # 7fff <exit-0x80b5>
   1a90a:	bdc5                	j	1a7fa <__extenddftf2+0x5e>
   1a90c:	4481                	li	s1,0
   1a90e:	6721                	lui	a4,0x8
   1a910:	bfe5                	j	1a908 <__extenddftf2+0x16c>

0001a912 <__clzsi2>:
   1a912:	67c1                	lui	a5,0x10
   1a914:	02f57563          	bgeu	a0,a5,1a93e <__clzsi2+0x2c>
   1a918:	10053793          	sltiu	a5,a0,256
   1a91c:	0017b793          	seqz	a5,a5
   1a920:	078e                	slli	a5,a5,0x3
   1a922:	676d                	lui	a4,0x1b
   1a924:	00f55533          	srl	a0,a0,a5
   1a928:	02070713          	addi	a4,a4,32 # 1b020 <__clz_tab>
   1a92c:	972a                	add	a4,a4,a0
   1a92e:	00074503          	lbu	a0,0(a4)
   1a932:	02000693          	li	a3,32
   1a936:	8e9d                	sub	a3,a3,a5
   1a938:	40a68533          	sub	a0,a3,a0
   1a93c:	8082                	ret
   1a93e:	01000737          	lui	a4,0x1000
   1a942:	47e1                	li	a5,24
   1a944:	fce57fe3          	bgeu	a0,a4,1a922 <__clzsi2+0x10>
   1a948:	47c1                	li	a5,16
   1a94a:	bfe1                	j	1a922 <__clzsi2+0x10>
